
../kernel/linux-4.19.157/arch/x86/boot/compressed/vmlinux:     file format elf64-x86-64


Disassembly of section .head.text:

0000000000000000 <startup_32>:
   0:	fc                   	cld    
   1:	f6 86 11 02 00 00 40 	testb  $0x40,0x211(%rsi)
   8:	75 0c                	jne    16 <startup_32+0x16>
   a:	fa                   	cli    
   b:	b8 18 00 00 00       	mov    $0x18,%eax
  10:	8e d8                	mov    %eax,%ds
  12:	8e c0                	mov    %eax,%es
  14:	8e d0                	mov    %eax,%ss
  16:	8d a6 e8 01 00 00    	lea    0x1e8(%rsi),%esp
  1c:	e8 00 00 00 00       	callq  21 <startup_32+0x21>
  21:	5d                   	pop    %rbp
  22:	81 ed 21 00 00 00    	sub    $0x21,%ebp
  28:	b8 00 a1 a6 00       	mov    $0xa6a100,%eax
  2d:	01 e8                	add    %ebp,%eax
  2f:	89 c4                	mov    %eax,%esp
  31:	e8 ea a4 a4 00       	callq  a4a520 <verify_cpu>
  36:	85 c0                	test   %eax,%eax
  38:	0f 85 d2 a4 a4 00    	jne    a4a510 <no_longmode>
  3e:	89 eb                	mov    %ebp,%ebx
  40:	8b 86 30 02 00 00    	mov    0x230(%rsi),%eax
  46:	48 01 c3             	add    %rax,%rbx
  49:	f7 d0                	not    %eax
  4b:	21 c3                	and    %eax,%ebx
  4d:	81 fb 00 00 00 01    	cmp    $0x1000000,%ebx
  53:	73 05                	jae    5a <startup_32+0x5a>
  55:	bb 00 00 00 01       	mov    $0x1000000,%ebx
  5a:	8b 86 60 02 00 00    	mov    0x260(%rsi),%eax
  60:	2d 00 00 a8 00       	sub    $0xa80000,%eax
  65:	01 c3                	add    %eax,%ebx
  67:	01 ad 72 5e a5 00    	add    %ebp,0xa55e72(%rbp)
  6d:	0f 01 95 70 5e a5 00 	lgdt   0xa55e70(%rbp)
  74:	0f 20 e0             	mov    %cr4,%rax
  77:	83 c8 20             	or     $0x20,%eax
  7a:	0f 22 e0             	mov    %rax,%cr4
  7d:	e8 ce fc a4 00       	callq  a4fd50 <get_sev_encryption_bit>
  82:	31 d2                	xor    %edx,%edx
  84:	85 c0                	test   %eax,%eax
  86:	74 06                	je     8e <startup_32+0x8e>
  88:	83 e8 20             	sub    $0x20,%eax
  8b:	0f ab c2             	bts    %eax,%edx
  8e:	8d bb 00 e0 a6 00    	lea    0xa6e000(%rbx),%edi
  94:	31 c0                	xor    %eax,%eax
  96:	b9 00 18 00 00       	mov    $0x1800,%ecx
  9b:	f3 ab                	rep stos %eax,%es:(%rdi)
  9d:	8d bb 00 e0 a6 00    	lea    0xa6e000(%rbx),%edi
  a3:	8d 87 07 10 00 00    	lea    0x1007(%rdi),%eax
  a9:	89 07                	mov    %eax,(%rdi)
  ab:	01 57 04             	add    %edx,0x4(%rdi)
  ae:	8d bb 00 f0 a6 00    	lea    0xa6f000(%rbx),%edi
  b4:	8d 87 07 10 00 00    	lea    0x1007(%rdi),%eax
  ba:	b9 04 00 00 00       	mov    $0x4,%ecx
  bf:	89 07                	mov    %eax,(%rdi)
  c1:	01 57 04             	add    %edx,0x4(%rdi)
  c4:	05 00 10 00 00       	add    $0x1000,%eax
  c9:	83 c7 08             	add    $0x8,%edi
  cc:	49 75 f0             	rex.WB jne bf <startup_32+0xbf>
  cf:	8d bb 00 00 a7 00    	lea    0xa70000(%rbx),%edi
  d5:	b8 83 01 00 00       	mov    $0x183,%eax
  da:	b9 00 08 00 00       	mov    $0x800,%ecx
  df:	89 07                	mov    %eax,(%rdi)
  e1:	01 57 04             	add    %edx,0x4(%rdi)
  e4:	05 00 00 20 00       	add    $0x200000,%eax
  e9:	83 c7 08             	add    $0x8,%edi
  ec:	49 75 f0             	rex.WB jne df <startup_32+0xdf>
  ef:	8d 83 00 e0 a6 00    	lea    0xa6e000(%rbx),%eax
  f5:	0f 22 d8             	mov    %rax,%cr3
  f8:	b9 80 00 00 c0       	mov    $0xc0000080,%ecx
  fd:	0f 32                	rdmsr  
  ff:	0f ba e8 08          	bts    $0x8,%eax
 103:	0f 30                	wrmsr  
 105:	31 c0                	xor    %eax,%eax
 107:	0f 00 d0             	lldt   %ax
 10a:	b8 20 00 00 00       	mov    $0x20,%eax
 10f:	0f 00 d8             	ltr    %ax
 112:	6a 10                	pushq  $0x10
 114:	8d 85 00 02 00 00    	lea    0x200(%rbp),%eax
 11a:	8b 9d a8 5e a5 00    	mov    0xa55ea8(%rbp),%ebx
 120:	83 fb 00             	cmp    $0x0,%ebx
 123:	74 06                	je     12b <startup_32+0x12b>
 125:	8d 85 40 03 00 00    	lea    0x340(%rbp),%eax
 12b:	50                   	push   %rax
 12c:	b8 01 00 00 80       	mov    $0x80000001,%eax
 131:	0f 22 c0             	mov    %rax,%cr0
 134:	cb                   	lret   
	...

0000000000000190 <efi32_stub_entry>:
 190:	83 c4 04             	add    $0x4,%esp
 193:	59                   	pop    %rcx
 194:	5a                   	pop    %rdx
 195:	5e                   	pop    %rsi
 196:	8d a6 e8 01 00 00    	lea    0x1e8(%rsi),%esp
 19c:	e8 00 00 00 00       	callq  1a1 <efi32_stub_entry+0x11>
 1a1:	5d                   	pop    %rbp
 1a2:	81 ed a1 01 00 00    	sub    $0x1a1,%ebp
 1a8:	89 8d a8 5e a5 00    	mov    %ecx,0xa55ea8(%rbp)
 1ae:	89 95 b0 5e a5 00    	mov    %edx,0xa55eb0(%rbp)
 1b4:	0f 01 85 48 5f a5 00 	sgdt   0xa55f48(%rbp)
 1bb:	8d 85 a8 5e a5 00    	lea    0xa55ea8(%rbp),%eax
 1c1:	89 85 a0 5e a5 00    	mov    %eax,0xa55ea0(%rbp)
 1c7:	0f 20 c0             	mov    %cr0,%rax
 1ca:	0f ba f0 1f          	btr    $0x1f,%eax
 1ce:	0f 22 c0             	mov    %rax,%cr0
 1d1:	e9 2a fe ff ff       	jmpq   0 <startup_32>
	...

0000000000000200 <startup_64>:
 200:	31 c0                	xor    %eax,%eax
 202:	8e d8                	mov    %eax,%ds
 204:	8e c0                	mov    %eax,%es
 206:	8e d0                	mov    %eax,%ss
 208:	8e e0                	mov    %eax,%fs
 20a:	8e e8                	mov    %eax,%gs
 20c:	48 8d 2d ed fd ff ff 	lea    -0x213(%rip),%rbp        # 0 <startup_32>
 213:	8b 86 30 02 00 00    	mov    0x230(%rsi),%eax
 219:	ff c8                	dec    %eax
 21b:	48 01 c5             	add    %rax,%rbp
 21e:	48 f7 d0             	not    %rax
 221:	48 21 c5             	and    %rax,%rbp
 224:	48 81 fd 00 00 00 01 	cmp    $0x1000000,%rbp
 22b:	73 07                	jae    234 <startup_64+0x34>
 22d:	48 c7 c5 00 00 00 01 	mov    $0x1000000,%rbp
 234:	8b 9e 60 02 00 00    	mov    0x260(%rsi),%ebx
 23a:	81 eb 00 00 a8 00    	sub    $0xa80000,%ebx
 240:	48 01 eb             	add    %rbp,%rbx
 243:	48 8d a3 00 a1 a6 00 	lea    0xa6a100(%rbx),%rsp
 24a:	48 31 c0             	xor    %rax,%rax
 24d:	e8 00 00 00 00       	callq  252 <startup_64+0x52>
 252:	5f                   	pop    %rdi
 253:	48 81 ef 52 02 00 00 	sub    $0x252,%rdi
 25a:	e8 14 a2 a4 00       	callq  a4a473 <adjust_got>
 25f:	48 8d 05 0a 5c a5 00 	lea    0xa55c0a(%rip),%rax        # a55e70 <gdt>
 266:	48 89 05 f5 5b a5 00 	mov    %rax,0xa55bf5(%rip)        # a55e62 <_data+0x2>
 26d:	0f 01 15 ec 5b a5 00 	lgdt   0xa55bec(%rip)        # a55e60 <_data>
 274:	56                   	push   %rsi
 275:	48 89 f7             	mov    %rsi,%rdi
 278:	e8 43 fb a4 00       	callq  a4fdc0 <paging_prepare>
 27d:	5e                   	pop    %rsi
 27e:	48 89 c1             	mov    %rax,%rcx
 281:	48 8d 3d 0c 00 00 00 	lea    0xc(%rip),%rdi        # 294 <trampoline_return>
 288:	6a 08                	pushq  $0x8
 28a:	48 8d 80 00 10 00 00 	lea    0x1000(%rax),%rax
 291:	50                   	push   %rax
 292:	48 cb                	lretq  

0000000000000294 <trampoline_return>:
 294:	48 8d a3 00 a1 a6 00 	lea    0xa6a100(%rbx),%rsp
 29b:	56                   	push   %rsi
 29c:	48 8d bb 00 f0 a7 00 	lea    0xa7f000(%rbx),%rdi
 2a3:	e8 f8 fd a4 00       	callq  a500a0 <cleanup_trampoline>
 2a8:	5e                   	pop    %rsi
 2a9:	6a 00                	pushq  $0x0
 2ab:	9d                   	popfq  
 2ac:	e8 00 00 00 00       	callq  2b1 <trampoline_return+0x1d>
 2b1:	58                   	pop    %rax
 2b2:	48 2d b1 02 00 00    	sub    $0x2b1,%rax
 2b8:	48 89 df             	mov    %rbx,%rdi
 2bb:	e8 b3 a1 a4 00       	callq  a4a473 <adjust_got>
 2c0:	56                   	push   %rsi
 2c1:	48 8d 35 30 5e a5 00 	lea    0xa55e30(%rip),%rsi        # a560f8 <_DYNAMIC+0x150>
 2c8:	48 8d bb f8 60 a5 00 	lea    0xa560f8(%rbx),%rdi
 2cf:	48 c7 c1 00 61 a5 00 	mov    $0xa56100,%rcx
 2d6:	48 c1 e9 03          	shr    $0x3,%rcx
 2da:	fd                   	std    
 2db:	f3 48 a5             	rep movsq %ds:(%rsi),%es:(%rdi)
 2de:	fc                   	cld    
 2df:	5e                   	pop    %rsi
 2e0:	48 8d 83 30 a4 a4 00 	lea    0xa4a430(%rbx),%rax
 2e7:	ff e0                	jmpq   *%rax
 2e9:	0f 1f 80 00 00 00 00 	nopl   0x0(%rax)

00000000000002f0 <efi_pe_entry>:
 2f0:	48 89 0d e2 5b a5 00 	mov    %rcx,0xa55be2(%rip)        # a55ed9 <efi64_config>
 2f7:	48 89 15 e3 5b a5 00 	mov    %rdx,0xa55be3(%rip)        # a55ee1 <efi64_config+0x8>
 2fe:	48 8d 05 d4 5b a5 00 	lea    0xa55bd4(%rip),%rax        # a55ed9 <efi64_config>
 305:	48 89 05 94 5b a5 00 	mov    %rax,0xa55b94(%rip)        # a55ea0 <efi_config>
 30c:	e8 00 00 00 00       	callq  311 <efi_pe_entry+0x21>
 311:	5d                   	pop    %rbp
 312:	48 81 ed 11 03 00 00 	sub    $0x311,%rbp
 319:	48 01 2d e1 5b a5 00 	add    %rbp,0xa55be1(%rip)        # a55f01 <efi64_config+0x28>
 320:	48 89 c7             	mov    %rax,%rdi
 323:	e8 98 03 a5 00       	callq  a506c0 <make_boot_params>
 328:	48 83 f8 00          	cmp    $0x0,%rax
 32c:	74 3f                	je     36d <fail>
 32e:	48 89 c6             	mov    %rax,%rsi
 331:	48 8d 05 c8 fc ff ff 	lea    -0x338(%rip),%rax        # 0 <startup_32>
 338:	89 86 14 02 00 00    	mov    %eax,0x214(%rsi)
 33e:	eb 18                	jmp    358 <handover_entry+0x18>

0000000000000340 <handover_entry>:
 340:	e8 00 00 00 00       	callq  345 <handover_entry+0x5>
 345:	5d                   	pop    %rbp
 346:	48 81 ed 45 03 00 00 	sub    $0x345,%rbp
 34d:	48 8b 05 4c 5b a5 00 	mov    0xa55b4c(%rip),%rax        # a55ea0 <efi_config>
 354:	48 01 68 28          	add    %rbp,0x28(%rax)
 358:	48 8b 3d 41 5b a5 00 	mov    0xa55b41(%rip),%rdi        # a55ea0 <efi_config>
 35f:	e8 bc 06 a5 00       	callq  a50a20 <efi_main>
 364:	48 89 c6             	mov    %rax,%rsi
 367:	48 83 f8 00          	cmp    $0x0,%rax
 36b:	75 03                	jne    370 <fail+0x3>

000000000000036d <fail>:
 36d:	f4                   	hlt    
 36e:	eb fd                	jmp    36d <fail>
 370:	67 8b 86 14 02 00 00 	mov    0x214(%esi),%eax
 377:	48 8d 80 00 02 00 00 	lea    0x200(%rax),%rax
 37e:	ff e0                	jmpq   *%rax
	...

0000000000000390 <efi64_stub_entry>:
 390:	48 89 3d 42 5b a5 00 	mov    %rdi,0xa55b42(%rip)        # a55ed9 <efi64_config>
 397:	48 89 35 43 5b a5 00 	mov    %rsi,0xa55b43(%rip)        # a55ee1 <efi64_config+0x8>
 39e:	48 8d 05 34 5b a5 00 	lea    0xa55b34(%rip),%rax        # a55ed9 <efi64_config>
 3a5:	48 89 05 f4 5a a5 00 	mov    %rax,0xa55af4(%rip)        # a55ea0 <efi_config>
 3ac:	48 89 d6             	mov    %rdx,%rsi
 3af:	eb 8f                	jmp    340 <handover_entry>

Disassembly of section .text:

0000000000a4a430 <_text>:
  a4a430:	31 c0                	xor    %eax,%eax
  a4a432:	48 8d 3d c7 bc 00 00 	lea    0xbcc7(%rip),%rdi        # a56100 <_bss>
  a4a439:	48 8d 0d 50 35 02 00 	lea    0x23550(%rip),%rcx        # a6d990 <_ebss>
  a4a440:	48 29 f9             	sub    %rdi,%rcx
  a4a443:	48 c1 e9 03          	shr    $0x3,%rcx
  a4a447:	f3 48 ab             	rep stos %rax,%es:(%rdi)
  a4a44a:	56                   	push   %rsi
  a4a44b:	48 89 f7             	mov    %rsi,%rdi
  a4a44e:	48 8d 35 ab bc 00 00 	lea    0xbcab(%rip),%rsi        # a56100 <_bss>
  a4a455:	48 8d 15 55 5f 5b ff 	lea    -0xa4a0ab(%rip),%rdx        # 3b1 <_ehead>
  a4a45c:	b9 77 a0 a4 00       	mov    $0xa4a077,%ecx
  a4a461:	49 89 e8             	mov    %rbp,%r8
  a4a464:	49 c7 c1 78 ba 02 02 	mov    $0x202ba78,%r9
  a4a46b:	e8 40 2f 00 00       	callq  a4d3b0 <extract_kernel>
  a4a470:	5e                   	pop    %rsi
  a4a471:	ff e0                	jmpq   *%rax

0000000000a4a473 <adjust_got>:
  a4a473:	48 8d 15 e6 b9 00 00 	lea    0xb9e6(%rip),%rdx        # a55e60 <_data>
  a4a47a:	48 8d 0d df b9 00 00 	lea    0xb9df(%rip),%rcx        # a55e60 <_data>
  a4a481:	48 39 ca             	cmp    %rcx,%rdx
  a4a484:	73 0c                	jae    a4a492 <adjust_got+0x1f>
  a4a486:	48 29 02             	sub    %rax,(%rdx)
  a4a489:	48 01 3a             	add    %rdi,(%rdx)
  a4a48c:	48 83 c2 08          	add    $0x8,%rdx
  a4a490:	eb ef                	jmp    a4a481 <adjust_got+0xe>
  a4a492:	c3                   	retq   
  a4a493:	66 66 2e 0f 1f 84 00 	data16 nopw %cs:0x0(%rax,%rax,1)
  a4a49a:	00 00 00 00 
  a4a49e:	66 90                	xchg   %ax,%ax

0000000000a4a4a0 <trampoline_32bit_src>:
  a4a4a0:	b8 18 00 00 00       	mov    $0x18,%eax
  a4a4a5:	8e d8                	mov    %eax,%ds
  a4a4a7:	8e d0                	mov    %eax,%ss
  a4a4a9:	8d a1 00 20 00 00    	lea    0x2000(%rcx),%esp
  a4a4af:	0f 20 c0             	mov    %cr0,%rax
  a4a4b2:	0f ba f0 1f          	btr    $0x1f,%eax
  a4a4b6:	0f 22 c0             	mov    %rax,%cr0
  a4a4b9:	83 fa 00             	cmp    $0x0,%edx
  a4a4bc:	74 0c                	je     a4a4ca <trampoline_32bit_src+0x2a>
  a4a4be:	0f 20 e0             	mov    %cr4,%rax
  a4a4c1:	a9 00 10 00 00       	test   $0x1000,%eax
  a4a4c6:	75 11                	jne    a4a4d9 <trampoline_32bit_src+0x39>
  a4a4c8:	eb 0a                	jmp    a4a4d4 <trampoline_32bit_src+0x34>
  a4a4ca:	0f 20 e0             	mov    %cr4,%rax
  a4a4cd:	a9 00 10 00 00       	test   $0x1000,%eax
  a4a4d2:	74 05                	je     a4a4d9 <trampoline_32bit_src+0x39>
  a4a4d4:	8d 01                	lea    (%rcx),%eax
  a4a4d6:	0f 22 d8             	mov    %rax,%cr3
  a4a4d9:	51                   	push   %rcx
  a4a4da:	52                   	push   %rdx
  a4a4db:	b9 80 00 00 c0       	mov    $0xc0000080,%ecx
  a4a4e0:	0f 32                	rdmsr  
  a4a4e2:	0f ba e8 08          	bts    $0x8,%eax
  a4a4e6:	0f 30                	wrmsr  
  a4a4e8:	5a                   	pop    %rdx
  a4a4e9:	59                   	pop    %rcx
  a4a4ea:	b8 20 00 00 00       	mov    $0x20,%eax
  a4a4ef:	83 fa 00             	cmp    $0x0,%edx
  a4a4f2:	74 05                	je     a4a4f9 <trampoline_32bit_src+0x59>
  a4a4f4:	0d 00 10 00 00       	or     $0x1000,%eax
  a4a4f9:	0f 22 e0             	mov    %rax,%cr4
  a4a4fc:	8d 81 6e 10 00 00    	lea    0x106e(%rcx),%eax
  a4a502:	6a 10                	pushq  $0x10
  a4a504:	50                   	push   %rax
  a4a505:	b8 01 00 00 80       	mov    $0x80000001,%eax
  a4a50a:	0f 22 c0             	mov    %rax,%cr0
  a4a50d:	cb                   	lret   

0000000000a4a50e <paging_enabled>:
  a4a50e:	ff e7                	jmpq   *%rdi

0000000000a4a510 <no_longmode>:
  a4a510:	f4                   	hlt    
  a4a511:	eb fd                	jmp    a4a510 <no_longmode>
  a4a513:	66 66 2e 0f 1f 84 00 	data16 nopw %cs:0x0(%rax,%rax,1)
  a4a51a:	00 00 00 00 
  a4a51e:	66 90                	xchg   %ax,%ax

0000000000a4a520 <verify_cpu>:
  a4a520:	9c                   	pushfq 
  a4a521:	6a 00                	pushq  $0x0
  a4a523:	9d                   	popfq  
  a4a524:	b8 00 00 00 00       	mov    $0x0,%eax
  a4a529:	0f a2                	cpuid  
  a4a52b:	83 f8 01             	cmp    $0x1,%eax
  a4a52e:	0f 82 d2 00 00 00    	jb     a4a606 <verify_cpu+0xe6>
  a4a534:	66 31 ff             	xor    %di,%di
  a4a537:	81 fb 41 75 74 68    	cmp    $0x68747541,%ebx
  a4a53d:	75 16                	jne    a4a555 <verify_cpu+0x35>
  a4a53f:	81 fa 65 6e 74 69    	cmp    $0x69746e65,%edx
  a4a545:	75 0e                	jne    a4a555 <verify_cpu+0x35>
  a4a547:	81 f9 63 41 4d 44    	cmp    $0x444d4163,%ecx
  a4a54d:	75 06                	jne    a4a555 <verify_cpu+0x35>
  a4a54f:	66 bf 01 00          	mov    $0x1,%di
  a4a553:	eb 4d                	jmp    a4a5a2 <verify_cpu+0x82>
  a4a555:	81 fb 47 65 6e 75    	cmp    $0x756e6547,%ebx
  a4a55b:	75 45                	jne    a4a5a2 <verify_cpu+0x82>
  a4a55d:	81 fa 69 6e 65 49    	cmp    $0x49656e69,%edx
  a4a563:	75 3d                	jne    a4a5a2 <verify_cpu+0x82>
  a4a565:	81 f9 6e 74 65 6c    	cmp    $0x6c65746e,%ecx
  a4a56b:	75 35                	jne    a4a5a2 <verify_cpu+0x82>
  a4a56d:	b8 01 00 00 00       	mov    $0x1,%eax
  a4a572:	0f a2                	cpuid  
  a4a574:	89 c1                	mov    %eax,%ecx
  a4a576:	25 00 0f f0 0f       	and    $0xff00f00,%eax
  a4a57b:	c1 e8 08             	shr    $0x8,%eax
  a4a57e:	83 f8 06             	cmp    $0x6,%eax
  a4a581:	77 10                	ja     a4a593 <verify_cpu+0x73>
  a4a583:	72 1d                	jb     a4a5a2 <verify_cpu+0x82>
  a4a585:	81 e1 f0 00 0f 00    	and    $0xf00f0,%ecx
  a4a58b:	c1 e9 04             	shr    $0x4,%ecx
  a4a58e:	83 f9 0d             	cmp    $0xd,%ecx
  a4a591:	72 0f                	jb     a4a5a2 <verify_cpu+0x82>
  a4a593:	b9 a0 01 00 00       	mov    $0x1a0,%ecx
  a4a598:	0f 32                	rdmsr  
  a4a59a:	0f ba f2 02          	btr    $0x2,%edx
  a4a59e:	73 02                	jae    a4a5a2 <verify_cpu+0x82>
  a4a5a0:	0f 30                	wrmsr  
  a4a5a2:	b8 01 00 00 00       	mov    $0x1,%eax
  a4a5a7:	0f a2                	cpuid  
  a4a5a9:	81 e2 61 81 00 07    	and    $0x7008161,%edx
  a4a5af:	81 f2 61 81 00 07    	xor    $0x7008161,%edx
  a4a5b5:	75 4f                	jne    a4a606 <verify_cpu+0xe6>
  a4a5b7:	b8 00 00 00 80       	mov    $0x80000000,%eax
  a4a5bc:	0f a2                	cpuid  
  a4a5be:	3d 01 00 00 80       	cmp    $0x80000001,%eax
  a4a5c3:	72 41                	jb     a4a606 <verify_cpu+0xe6>
  a4a5c5:	b8 01 00 00 80       	mov    $0x80000001,%eax
  a4a5ca:	0f a2                	cpuid  
  a4a5cc:	81 e2 00 00 00 20    	and    $0x20000000,%edx
  a4a5d2:	81 f2 00 00 00 20    	xor    $0x20000000,%edx
  a4a5d8:	75 2c                	jne    a4a606 <verify_cpu+0xe6>
  a4a5da:	b8 01 00 00 00       	mov    $0x1,%eax
  a4a5df:	0f a2                	cpuid  
  a4a5e1:	81 e2 00 00 00 06    	and    $0x6000000,%edx
  a4a5e7:	81 fa 00 00 00 06    	cmp    $0x6000000,%edx
  a4a5ed:	74 1e                	je     a4a60d <verify_cpu+0xed>
  a4a5ef:	66 85 ff             	test   %di,%di
  a4a5f2:	74 12                	je     a4a606 <verify_cpu+0xe6>
  a4a5f4:	b9 15 00 01 c0       	mov    $0xc0010015,%ecx
  a4a5f9:	0f 32                	rdmsr  
  a4a5fb:	0f ba f0 0f          	btr    $0xf,%eax
  a4a5ff:	0f 30                	wrmsr  
  a4a601:	66 31 ff             	xor    %di,%di
  a4a604:	eb d4                	jmp    a4a5da <verify_cpu+0xba>
  a4a606:	9d                   	popfq  
  a4a607:	b8 01 00 00 00       	mov    $0x1,%eax
  a4a60c:	c3                   	retq   
  a4a60d:	9d                   	popfq  
  a4a60e:	31 c0                	xor    %eax,%eax
  a4a610:	c3                   	retq   
  a4a611:	66 2e 0f 1f 84 00 00 	nopw   %cs:0x0(%rax,%rax,1)
  a4a618:	00 00 00 
  a4a61b:	0f 1f 44 00 00       	nopl   0x0(%rax,%rax,1)

0000000000a4a620 <scroll>:
  a4a620:	8b 05 0e 0b 02 00    	mov    0x20b0e(%rip),%eax        # a6b134 <lines>
  a4a626:	48 8b 0d 13 0b 02 00 	mov    0x20b13(%rip),%rcx        # a6b140 <vidmem>
  a4a62d:	41 54                	push   %r12
  a4a62f:	44 8b 25 fa 0a 02 00 	mov    0x20afa(%rip),%r12d        # a6b130 <cols>
  a4a636:	55                   	push   %rbp
  a4a637:	8d 68 ff             	lea    -0x1(%rax),%ebp
  a4a63a:	53                   	push   %rbx
  a4a63b:	48 89 cf             	mov    %rcx,%rdi
  a4a63e:	41 0f af ec          	imul   %r12d,%ebp
  a4a642:	43 8d 34 24          	lea    (%r12,%r12,1),%esi
  a4a646:	48 63 f6             	movslq %esi,%rsi
  a4a649:	48 01 ce             	add    %rcx,%rsi
  a4a64c:	8d 5c 2d 00          	lea    0x0(%rbp,%rbp,1),%ebx
  a4a650:	41 01 ec             	add    %ebp,%r12d
  a4a653:	48 63 db             	movslq %ebx,%rbx
  a4a656:	48 89 da             	mov    %rbx,%rdx
  a4a659:	e8 02 36 00 00       	callq  a4dc60 <memmove>
  a4a65e:	44 39 e5             	cmp    %r12d,%ebp
  a4a661:	7d 19                	jge    a4a67c <scroll+0x5c>
  a4a663:	48 89 c1             	mov    %rax,%rcx
  a4a666:	43 8d 04 24          	lea    (%r12,%r12,1),%eax
  a4a66a:	66 0f 1f 44 00 00    	nopw   0x0(%rax,%rax,1)
  a4a670:	c6 04 19 20          	movb   $0x20,(%rcx,%rbx,1)
  a4a674:	48 83 c3 02          	add    $0x2,%rbx
  a4a678:	39 d8                	cmp    %ebx,%eax
  a4a67a:	7f f4                	jg     a4a670 <scroll+0x50>
  a4a67c:	5b                   	pop    %rbx
  a4a67d:	5d                   	pop    %rbp
  a4a67e:	41 5c                	pop    %r12
  a4a680:	c3                   	retq   
  a4a681:	66 66 2e 0f 1f 84 00 	data16 nopw %cs:0x0(%rax,%rax,1)
  a4a688:	00 00 00 00 
  a4a68c:	0f 1f 40 00          	nopl   0x0(%rax)

0000000000a4a690 <LZ4_decompress_safe>:
  a4a690:	f3 0f 1e fa          	endbr64 
  a4a694:	4c 63 d2             	movslq %edx,%r10
  a4a697:	4c 63 d9             	movslq %ecx,%r11
  a4a69a:	49 89 f8             	mov    %rdi,%r8
  a4a69d:	49 01 fa             	add    %rdi,%r10
  a4a6a0:	49 01 f3             	add    %rsi,%r11
  a4a6a3:	85 c9                	test   %ecx,%ecx
  a4a6a5:	0f 84 49 02 00 00    	je     a4a8f4 <LZ4_decompress_safe+0x264>
  a4a6ab:	41 57                	push   %r15
  a4a6ad:	49 8d 43 fb          	lea    -0x5(%r11),%rax
  a4a6b1:	48 89 f7             	mov    %rsi,%rdi
  a4a6b4:	4d 8d 4a f1          	lea    -0xf(%r10),%r9
  a4a6b8:	41 56                	push   %r14
  a4a6ba:	49 8d 4b f4          	lea    -0xc(%r11),%rcx
  a4a6be:	4d 8d 73 f9          	lea    -0x7(%r11),%r14
  a4a6c2:	41 55                	push   %r13
  a4a6c4:	4d 8d 6a f8          	lea    -0x8(%r10),%r13
  a4a6c8:	41 54                	push   %r12
  a4a6ca:	4d 8d 62 fc          	lea    -0x4(%r10),%r12
  a4a6ce:	55                   	push   %rbp
  a4a6cf:	48 89 f5             	mov    %rsi,%rbp
  a4a6d2:	53                   	push   %rbx
  a4a6d3:	48 83 ec 18          	sub    $0x18,%rsp
  a4a6d7:	48 89 44 24 08       	mov    %rax,0x8(%rsp)
  a4a6dc:	49 8d 70 01          	lea    0x1(%r8),%rsi
  a4a6e0:	45 0f b6 00          	movzbl (%r8),%r8d
  a4a6e4:	44 89 c2             	mov    %r8d,%edx
  a4a6e7:	41 c1 e8 04          	shr    $0x4,%r8d
  a4a6eb:	44 89 c0             	mov    %r8d,%eax
  a4a6ee:	41 83 f8 0f          	cmp    $0xf,%r8d
  a4a6f2:	0f 84 00 01 00 00    	je     a4a7f8 <LZ4_decompress_safe+0x168>
  a4a6f8:	48 8d 1c 07          	lea    (%rdi,%rax,1),%rbx
  a4a6fc:	4c 8d 04 06          	lea    (%rsi,%rax,1),%r8
  a4a700:	48 39 d9             	cmp    %rbx,%rcx
  a4a703:	0f 82 be 01 00 00    	jb     a4a8c7 <LZ4_decompress_safe+0x237>
  a4a709:	4d 39 e8             	cmp    %r13,%r8
  a4a70c:	0f 87 b5 01 00 00    	ja     a4a8c7 <LZ4_decompress_safe+0x237>
  a4a712:	66 0f 1f 44 00 00    	nopw   0x0(%rax,%rax,1)
  a4a718:	48 8b 06             	mov    (%rsi),%rax
  a4a71b:	48 83 c7 08          	add    $0x8,%rdi
  a4a71f:	48 83 c6 08          	add    $0x8,%rsi
  a4a723:	48 89 47 f8          	mov    %rax,-0x8(%rdi)
  a4a727:	48 39 df             	cmp    %rbx,%rdi
  a4a72a:	72 ec                	jb     a4a718 <LZ4_decompress_safe+0x88>
  a4a72c:	41 0f b7 30          	movzwl (%r8),%esi
  a4a730:	48 89 d8             	mov    %rbx,%rax
  a4a733:	49 83 c0 02          	add    $0x2,%r8
  a4a737:	48 29 f0             	sub    %rsi,%rax
  a4a73a:	48 39 c5             	cmp    %rax,%rbp
  a4a73d:	0f 87 9c 00 00 00    	ja     a4a7df <LZ4_decompress_safe+0x14f>
  a4a743:	89 d7                	mov    %edx,%edi
  a4a745:	89 33                	mov    %esi,(%rbx)
  a4a747:	83 e2 0f             	and    $0xf,%edx
  a4a74a:	83 e7 0f             	and    $0xf,%edi
  a4a74d:	40 80 ff 0f          	cmp    $0xf,%dil
  a4a751:	74 65                	je     a4a7b8 <LZ4_decompress_safe+0x128>
  a4a753:	48 83 c2 04          	add    $0x4,%rdx
  a4a757:	48 8d 3c 13          	lea    (%rbx,%rdx,1),%rdi
  a4a75b:	48 83 fe 07          	cmp    $0x7,%rsi
  a4a75f:	0f 86 c5 00 00 00    	jbe    a4a82a <LZ4_decompress_safe+0x19a>
  a4a765:	48 8b 30             	mov    (%rax),%rsi
  a4a768:	48 83 c0 08          	add    $0x8,%rax
  a4a76c:	48 89 33             	mov    %rsi,(%rbx)
  a4a76f:	48 39 f9             	cmp    %rdi,%rcx
  a4a772:	0f 82 00 01 00 00    	jb     a4a878 <LZ4_decompress_safe+0x1e8>
  a4a778:	48 8b 30             	mov    (%rax),%rsi
  a4a77b:	48 89 73 08          	mov    %rsi,0x8(%rbx)
  a4a77f:	48 83 fa 10          	cmp    $0x10,%rdx
  a4a783:	0f 86 53 ff ff ff    	jbe    a4a6dc <LZ4_decompress_safe+0x4c>
  a4a789:	48 83 c0 08          	add    $0x8,%rax
  a4a78d:	48 83 c3 10          	add    $0x10,%rbx
  a4a791:	0f 1f 80 00 00 00 00 	nopl   0x0(%rax)
  a4a798:	48 8b 10             	mov    (%rax),%rdx
  a4a79b:	48 83 c3 08          	add    $0x8,%rbx
  a4a79f:	48 83 c0 08          	add    $0x8,%rax
  a4a7a3:	48 89 53 f8          	mov    %rdx,-0x8(%rbx)
  a4a7a7:	48 39 df             	cmp    %rbx,%rdi
  a4a7aa:	77 ec                	ja     a4a798 <LZ4_decompress_safe+0x108>
  a4a7ac:	e9 2b ff ff ff       	jmpq   a4a6dc <LZ4_decompress_safe+0x4c>
  a4a7b1:	0f 1f 80 00 00 00 00 	nopl   0x0(%rax)
  a4a7b8:	ba 0f 00 00 00       	mov    $0xf,%edx
  a4a7bd:	eb 12                	jmp    a4a7d1 <LZ4_decompress_safe+0x141>
  a4a7bf:	90                   	nop
  a4a7c0:	44 0f b6 ff          	movzbl %dil,%r15d
  a4a7c4:	4c 01 fa             	add    %r15,%rdx
  a4a7c7:	40 80 ff ff          	cmp    $0xff,%dil
  a4a7cb:	0f 85 e5 00 00 00    	jne    a4a8b6 <LZ4_decompress_safe+0x226>
  a4a7d1:	49 83 c0 01          	add    $0x1,%r8
  a4a7d5:	41 0f b6 78 ff       	movzbl -0x1(%r8),%edi
  a4a7da:	4d 39 c4             	cmp    %r8,%r12
  a4a7dd:	75 e1                	jne    a4a7c0 <LZ4_decompress_safe+0x130>
  a4a7df:	48 83 c4 18          	add    $0x18,%rsp
  a4a7e3:	b8 ff ff ff ff       	mov    $0xffffffff,%eax
  a4a7e8:	5b                   	pop    %rbx
  a4a7e9:	5d                   	pop    %rbp
  a4a7ea:	41 5c                	pop    %r12
  a4a7ec:	41 5d                	pop    %r13
  a4a7ee:	41 5e                	pop    %r14
  a4a7f0:	41 5f                	pop    %r15
  a4a7f2:	c3                   	retq   
  a4a7f3:	0f 1f 44 00 00       	nopl   0x0(%rax,%rax,1)
  a4a7f8:	b8 0f 00 00 00       	mov    $0xf,%eax
  a4a7fd:	eb 06                	jmp    a4a805 <LZ4_decompress_safe+0x175>
  a4a7ff:	90                   	nop
  a4a800:	80 fb ff             	cmp    $0xff,%bl
  a4a803:	75 0f                	jne    a4a814 <LZ4_decompress_safe+0x184>
  a4a805:	0f b6 1e             	movzbl (%rsi),%ebx
  a4a808:	48 83 c6 01          	add    $0x1,%rsi
  a4a80c:	48 01 d8             	add    %rbx,%rax
  a4a80f:	4c 39 ce             	cmp    %r9,%rsi
  a4a812:	72 ec                	jb     a4a800 <LZ4_decompress_safe+0x170>
  a4a814:	48 89 fb             	mov    %rdi,%rbx
  a4a817:	48 01 c3             	add    %rax,%rbx
  a4a81a:	72 c3                	jb     a4a7df <LZ4_decompress_safe+0x14f>
  a4a81c:	49 89 f0             	mov    %rsi,%r8
  a4a81f:	49 01 c0             	add    %rax,%r8
  a4a822:	0f 83 d8 fe ff ff    	jae    a4a700 <LZ4_decompress_safe+0x70>
  a4a828:	eb b5                	jmp    a4a7df <LZ4_decompress_safe+0x14f>
  a4a82a:	44 0f b6 38          	movzbl (%rax),%r15d
  a4a82e:	44 88 3b             	mov    %r15b,(%rbx)
  a4a831:	44 0f b6 78 01       	movzbl 0x1(%rax),%r15d
  a4a836:	44 88 7b 01          	mov    %r15b,0x1(%rbx)
  a4a83a:	44 0f b6 78 02       	movzbl 0x2(%rax),%r15d
  a4a83f:	44 88 7b 02          	mov    %r15b,0x2(%rbx)
  a4a843:	44 0f b6 78 03       	movzbl 0x3(%rax),%r15d
  a4a848:	44 88 7b 03          	mov    %r15b,0x3(%rbx)
  a4a84c:	4c 8d 3d 4d 97 00 00 	lea    0x974d(%rip),%r15        # a53fa0 <dec32table.3>
  a4a853:	45 8b 3c b7          	mov    (%r15,%rsi,4),%r15d
  a4a857:	4c 01 f8             	add    %r15,%rax
  a4a85a:	44 8b 38             	mov    (%rax),%r15d
  a4a85d:	44 89 7b 04          	mov    %r15d,0x4(%rbx)
  a4a861:	4c 8d 3d 58 97 00 00 	lea    0x9758(%rip),%r15        # a53fc0 <dec64table.4>
  a4a868:	49 63 34 b7          	movslq (%r15,%rsi,4),%rsi
  a4a86c:	48 29 f0             	sub    %rsi,%rax
  a4a86f:	48 39 f9             	cmp    %rdi,%rcx
  a4a872:	0f 83 00 ff ff ff    	jae    a4a778 <LZ4_decompress_safe+0xe8>
  a4a878:	48 3b 7c 24 08       	cmp    0x8(%rsp),%rdi
  a4a87d:	0f 87 5c ff ff ff    	ja     a4a7df <LZ4_decompress_safe+0x14f>
  a4a883:	48 83 c3 08          	add    $0x8,%rbx
  a4a887:	4c 39 f3             	cmp    %r14,%rbx
  a4a88a:	72 73                	jb     a4a8ff <LZ4_decompress_safe+0x26f>
  a4a88c:	48 39 df             	cmp    %rbx,%rdi
  a4a88f:	0f 86 47 fe ff ff    	jbe    a4a6dc <LZ4_decompress_safe+0x4c>
  a4a895:	49 89 ff             	mov    %rdi,%r15
  a4a898:	31 d2                	xor    %edx,%edx
  a4a89a:	49 29 df             	sub    %rbx,%r15
  a4a89d:	0f 1f 00             	nopl   (%rax)
  a4a8a0:	0f b6 34 10          	movzbl (%rax,%rdx,1),%esi
  a4a8a4:	40 88 34 13          	mov    %sil,(%rbx,%rdx,1)
  a4a8a8:	48 83 c2 01          	add    $0x1,%rdx
  a4a8ac:	49 39 d7             	cmp    %rdx,%r15
  a4a8af:	75 ef                	jne    a4a8a0 <LZ4_decompress_safe+0x210>
  a4a8b1:	e9 26 fe ff ff       	jmpq   a4a6dc <LZ4_decompress_safe+0x4c>
  a4a8b6:	48 89 df             	mov    %rbx,%rdi
  a4a8b9:	48 01 d7             	add    %rdx,%rdi
  a4a8bc:	0f 83 91 fe ff ff    	jae    a4a753 <LZ4_decompress_safe+0xc3>
  a4a8c2:	e9 18 ff ff ff       	jmpq   a4a7df <LZ4_decompress_safe+0x14f>
  a4a8c7:	48 89 c2             	mov    %rax,%rdx
  a4a8ca:	49 39 db             	cmp    %rbx,%r11
  a4a8cd:	0f 82 0c ff ff ff    	jb     a4a7df <LZ4_decompress_safe+0x14f>
  a4a8d3:	4d 39 c2             	cmp    %r8,%r10
  a4a8d6:	0f 85 03 ff ff ff    	jne    a4a7df <LZ4_decompress_safe+0x14f>
  a4a8dc:	e8 df 33 00 00       	callq  a4dcc0 <memcpy>
  a4a8e1:	89 d8                	mov    %ebx,%eax
  a4a8e3:	48 83 c4 18          	add    $0x18,%rsp
  a4a8e7:	29 e8                	sub    %ebp,%eax
  a4a8e9:	5b                   	pop    %rbx
  a4a8ea:	5d                   	pop    %rbp
  a4a8eb:	41 5c                	pop    %r12
  a4a8ed:	41 5d                	pop    %r13
  a4a8ef:	41 5e                	pop    %r14
  a4a8f1:	41 5f                	pop    %r15
  a4a8f3:	c3                   	retq   
  a4a8f4:	83 fa 01             	cmp    $0x1,%edx
  a4a8f7:	74 34                	je     a4a92d <LZ4_decompress_safe+0x29d>
  a4a8f9:	b8 ff ff ff ff       	mov    $0xffffffff,%eax
  a4a8fe:	c3                   	retq   
  a4a8ff:	48 89 c6             	mov    %rax,%rsi
  a4a902:	48 89 da             	mov    %rbx,%rdx
  a4a905:	0f 1f 00             	nopl   (%rax)
  a4a908:	4c 8b 3e             	mov    (%rsi),%r15
  a4a90b:	48 83 c2 08          	add    $0x8,%rdx
  a4a90f:	48 83 c6 08          	add    $0x8,%rsi
  a4a913:	4c 89 7a f8          	mov    %r15,-0x8(%rdx)
  a4a917:	49 39 d6             	cmp    %rdx,%r14
  a4a91a:	77 ec                	ja     a4a908 <LZ4_decompress_safe+0x278>
  a4a91c:	4c 89 f2             	mov    %r14,%rdx
  a4a91f:	48 29 da             	sub    %rbx,%rdx
  a4a922:	4c 89 f3             	mov    %r14,%rbx
  a4a925:	48 01 d0             	add    %rdx,%rax
  a4a928:	e9 5f ff ff ff       	jmpq   a4a88c <LZ4_decompress_safe+0x1fc>
  a4a92d:	31 c0                	xor    %eax,%eax
  a4a92f:	80 3f 00             	cmpb   $0x0,(%rdi)
  a4a932:	75 c5                	jne    a4a8f9 <LZ4_decompress_safe+0x269>
  a4a934:	c3                   	retq   
  a4a935:	66 66 2e 0f 1f 84 00 	data16 nopw %cs:0x0(%rax,%rax,1)
  a4a93c:	00 00 00 00 

0000000000a4a940 <LZ4_decompress_safe_partial>:
  a4a940:	f3 0f 1e fa          	endbr64 
  a4a944:	41 57                	push   %r15
  a4a946:	4d 63 d0             	movslq %r8d,%r10
  a4a949:	48 63 c9             	movslq %ecx,%rcx
  a4a94c:	49 89 f9             	mov    %rdi,%r9
  a4a94f:	41 56                	push   %r14
  a4a951:	49 01 f2             	add    %rsi,%r10
  a4a954:	48 01 f1             	add    %rsi,%rcx
  a4a957:	41 55                	push   %r13
  a4a959:	4d 8d 5a f4          	lea    -0xc(%r10),%r11
  a4a95d:	41 54                	push   %r12
  a4a95f:	4c 63 e2             	movslq %edx,%r12
  a4a962:	55                   	push   %rbp
  a4a963:	49 01 fc             	add    %rdi,%r12
  a4a966:	53                   	push   %rbx
  a4a967:	48 83 ec 28          	sub    $0x28,%rsp
  a4a96b:	49 39 cb             	cmp    %rcx,%r11
  a4a96e:	49 0f 42 cb          	cmovb  %r11,%rcx
  a4a972:	45 85 c0             	test   %r8d,%r8d
  a4a975:	0f 84 54 02 00 00    	je     a4abcf <LZ4_decompress_safe_partial+0x28f>
  a4a97b:	49 8d 42 f9          	lea    -0x7(%r10),%rax
  a4a97f:	48 89 f5             	mov    %rsi,%rbp
  a4a982:	48 89 f7             	mov    %rsi,%rdi
  a4a985:	48 89 44 24 08       	mov    %rax,0x8(%rsp)
  a4a98a:	49 8d 42 fb          	lea    -0x5(%r10),%rax
  a4a98e:	4d 8d 44 24 f1       	lea    -0xf(%r12),%r8
  a4a993:	48 89 44 24 10       	mov    %rax,0x10(%rsp)
  a4a998:	4d 8d 74 24 f8       	lea    -0x8(%r12),%r14
  a4a99d:	4d 8d 6c 24 fc       	lea    -0x4(%r12),%r13
  a4a9a2:	49 8d 71 01          	lea    0x1(%r9),%rsi
  a4a9a6:	45 0f b6 09          	movzbl (%r9),%r9d
  a4a9aa:	44 89 ca             	mov    %r9d,%edx
  a4a9ad:	41 c1 e9 04          	shr    $0x4,%r9d
  a4a9b1:	44 89 c8             	mov    %r9d,%eax
  a4a9b4:	41 83 f9 0f          	cmp    $0xf,%r9d
  a4a9b8:	0f 84 0a 01 00 00    	je     a4aac8 <LZ4_decompress_safe_partial+0x188>
  a4a9be:	48 8d 1c 07          	lea    (%rdi,%rax,1),%rbx
  a4a9c2:	48 39 d9             	cmp    %rbx,%rcx
  a4a9c5:	0f 82 d4 01 00 00    	jb     a4ab9f <LZ4_decompress_safe_partial+0x25f>
  a4a9cb:	4c 8d 0c 06          	lea    (%rsi,%rax,1),%r9
  a4a9cf:	4d 39 f1             	cmp    %r14,%r9
  a4a9d2:	0f 87 c7 01 00 00    	ja     a4ab9f <LZ4_decompress_safe_partial+0x25f>
  a4a9d8:	0f 1f 84 00 00 00 00 	nopl   0x0(%rax,%rax,1)
  a4a9df:	00 
  a4a9e0:	48 8b 06             	mov    (%rsi),%rax
  a4a9e3:	48 83 c7 08          	add    $0x8,%rdi
  a4a9e7:	48 83 c6 08          	add    $0x8,%rsi
  a4a9eb:	48 89 47 f8          	mov    %rax,-0x8(%rdi)
  a4a9ef:	48 39 df             	cmp    %rbx,%rdi
  a4a9f2:	72 ec                	jb     a4a9e0 <LZ4_decompress_safe_partial+0xa0>
  a4a9f4:	41 0f b7 31          	movzwl (%r9),%esi
  a4a9f8:	48 89 d8             	mov    %rbx,%rax
  a4a9fb:	49 83 c1 02          	add    $0x2,%r9
  a4a9ff:	48 29 f0             	sub    %rsi,%rax
  a4aa02:	48 39 c5             	cmp    %rax,%rbp
  a4aa05:	0f 87 a4 00 00 00    	ja     a4aaaf <LZ4_decompress_safe_partial+0x16f>
  a4aa0b:	89 d7                	mov    %edx,%edi
  a4aa0d:	89 33                	mov    %esi,(%rbx)
  a4aa0f:	83 e2 0f             	and    $0xf,%edx
  a4aa12:	83 e7 0f             	and    $0xf,%edi
  a4aa15:	40 80 ff 0f          	cmp    $0xf,%dil
  a4aa19:	74 65                	je     a4aa80 <LZ4_decompress_safe_partial+0x140>
  a4aa1b:	48 83 c2 04          	add    $0x4,%rdx
  a4aa1f:	48 8d 3c 13          	lea    (%rbx,%rdx,1),%rdi
  a4aa23:	48 83 fe 07          	cmp    $0x7,%rsi
  a4aa27:	0f 86 cd 00 00 00    	jbe    a4aafa <LZ4_decompress_safe_partial+0x1ba>
  a4aa2d:	48 8b 30             	mov    (%rax),%rsi
  a4aa30:	48 83 c0 08          	add    $0x8,%rax
  a4aa34:	48 89 33             	mov    %rsi,(%rbx)
  a4aa37:	49 39 fb             	cmp    %rdi,%r11
  a4aa3a:	0f 82 08 01 00 00    	jb     a4ab48 <LZ4_decompress_safe_partial+0x208>
  a4aa40:	48 8b 30             	mov    (%rax),%rsi
  a4aa43:	48 89 73 08          	mov    %rsi,0x8(%rbx)
  a4aa47:	48 83 fa 10          	cmp    $0x10,%rdx
  a4aa4b:	0f 86 51 ff ff ff    	jbe    a4a9a2 <LZ4_decompress_safe_partial+0x62>
  a4aa51:	48 83 c0 08          	add    $0x8,%rax
  a4aa55:	48 83 c3 10          	add    $0x10,%rbx
  a4aa59:	0f 1f 80 00 00 00 00 	nopl   0x0(%rax)
  a4aa60:	48 8b 10             	mov    (%rax),%rdx
  a4aa63:	48 83 c3 08          	add    $0x8,%rbx
  a4aa67:	48 83 c0 08          	add    $0x8,%rax
  a4aa6b:	48 89 53 f8          	mov    %rdx,-0x8(%rbx)
  a4aa6f:	48 39 df             	cmp    %rbx,%rdi
  a4aa72:	77 ec                	ja     a4aa60 <LZ4_decompress_safe_partial+0x120>
  a4aa74:	e9 29 ff ff ff       	jmpq   a4a9a2 <LZ4_decompress_safe_partial+0x62>
  a4aa79:	0f 1f 80 00 00 00 00 	nopl   0x0(%rax)
  a4aa80:	ba 0f 00 00 00       	mov    $0xf,%edx
  a4aa85:	eb 1a                	jmp    a4aaa1 <LZ4_decompress_safe_partial+0x161>
  a4aa87:	66 0f 1f 84 00 00 00 	nopw   0x0(%rax,%rax,1)
  a4aa8e:	00 00 
  a4aa90:	44 0f b6 ff          	movzbl %dil,%r15d
  a4aa94:	4c 01 fa             	add    %r15,%rdx
  a4aa97:	40 80 ff ff          	cmp    $0xff,%dil
  a4aa9b:	0f 85 ed 00 00 00    	jne    a4ab8e <LZ4_decompress_safe_partial+0x24e>
  a4aaa1:	49 83 c1 01          	add    $0x1,%r9
  a4aaa5:	41 0f b6 79 ff       	movzbl -0x1(%r9),%edi
  a4aaaa:	4d 39 cd             	cmp    %r9,%r13
  a4aaad:	75 e1                	jne    a4aa90 <LZ4_decompress_safe_partial+0x150>
  a4aaaf:	b8 ff ff ff ff       	mov    $0xffffffff,%eax
  a4aab4:	48 83 c4 28          	add    $0x28,%rsp
  a4aab8:	5b                   	pop    %rbx
  a4aab9:	5d                   	pop    %rbp
  a4aaba:	41 5c                	pop    %r12
  a4aabc:	41 5d                	pop    %r13
  a4aabe:	41 5e                	pop    %r14
  a4aac0:	41 5f                	pop    %r15
  a4aac2:	c3                   	retq   
  a4aac3:	0f 1f 44 00 00       	nopl   0x0(%rax,%rax,1)
  a4aac8:	b8 0f 00 00 00       	mov    $0xf,%eax
  a4aacd:	eb 06                	jmp    a4aad5 <LZ4_decompress_safe_partial+0x195>
  a4aacf:	90                   	nop
  a4aad0:	80 fb ff             	cmp    $0xff,%bl
  a4aad3:	75 0f                	jne    a4aae4 <LZ4_decompress_safe_partial+0x1a4>
  a4aad5:	0f b6 1e             	movzbl (%rsi),%ebx
  a4aad8:	48 83 c6 01          	add    $0x1,%rsi
  a4aadc:	48 01 d8             	add    %rbx,%rax
  a4aadf:	4c 39 c6             	cmp    %r8,%rsi
  a4aae2:	72 ec                	jb     a4aad0 <LZ4_decompress_safe_partial+0x190>
  a4aae4:	48 89 fb             	mov    %rdi,%rbx
  a4aae7:	48 01 c3             	add    %rax,%rbx
  a4aaea:	72 c3                	jb     a4aaaf <LZ4_decompress_safe_partial+0x16f>
  a4aaec:	49 89 f7             	mov    %rsi,%r15
  a4aaef:	49 01 c7             	add    %rax,%r15
  a4aaf2:	0f 83 ca fe ff ff    	jae    a4a9c2 <LZ4_decompress_safe_partial+0x82>
  a4aaf8:	eb b5                	jmp    a4aaaf <LZ4_decompress_safe_partial+0x16f>
  a4aafa:	44 0f b6 38          	movzbl (%rax),%r15d
  a4aafe:	44 88 3b             	mov    %r15b,(%rbx)
  a4ab01:	44 0f b6 78 01       	movzbl 0x1(%rax),%r15d
  a4ab06:	44 88 7b 01          	mov    %r15b,0x1(%rbx)
  a4ab0a:	44 0f b6 78 02       	movzbl 0x2(%rax),%r15d
  a4ab0f:	44 88 7b 02          	mov    %r15b,0x2(%rbx)
  a4ab13:	44 0f b6 78 03       	movzbl 0x3(%rax),%r15d
  a4ab18:	44 88 7b 03          	mov    %r15b,0x3(%rbx)
  a4ab1c:	4c 8d 3d 7d 94 00 00 	lea    0x947d(%rip),%r15        # a53fa0 <dec32table.3>
  a4ab23:	45 8b 3c b7          	mov    (%r15,%rsi,4),%r15d
  a4ab27:	4c 01 f8             	add    %r15,%rax
  a4ab2a:	44 8b 38             	mov    (%rax),%r15d
  a4ab2d:	44 89 7b 04          	mov    %r15d,0x4(%rbx)
  a4ab31:	4c 8d 3d 88 94 00 00 	lea    0x9488(%rip),%r15        # a53fc0 <dec64table.4>
  a4ab38:	49 63 34 b7          	movslq (%r15,%rsi,4),%rsi
  a4ab3c:	48 29 f0             	sub    %rsi,%rax
  a4ab3f:	49 39 fb             	cmp    %rdi,%r11
  a4ab42:	0f 83 f8 fe ff ff    	jae    a4aa40 <LZ4_decompress_safe_partial+0x100>
  a4ab48:	48 3b 7c 24 10       	cmp    0x10(%rsp),%rdi
  a4ab4d:	0f 87 5c ff ff ff    	ja     a4aaaf <LZ4_decompress_safe_partial+0x16f>
  a4ab53:	48 83 c3 08          	add    $0x8,%rbx
  a4ab57:	48 3b 5c 24 08       	cmp    0x8(%rsp),%rbx
  a4ab5c:	0f 82 86 00 00 00    	jb     a4abe8 <LZ4_decompress_safe_partial+0x2a8>
  a4ab62:	48 39 df             	cmp    %rbx,%rdi
  a4ab65:	0f 86 37 fe ff ff    	jbe    a4a9a2 <LZ4_decompress_safe_partial+0x62>
  a4ab6b:	49 89 ff             	mov    %rdi,%r15
  a4ab6e:	31 d2                	xor    %edx,%edx
  a4ab70:	49 29 df             	sub    %rbx,%r15
  a4ab73:	0f 1f 44 00 00       	nopl   0x0(%rax,%rax,1)
  a4ab78:	0f b6 34 10          	movzbl (%rax,%rdx,1),%esi
  a4ab7c:	40 88 34 13          	mov    %sil,(%rbx,%rdx,1)
  a4ab80:	48 83 c2 01          	add    $0x1,%rdx
  a4ab84:	49 39 d7             	cmp    %rdx,%r15
  a4ab87:	75 ef                	jne    a4ab78 <LZ4_decompress_safe_partial+0x238>
  a4ab89:	e9 14 fe ff ff       	jmpq   a4a9a2 <LZ4_decompress_safe_partial+0x62>
  a4ab8e:	48 89 df             	mov    %rbx,%rdi
  a4ab91:	48 01 d7             	add    %rdx,%rdi
  a4ab94:	0f 83 81 fe ff ff    	jae    a4aa1b <LZ4_decompress_safe_partial+0xdb>
  a4ab9a:	e9 10 ff ff ff       	jmpq   a4aaaf <LZ4_decompress_safe_partial+0x16f>
  a4ab9f:	48 89 c2             	mov    %rax,%rdx
  a4aba2:	49 39 da             	cmp    %rbx,%r10
  a4aba5:	0f 82 04 ff ff ff    	jb     a4aaaf <LZ4_decompress_safe_partial+0x16f>
  a4abab:	48 01 f0             	add    %rsi,%rax
  a4abae:	49 39 c4             	cmp    %rax,%r12
  a4abb1:	0f 82 f8 fe ff ff    	jb     a4aaaf <LZ4_decompress_safe_partial+0x16f>
  a4abb7:	e8 04 31 00 00       	callq  a4dcc0 <memcpy>
  a4abbc:	89 d8                	mov    %ebx,%eax
  a4abbe:	48 83 c4 28          	add    $0x28,%rsp
  a4abc2:	29 e8                	sub    %ebp,%eax
  a4abc4:	5b                   	pop    %rbx
  a4abc5:	5d                   	pop    %rbp
  a4abc6:	41 5c                	pop    %r12
  a4abc8:	41 5d                	pop    %r13
  a4abca:	41 5e                	pop    %r14
  a4abcc:	41 5f                	pop    %r15
  a4abce:	c3                   	retq   
  a4abcf:	83 fa 01             	cmp    $0x1,%edx
  a4abd2:	0f 85 d7 fe ff ff    	jne    a4aaaf <LZ4_decompress_safe_partial+0x16f>
  a4abd8:	31 c0                	xor    %eax,%eax
  a4abda:	80 3f 00             	cmpb   $0x0,(%rdi)
  a4abdd:	0f 84 d1 fe ff ff    	je     a4aab4 <LZ4_decompress_safe_partial+0x174>
  a4abe3:	e9 c7 fe ff ff       	jmpq   a4aaaf <LZ4_decompress_safe_partial+0x16f>
  a4abe8:	48 89 44 24 18       	mov    %rax,0x18(%rsp)
  a4abed:	4c 8b 7c 24 08       	mov    0x8(%rsp),%r15
  a4abf2:	48 89 c6             	mov    %rax,%rsi
  a4abf5:	48 89 da             	mov    %rbx,%rdx
  a4abf8:	0f 1f 84 00 00 00 00 	nopl   0x0(%rax,%rax,1)
  a4abff:	00 
  a4ac00:	48 8b 06             	mov    (%rsi),%rax
  a4ac03:	48 83 c2 08          	add    $0x8,%rdx
  a4ac07:	48 83 c6 08          	add    $0x8,%rsi
  a4ac0b:	48 89 42 f8          	mov    %rax,-0x8(%rdx)
  a4ac0f:	49 39 d7             	cmp    %rdx,%r15
  a4ac12:	77 ec                	ja     a4ac00 <LZ4_decompress_safe_partial+0x2c0>
  a4ac14:	48 8b 74 24 08       	mov    0x8(%rsp),%rsi
  a4ac19:	48 8b 44 24 18       	mov    0x18(%rsp),%rax
  a4ac1e:	48 89 f2             	mov    %rsi,%rdx
  a4ac21:	48 29 da             	sub    %rbx,%rdx
  a4ac24:	48 89 f3             	mov    %rsi,%rbx
  a4ac27:	48 01 d0             	add    %rdx,%rax
  a4ac2a:	e9 33 ff ff ff       	jmpq   a4ab62 <LZ4_decompress_safe_partial+0x222>
  a4ac2f:	90                   	nop

0000000000a4ac30 <LZ4_decompress_fast>:
  a4ac30:	f3 0f 1e fa          	endbr64 
  a4ac34:	41 57                	push   %r15
  a4ac36:	4c 63 da             	movslq %edx,%r11
  a4ac39:	41 56                	push   %r14
  a4ac3b:	49 01 f3             	add    %rsi,%r11
  a4ac3e:	41 55                	push   %r13
  a4ac40:	41 54                	push   %r12
  a4ac42:	49 89 fc             	mov    %rdi,%r12
  a4ac45:	48 89 f7             	mov    %rsi,%rdi
  a4ac48:	55                   	push   %rbp
  a4ac49:	53                   	push   %rbx
  a4ac4a:	48 83 ec 08          	sub    $0x8,%rsp
  a4ac4e:	41 0f b6 34 24       	movzbl (%r12),%esi
  a4ac53:	85 d2                	test   %edx,%edx
  a4ac55:	0f 84 17 02 00 00    	je     a4ae72 <LZ4_decompress_fast+0x242>
  a4ac5b:	4d 8d 43 f8          	lea    -0x8(%r11),%r8
  a4ac5f:	4c 89 e5             	mov    %r12,%rbp
  a4ac62:	4d 8d 4b f4          	lea    -0xc(%r11),%r9
  a4ac66:	4c 8d 3d 53 93 00 00 	lea    0x9353(%rip),%r15        # a53fc0 <dec64table.4>
  a4ac6d:	4c 8d 35 2c 93 00 00 	lea    0x932c(%rip),%r14        # a53fa0 <dec32table.3>
  a4ac74:	4d 8d 53 f9          	lea    -0x7(%r11),%r10
  a4ac78:	4d 8d 6b fb          	lea    -0x5(%r11),%r13
  a4ac7c:	0f 1f 40 00          	nopl   0x0(%rax)
  a4ac80:	40 0f b6 c6          	movzbl %sil,%eax
  a4ac84:	48 83 c5 01          	add    $0x1,%rbp
  a4ac88:	c1 e8 04             	shr    $0x4,%eax
  a4ac8b:	89 c3                	mov    %eax,%ebx
  a4ac8d:	83 f8 0f             	cmp    $0xf,%eax
  a4ac90:	0f 84 ba 00 00 00    	je     a4ad50 <LZ4_decompress_fast+0x120>
  a4ac96:	48 8d 14 1f          	lea    (%rdi,%rbx,1),%rdx
  a4ac9a:	4c 39 c2             	cmp    %r8,%rdx
  a4ac9d:	0f 87 d2 00 00 00    	ja     a4ad75 <LZ4_decompress_fast+0x145>
  a4aca3:	48 89 e8             	mov    %rbp,%rax
  a4aca6:	66 2e 0f 1f 84 00 00 	nopw   %cs:0x0(%rax,%rax,1)
  a4acad:	00 00 00 
  a4acb0:	48 8b 08             	mov    (%rax),%rcx
  a4acb3:	48 83 c7 08          	add    $0x8,%rdi
  a4acb7:	48 83 c0 08          	add    $0x8,%rax
  a4acbb:	48 89 4f f8          	mov    %rcx,-0x8(%rdi)
  a4acbf:	48 39 fa             	cmp    %rdi,%rdx
  a4acc2:	77 ec                	ja     a4acb0 <LZ4_decompress_fast+0x80>
  a4acc4:	48 01 dd             	add    %rbx,%rbp
  a4acc7:	89 f7                	mov    %esi,%edi
  a4acc9:	48 89 d0             	mov    %rdx,%rax
  a4accc:	83 e6 0f             	and    $0xf,%esi
  a4accf:	0f b7 4d 00          	movzwl 0x0(%rbp),%ecx
  a4acd3:	83 e7 0f             	and    $0xf,%edi
  a4acd6:	48 83 c5 02          	add    $0x2,%rbp
  a4acda:	89 0a                	mov    %ecx,(%rdx)
  a4acdc:	48 29 c8             	sub    %rcx,%rax
  a4acdf:	40 80 ff 0f          	cmp    $0xf,%dil
  a4ace3:	0f 84 b7 00 00 00    	je     a4ada0 <LZ4_decompress_fast+0x170>
  a4ace9:	48 83 c6 04          	add    $0x4,%rsi
  a4aced:	48 8d 3c 32          	lea    (%rdx,%rsi,1),%rdi
  a4acf1:	48 83 f9 07          	cmp    $0x7,%rcx
  a4acf5:	0f 86 d5 00 00 00    	jbe    a4add0 <LZ4_decompress_fast+0x1a0>
  a4acfb:	48 8b 08             	mov    (%rax),%rcx
  a4acfe:	48 83 c0 08          	add    $0x8,%rax
  a4ad02:	48 89 0a             	mov    %rcx,(%rdx)
  a4ad05:	4c 39 cf             	cmp    %r9,%rdi
  a4ad08:	0f 87 02 01 00 00    	ja     a4ae10 <LZ4_decompress_fast+0x1e0>
  a4ad0e:	48 8b 08             	mov    (%rax),%rcx
  a4ad11:	48 89 4a 08          	mov    %rcx,0x8(%rdx)
  a4ad15:	48 83 fe 10          	cmp    $0x10,%rsi
  a4ad19:	77 0d                	ja     a4ad28 <LZ4_decompress_fast+0xf8>
  a4ad1b:	0f b6 75 00          	movzbl 0x0(%rbp),%esi
  a4ad1f:	e9 5c ff ff ff       	jmpq   a4ac80 <LZ4_decompress_fast+0x50>
  a4ad24:	0f 1f 40 00          	nopl   0x0(%rax)
  a4ad28:	48 83 c0 08          	add    $0x8,%rax
  a4ad2c:	48 83 c2 10          	add    $0x10,%rdx
  a4ad30:	48 8b 08             	mov    (%rax),%rcx
  a4ad33:	48 83 c2 08          	add    $0x8,%rdx
  a4ad37:	48 83 c0 08          	add    $0x8,%rax
  a4ad3b:	48 89 4a f8          	mov    %rcx,-0x8(%rdx)
  a4ad3f:	48 39 d7             	cmp    %rdx,%rdi
  a4ad42:	77 ec                	ja     a4ad30 <LZ4_decompress_fast+0x100>
  a4ad44:	eb d5                	jmp    a4ad1b <LZ4_decompress_fast+0xeb>
  a4ad46:	66 2e 0f 1f 84 00 00 	nopw   %cs:0x0(%rax,%rax,1)
  a4ad4d:	00 00 00 
  a4ad50:	bb 0f 00 00 00       	mov    $0xf,%ebx
  a4ad55:	0f 1f 00             	nopl   (%rax)
  a4ad58:	0f b6 55 00          	movzbl 0x0(%rbp),%edx
  a4ad5c:	48 83 c5 01          	add    $0x1,%rbp
  a4ad60:	48 01 d3             	add    %rdx,%rbx
  a4ad63:	80 fa ff             	cmp    $0xff,%dl
  a4ad66:	74 f0                	je     a4ad58 <LZ4_decompress_fast+0x128>
  a4ad68:	48 8d 14 1f          	lea    (%rdi,%rbx,1),%rdx
  a4ad6c:	4c 39 c2             	cmp    %r8,%rdx
  a4ad6f:	0f 86 2e ff ff ff    	jbe    a4aca3 <LZ4_decompress_fast+0x73>
  a4ad75:	49 39 d3             	cmp    %rdx,%r11
  a4ad78:	0f 85 02 01 00 00    	jne    a4ae80 <LZ4_decompress_fast+0x250>
  a4ad7e:	48 89 da             	mov    %rbx,%rdx
  a4ad81:	48 89 ee             	mov    %rbp,%rsi
  a4ad84:	e8 37 2f 00 00       	callq  a4dcc0 <memcpy>
  a4ad89:	48 8d 44 1d 00       	lea    0x0(%rbp,%rbx,1),%rax
  a4ad8e:	44 29 e0             	sub    %r12d,%eax
  a4ad91:	48 83 c4 08          	add    $0x8,%rsp
  a4ad95:	5b                   	pop    %rbx
  a4ad96:	5d                   	pop    %rbp
  a4ad97:	41 5c                	pop    %r12
  a4ad99:	41 5d                	pop    %r13
  a4ad9b:	41 5e                	pop    %r14
  a4ad9d:	41 5f                	pop    %r15
  a4ad9f:	c3                   	retq   
  a4ada0:	be 0f 00 00 00       	mov    $0xf,%esi
  a4ada5:	0f 1f 00             	nopl   (%rax)
  a4ada8:	0f b6 5d 00          	movzbl 0x0(%rbp),%ebx
  a4adac:	48 83 c5 01          	add    $0x1,%rbp
  a4adb0:	48 01 de             	add    %rbx,%rsi
  a4adb3:	80 fb ff             	cmp    $0xff,%bl
  a4adb6:	74 f0                	je     a4ada8 <LZ4_decompress_fast+0x178>
  a4adb8:	48 83 c6 04          	add    $0x4,%rsi
  a4adbc:	48 8d 3c 32          	lea    (%rdx,%rsi,1),%rdi
  a4adc0:	48 83 f9 07          	cmp    $0x7,%rcx
  a4adc4:	0f 87 31 ff ff ff    	ja     a4acfb <LZ4_decompress_fast+0xcb>
  a4adca:	66 0f 1f 44 00 00    	nopw   0x0(%rax,%rax,1)
  a4add0:	0f b6 18             	movzbl (%rax),%ebx
  a4add3:	88 1a                	mov    %bl,(%rdx)
  a4add5:	0f b6 58 01          	movzbl 0x1(%rax),%ebx
  a4add9:	88 5a 01             	mov    %bl,0x1(%rdx)
  a4addc:	0f b6 58 02          	movzbl 0x2(%rax),%ebx
  a4ade0:	88 5a 02             	mov    %bl,0x2(%rdx)
  a4ade3:	0f b6 58 03          	movzbl 0x3(%rax),%ebx
  a4ade7:	88 5a 03             	mov    %bl,0x3(%rdx)
  a4adea:	41 8b 1c 8e          	mov    (%r14,%rcx,4),%ebx
  a4adee:	49 63 0c 8f          	movslq (%r15,%rcx,4),%rcx
  a4adf2:	48 01 d8             	add    %rbx,%rax
  a4adf5:	8b 18                	mov    (%rax),%ebx
  a4adf7:	48 29 c8             	sub    %rcx,%rax
  a4adfa:	89 5a 04             	mov    %ebx,0x4(%rdx)
  a4adfd:	4c 39 cf             	cmp    %r9,%rdi
  a4ae00:	0f 86 08 ff ff ff    	jbe    a4ad0e <LZ4_decompress_fast+0xde>
  a4ae06:	66 2e 0f 1f 84 00 00 	nopw   %cs:0x0(%rax,%rax,1)
  a4ae0d:	00 00 00 
  a4ae10:	4c 39 ef             	cmp    %r13,%rdi
  a4ae13:	77 6b                	ja     a4ae80 <LZ4_decompress_fast+0x250>
  a4ae15:	48 83 c2 08          	add    $0x8,%rdx
  a4ae19:	4c 39 d2             	cmp    %r10,%rdx
  a4ae1c:	72 28                	jb     a4ae46 <LZ4_decompress_fast+0x216>
  a4ae1e:	48 39 d7             	cmp    %rdx,%rdi
  a4ae21:	0f 86 f4 fe ff ff    	jbe    a4ad1b <LZ4_decompress_fast+0xeb>
  a4ae27:	48 89 fb             	mov    %rdi,%rbx
  a4ae2a:	31 c9                	xor    %ecx,%ecx
  a4ae2c:	48 29 d3             	sub    %rdx,%rbx
  a4ae2f:	90                   	nop
  a4ae30:	0f b6 34 08          	movzbl (%rax,%rcx,1),%esi
  a4ae34:	40 88 34 0a          	mov    %sil,(%rdx,%rcx,1)
  a4ae38:	48 83 c1 01          	add    $0x1,%rcx
  a4ae3c:	48 39 cb             	cmp    %rcx,%rbx
  a4ae3f:	75 ef                	jne    a4ae30 <LZ4_decompress_fast+0x200>
  a4ae41:	e9 d5 fe ff ff       	jmpq   a4ad1b <LZ4_decompress_fast+0xeb>
  a4ae46:	48 89 c6             	mov    %rax,%rsi
  a4ae49:	48 89 d1             	mov    %rdx,%rcx
  a4ae4c:	0f 1f 40 00          	nopl   0x0(%rax)
  a4ae50:	48 8b 1e             	mov    (%rsi),%rbx
  a4ae53:	48 83 c1 08          	add    $0x8,%rcx
  a4ae57:	48 83 c6 08          	add    $0x8,%rsi
  a4ae5b:	48 89 59 f8          	mov    %rbx,-0x8(%rcx)
  a4ae5f:	49 39 ca             	cmp    %rcx,%r10
  a4ae62:	77 ec                	ja     a4ae50 <LZ4_decompress_fast+0x220>
  a4ae64:	4c 89 d1             	mov    %r10,%rcx
  a4ae67:	48 29 d1             	sub    %rdx,%rcx
  a4ae6a:	4c 89 d2             	mov    %r10,%rdx
  a4ae6d:	48 01 c8             	add    %rcx,%rax
  a4ae70:	eb ac                	jmp    a4ae1e <LZ4_decompress_fast+0x1ee>
  a4ae72:	b8 01 00 00 00       	mov    $0x1,%eax
  a4ae77:	40 84 f6             	test   %sil,%sil
  a4ae7a:	0f 84 11 ff ff ff    	je     a4ad91 <LZ4_decompress_fast+0x161>
  a4ae80:	48 83 c4 08          	add    $0x8,%rsp
  a4ae84:	b8 ff ff ff ff       	mov    $0xffffffff,%eax
  a4ae89:	5b                   	pop    %rbx
  a4ae8a:	5d                   	pop    %rbp
  a4ae8b:	41 5c                	pop    %r12
  a4ae8d:	41 5d                	pop    %r13
  a4ae8f:	41 5e                	pop    %r14
  a4ae91:	41 5f                	pop    %r15
  a4ae93:	c3                   	retq   
  a4ae94:	66 66 2e 0f 1f 84 00 	data16 nopw %cs:0x0(%rax,%rax,1)
  a4ae9b:	00 00 00 00 
  a4ae9f:	90                   	nop

0000000000a4aea0 <LZ4_setStreamDecode>:
  a4aea0:	f3 0f 1e fa          	endbr64 
  a4aea4:	48 63 d2             	movslq %edx,%rdx
  a4aea7:	48 c7 07 00 00 00 00 	movq   $0x0,(%rdi)
  a4aeae:	b8 01 00 00 00       	mov    $0x1,%eax
  a4aeb3:	48 89 57 18          	mov    %rdx,0x18(%rdi)
  a4aeb7:	48 01 f2             	add    %rsi,%rdx
  a4aeba:	48 89 57 10          	mov    %rdx,0x10(%rdi)
  a4aebe:	48 c7 47 08 00 00 00 	movq   $0x0,0x8(%rdi)
  a4aec5:	00 
  a4aec6:	c3                   	retq   
  a4aec7:	66 0f 1f 84 00 00 00 	nopw   0x0(%rax,%rax,1)
  a4aece:	00 00 

0000000000a4aed0 <LZ4_decompress_safe_continue>:
  a4aed0:	f3 0f 1e fa          	endbr64 
  a4aed4:	41 57                	push   %r15
  a4aed6:	49 89 d7             	mov    %rdx,%r15
  a4aed9:	4c 63 d1             	movslq %ecx,%r10
  a4aedc:	49 63 c8             	movslq %r8d,%rcx
  a4aedf:	41 56                	push   %r14
  a4aee1:	4d 89 f9             	mov    %r15,%r9
  a4aee4:	4c 89 d0             	mov    %r10,%rax
  a4aee7:	4c 01 f9             	add    %r15,%rcx
  a4aeea:	41 55                	push   %r13
  a4aeec:	49 01 f2             	add    %rsi,%r10
  a4aeef:	41 54                	push   %r12
  a4aef1:	55                   	push   %rbp
  a4aef2:	53                   	push   %rbx
  a4aef3:	48 89 f3             	mov    %rsi,%rbx
  a4aef6:	48 83 ec 48          	sub    $0x48,%rsp
  a4aefa:	4c 8b 5f 18          	mov    0x18(%rdi),%r11
  a4aefe:	4c 8b 6f 10          	mov    0x10(%rdi),%r13
  a4af02:	48 89 7c 24 08       	mov    %rdi,0x8(%rsp)
  a4af07:	4c 89 da             	mov    %r11,%rdx
  a4af0a:	4d 29 d9             	sub    %r11,%r9
  a4af0d:	48 f7 da             	neg    %rdx
  a4af10:	4d 39 fd             	cmp    %r15,%r13
  a4af13:	0f 84 87 02 00 00    	je     a4b1a0 <LZ4_decompress_safe_continue+0x2d0>
  a4af19:	48 8b 74 24 08       	mov    0x8(%rsp),%rsi
  a4af1e:	4c 01 ea             	add    %r13,%rdx
  a4af21:	4c 89 fd             	mov    %r15,%rbp
  a4af24:	48 89 16             	mov    %rdx,(%rsi)
  a4af27:	48 8d 51 f9          	lea    -0x7(%rcx),%rdx
  a4af2b:	4c 89 5e 08          	mov    %r11,0x8(%rsi)
  a4af2f:	48 89 54 24 30       	mov    %rdx,0x30(%rsp)
  a4af34:	45 85 c0             	test   %r8d,%r8d
  a4af37:	0f 84 98 05 00 00    	je     a4b4d5 <LZ4_decompress_safe_continue+0x605>
  a4af3d:	49 89 cc             	mov    %rcx,%r12
  a4af40:	4d 89 d6             	mov    %r10,%r14
  a4af43:	4c 89 e9             	mov    %r13,%rcx
  a4af46:	4d 89 dd             	mov    %r11,%r13
  a4af49:	0f b6 3b             	movzbl (%rbx),%edi
  a4af4c:	48 8d 73 01          	lea    0x1(%rbx),%rsi
  a4af50:	89 fa                	mov    %edi,%edx
  a4af52:	c1 ef 04             	shr    $0x4,%edi
  a4af55:	89 f8                	mov    %edi,%eax
  a4af57:	83 ff 0f             	cmp    $0xf,%edi
  a4af5a:	0f 84 d8 01 00 00    	je     a4b138 <LZ4_decompress_safe_continue+0x268>
  a4af60:	48 8d 7c 05 00       	lea    0x0(%rbp,%rax,1),%rdi
  a4af65:	48 8d 1c 06          	lea    (%rsi,%rax,1),%rbx
  a4af69:	4d 8d 54 24 f4       	lea    -0xc(%r12),%r10
  a4af6e:	49 39 fa             	cmp    %rdi,%r10
  a4af71:	0f 82 03 05 00 00    	jb     a4b47a <LZ4_decompress_safe_continue+0x5aa>
  a4af77:	4d 8d 46 f8          	lea    -0x8(%r14),%r8
  a4af7b:	4c 39 c3             	cmp    %r8,%rbx
  a4af7e:	0f 87 f6 04 00 00    	ja     a4b47a <LZ4_decompress_safe_continue+0x5aa>
  a4af84:	0f 1f 40 00          	nopl   0x0(%rax)
  a4af88:	48 8b 06             	mov    (%rsi),%rax
  a4af8b:	48 83 c5 08          	add    $0x8,%rbp
  a4af8f:	48 83 c6 08          	add    $0x8,%rsi
  a4af93:	48 89 45 f8          	mov    %rax,-0x8(%rbp)
  a4af97:	48 39 fd             	cmp    %rdi,%rbp
  a4af9a:	72 ec                	jb     a4af88 <LZ4_decompress_safe_continue+0xb8>
  a4af9c:	0f b7 33             	movzwl (%rbx),%esi
  a4af9f:	49 89 fb             	mov    %rdi,%r11
  a4afa2:	48 83 c3 02          	add    $0x2,%rbx
  a4afa6:	48 89 f0             	mov    %rsi,%rax
  a4afa9:	49 29 f3             	sub    %rsi,%r11
  a4afac:	49 81 fd ff ff 00 00 	cmp    $0xffff,%r13
  a4afb3:	77 09                	ja     a4afbe <LZ4_decompress_safe_continue+0xee>
  a4afb5:	4d 39 cb             	cmp    %r9,%r11
  a4afb8:	0f 82 3e 01 00 00    	jb     a4b0fc <LZ4_decompress_safe_continue+0x22c>
  a4afbe:	89 07                	mov    %eax,(%rdi)
  a4afc0:	89 d0                	mov    %edx,%eax
  a4afc2:	83 e2 0f             	and    $0xf,%edx
  a4afc5:	83 e0 0f             	and    $0xf,%eax
  a4afc8:	3c 0f                	cmp    $0xf,%al
  a4afca:	0f 84 00 01 00 00    	je     a4b0d0 <LZ4_decompress_safe_continue+0x200>
  a4afd0:	48 83 c2 04          	add    $0x4,%rdx
  a4afd4:	48 8d 2c 17          	lea    (%rdi,%rdx,1),%rbp
  a4afd8:	4d 39 df             	cmp    %r11,%r15
  a4afdb:	0f 86 8f 00 00 00    	jbe    a4b070 <LZ4_decompress_safe_continue+0x1a0>
  a4afe1:	49 8d 44 24 fb       	lea    -0x5(%r12),%rax
  a4afe6:	48 39 c5             	cmp    %rax,%rbp
  a4afe9:	0f 87 0d 01 00 00    	ja     a4b0fc <LZ4_decompress_safe_continue+0x22c>
  a4afef:	4d 89 fa             	mov    %r15,%r10
  a4aff2:	48 89 ce             	mov    %rcx,%rsi
  a4aff5:	4d 29 da             	sub    %r11,%r10
  a4aff8:	4c 29 d6             	sub    %r10,%rsi
  a4affb:	4c 39 d2             	cmp    %r10,%rdx
  a4affe:	0f 86 74 01 00 00    	jbe    a4b178 <LZ4_decompress_safe_continue+0x2a8>
  a4b004:	4c 29 d2             	sub    %r10,%rdx
  a4b007:	4c 89 4c 24 28       	mov    %r9,0x28(%rsp)
  a4b00c:	48 89 54 24 18       	mov    %rdx,0x18(%rsp)
  a4b011:	4c 89 d2             	mov    %r10,%rdx
  a4b014:	48 89 4c 24 20       	mov    %rcx,0x20(%rsp)
  a4b019:	4c 89 54 24 10       	mov    %r10,0x10(%rsp)
  a4b01e:	e8 9d 2c 00 00       	callq  a4dcc0 <memcpy>
  a4b023:	4c 8b 54 24 10       	mov    0x10(%rsp),%r10
  a4b028:	4c 8b 44 24 18       	mov    0x18(%rsp),%r8
  a4b02d:	48 89 c7             	mov    %rax,%rdi
  a4b030:	48 8b 4c 24 20       	mov    0x20(%rsp),%rcx
  a4b035:	4c 8b 4c 24 28       	mov    0x28(%rsp),%r9
  a4b03a:	4c 01 d7             	add    %r10,%rdi
  a4b03d:	48 89 f8             	mov    %rdi,%rax
  a4b040:	4c 29 f8             	sub    %r15,%rax
  a4b043:	49 39 c0             	cmp    %rax,%r8
  a4b046:	0f 86 c4 00 00 00    	jbe    a4b110 <LZ4_decompress_safe_continue+0x240>
  a4b04c:	48 39 fd             	cmp    %rdi,%rbp
  a4b04f:	0f 86 20 05 00 00    	jbe    a4b575 <LZ4_decompress_safe_continue+0x6a5>
  a4b055:	31 c0                	xor    %eax,%eax
  a4b057:	41 0f b6 14 07       	movzbl (%r15,%rax,1),%edx
  a4b05c:	88 14 07             	mov    %dl,(%rdi,%rax,1)
  a4b05f:	48 83 c0 01          	add    $0x1,%rax
  a4b063:	4c 39 c0             	cmp    %r8,%rax
  a4b066:	75 ef                	jne    a4b057 <LZ4_decompress_safe_continue+0x187>
  a4b068:	e9 dc fe ff ff       	jmpq   a4af49 <LZ4_decompress_safe_continue+0x79>
  a4b06d:	0f 1f 00             	nopl   (%rax)
  a4b070:	48 83 fe 07          	cmp    $0x7,%rsi
  a4b074:	0f 86 bc 03 00 00    	jbe    a4b436 <LZ4_decompress_safe_continue+0x566>
  a4b07a:	49 8b 03             	mov    (%r11),%rax
  a4b07d:	49 83 c3 08          	add    $0x8,%r11
  a4b081:	48 89 07             	mov    %rax,(%rdi)
  a4b084:	49 39 ea             	cmp    %rbp,%r10
  a4b087:	0f 82 5e 03 00 00    	jb     a4b3eb <LZ4_decompress_safe_continue+0x51b>
  a4b08d:	49 8b 03             	mov    (%r11),%rax
  a4b090:	48 89 47 08          	mov    %rax,0x8(%rdi)
  a4b094:	48 83 fa 10          	cmp    $0x10,%rdx
  a4b098:	0f 86 ab fe ff ff    	jbe    a4af49 <LZ4_decompress_safe_continue+0x79>
  a4b09e:	49 8d 43 08          	lea    0x8(%r11),%rax
  a4b0a2:	48 83 c7 10          	add    $0x10,%rdi
  a4b0a6:	66 2e 0f 1f 84 00 00 	nopw   %cs:0x0(%rax,%rax,1)
  a4b0ad:	00 00 00 
  a4b0b0:	48 8b 10             	mov    (%rax),%rdx
  a4b0b3:	48 83 c7 08          	add    $0x8,%rdi
  a4b0b7:	48 83 c0 08          	add    $0x8,%rax
  a4b0bb:	48 89 57 f8          	mov    %rdx,-0x8(%rdi)
  a4b0bf:	48 39 fd             	cmp    %rdi,%rbp
  a4b0c2:	77 ec                	ja     a4b0b0 <LZ4_decompress_safe_continue+0x1e0>
  a4b0c4:	e9 80 fe ff ff       	jmpq   a4af49 <LZ4_decompress_safe_continue+0x79>
  a4b0c9:	0f 1f 80 00 00 00 00 	nopl   0x0(%rax)
  a4b0d0:	49 8d 6e fc          	lea    -0x4(%r14),%rbp
  a4b0d4:	ba 0f 00 00 00       	mov    $0xf,%edx
  a4b0d9:	eb 14                	jmp    a4b0ef <LZ4_decompress_safe_continue+0x21f>
  a4b0db:	0f 1f 44 00 00       	nopl   0x0(%rax,%rax,1)
  a4b0e0:	44 0f b6 c0          	movzbl %al,%r8d
  a4b0e4:	4c 01 c2             	add    %r8,%rdx
  a4b0e7:	3c ff                	cmp    $0xff,%al
  a4b0e9:	0f 85 b1 02 00 00    	jne    a4b3a0 <LZ4_decompress_safe_continue+0x4d0>
  a4b0ef:	48 83 c3 01          	add    $0x1,%rbx
  a4b0f3:	0f b6 43 ff          	movzbl -0x1(%rbx),%eax
  a4b0f7:	48 39 dd             	cmp    %rbx,%rbp
  a4b0fa:	75 e4                	jne    a4b0e0 <LZ4_decompress_safe_continue+0x210>
  a4b0fc:	b8 ff ff ff ff       	mov    $0xffffffff,%eax
  a4b101:	48 83 c4 48          	add    $0x48,%rsp
  a4b105:	5b                   	pop    %rbx
  a4b106:	5d                   	pop    %rbp
  a4b107:	41 5c                	pop    %r12
  a4b109:	41 5d                	pop    %r13
  a4b10b:	41 5e                	pop    %r14
  a4b10d:	41 5f                	pop    %r15
  a4b10f:	c3                   	retq   
  a4b110:	4c 89 c2             	mov    %r8,%rdx
  a4b113:	4c 89 fe             	mov    %r15,%rsi
  a4b116:	4c 89 4c 24 18       	mov    %r9,0x18(%rsp)
  a4b11b:	48 89 4c 24 10       	mov    %rcx,0x10(%rsp)
  a4b120:	e8 9b 2b 00 00       	callq  a4dcc0 <memcpy>
  a4b125:	48 8b 4c 24 10       	mov    0x10(%rsp),%rcx
  a4b12a:	4c 8b 4c 24 18       	mov    0x18(%rsp),%r9
  a4b12f:	e9 15 fe ff ff       	jmpq   a4af49 <LZ4_decompress_safe_continue+0x79>
  a4b134:	0f 1f 40 00          	nopl   0x0(%rax)
  a4b138:	4d 8d 56 f1          	lea    -0xf(%r14),%r10
  a4b13c:	b8 0f 00 00 00       	mov    $0xf,%eax
  a4b141:	eb 0b                	jmp    a4b14e <LZ4_decompress_safe_continue+0x27e>
  a4b143:	0f 1f 44 00 00       	nopl   0x0(%rax,%rax,1)
  a4b148:	41 80 f8 ff          	cmp    $0xff,%r8b
  a4b14c:	75 10                	jne    a4b15e <LZ4_decompress_safe_continue+0x28e>
  a4b14e:	44 0f b6 06          	movzbl (%rsi),%r8d
  a4b152:	48 83 c6 01          	add    $0x1,%rsi
  a4b156:	4c 01 c0             	add    %r8,%rax
  a4b159:	4c 39 d6             	cmp    %r10,%rsi
  a4b15c:	72 ea                	jb     a4b148 <LZ4_decompress_safe_continue+0x278>
  a4b15e:	48 89 ef             	mov    %rbp,%rdi
  a4b161:	48 01 c7             	add    %rax,%rdi
  a4b164:	72 96                	jb     a4b0fc <LZ4_decompress_safe_continue+0x22c>
  a4b166:	48 89 f3             	mov    %rsi,%rbx
  a4b169:	48 01 c3             	add    %rax,%rbx
  a4b16c:	0f 83 f7 fd ff ff    	jae    a4af69 <LZ4_decompress_safe_continue+0x99>
  a4b172:	eb 88                	jmp    a4b0fc <LZ4_decompress_safe_continue+0x22c>
  a4b174:	0f 1f 40 00          	nopl   0x0(%rax)
  a4b178:	4c 89 4c 24 18       	mov    %r9,0x18(%rsp)
  a4b17d:	48 89 4c 24 10       	mov    %rcx,0x10(%rsp)
  a4b182:	e8 d9 2a 00 00       	callq  a4dc60 <memmove>
  a4b187:	48 8b 4c 24 10       	mov    0x10(%rsp),%rcx
  a4b18c:	4c 8b 4c 24 18       	mov    0x18(%rsp),%r9
  a4b191:	e9 b3 fd ff ff       	jmpq   a4af49 <LZ4_decompress_safe_continue+0x79>
  a4b196:	66 2e 0f 1f 84 00 00 	nopw   %cs:0x0(%rax,%rax,1)
  a4b19d:	00 00 00 
  a4b1a0:	48 8b 17             	mov    (%rdi),%rdx
  a4b1a3:	4c 8b 67 08          	mov    0x8(%rdi),%r12
  a4b1a7:	48 89 54 24 18       	mov    %rdx,0x18(%rsp)
  a4b1ac:	4c 89 ca             	mov    %r9,%rdx
  a4b1af:	4c 29 e2             	sub    %r12,%rdx
  a4b1b2:	48 89 54 24 10       	mov    %rdx,0x10(%rsp)
  a4b1b7:	48 8d 51 f9          	lea    -0x7(%rcx),%rdx
  a4b1bb:	48 89 54 24 30       	mov    %rdx,0x30(%rsp)
  a4b1c0:	45 85 c0             	test   %r8d,%r8d
  a4b1c3:	0f 84 39 04 00 00    	je     a4b602 <LZ4_decompress_safe_continue+0x732>
  a4b1c9:	4c 89 7c 24 38       	mov    %r15,0x38(%rsp)
  a4b1ce:	4c 89 cd             	mov    %r9,%rbp
  a4b1d1:	49 89 ce             	mov    %rcx,%r14
  a4b1d4:	4d 89 d7             	mov    %r10,%r15
  a4b1d7:	0f b6 0b             	movzbl (%rbx),%ecx
  a4b1da:	48 8d 73 01          	lea    0x1(%rbx),%rsi
  a4b1de:	89 ca                	mov    %ecx,%edx
  a4b1e0:	c1 e9 04             	shr    $0x4,%ecx
  a4b1e3:	89 c8                	mov    %ecx,%eax
  a4b1e5:	83 f9 0f             	cmp    $0xf,%ecx
  a4b1e8:	0f 84 6b 01 00 00    	je     a4b359 <LZ4_decompress_safe_continue+0x489>
  a4b1ee:	49 8d 7c 05 00       	lea    0x0(%r13,%rax,1),%rdi
  a4b1f3:	48 8d 1c 06          	lea    (%rsi,%rax,1),%rbx
  a4b1f7:	49 8d 4e f4          	lea    -0xc(%r14),%rcx
  a4b1fb:	48 39 f9             	cmp    %rdi,%rcx
  a4b1fe:	0f 82 79 03 00 00    	jb     a4b57d <LZ4_decompress_safe_continue+0x6ad>
  a4b204:	4d 8d 47 f8          	lea    -0x8(%r15),%r8
  a4b208:	4c 39 c3             	cmp    %r8,%rbx
  a4b20b:	0f 87 6c 03 00 00    	ja     a4b57d <LZ4_decompress_safe_continue+0x6ad>
  a4b211:	0f 1f 80 00 00 00 00 	nopl   0x0(%rax)
  a4b218:	48 8b 06             	mov    (%rsi),%rax
  a4b21b:	49 83 c5 08          	add    $0x8,%r13
  a4b21f:	48 83 c6 08          	add    $0x8,%rsi
  a4b223:	49 89 45 f8          	mov    %rax,-0x8(%r13)
  a4b227:	49 39 fd             	cmp    %rdi,%r13
  a4b22a:	72 ec                	jb     a4b218 <LZ4_decompress_safe_continue+0x348>
  a4b22c:	44 0f b7 03          	movzwl (%rbx),%r8d
  a4b230:	48 89 fe             	mov    %rdi,%rsi
  a4b233:	48 83 c3 02          	add    $0x2,%rbx
  a4b237:	4c 89 c0             	mov    %r8,%rax
  a4b23a:	4c 29 c6             	sub    %r8,%rsi
  a4b23d:	49 81 fc ff ff 00 00 	cmp    $0xffff,%r12
  a4b244:	77 0b                	ja     a4b251 <LZ4_decompress_safe_continue+0x381>
  a4b246:	48 39 74 24 10       	cmp    %rsi,0x10(%rsp)
  a4b24b:	0f 87 ab fe ff ff    	ja     a4b0fc <LZ4_decompress_safe_continue+0x22c>
  a4b251:	89 07                	mov    %eax,(%rdi)
  a4b253:	89 d0                	mov    %edx,%eax
  a4b255:	83 e2 0f             	and    $0xf,%edx
  a4b258:	83 e0 0f             	and    $0xf,%eax
  a4b25b:	3c 0f                	cmp    $0xf,%al
  a4b25d:	0f 84 4e 01 00 00    	je     a4b3b1 <LZ4_decompress_safe_continue+0x4e1>
  a4b263:	48 83 c2 04          	add    $0x4,%rdx
  a4b267:	4c 8d 2c 17          	lea    (%rdi,%rdx,1),%r13
  a4b26b:	48 39 ee             	cmp    %rbp,%rsi
  a4b26e:	0f 83 8c 00 00 00    	jae    a4b300 <LZ4_decompress_safe_continue+0x430>
  a4b274:	49 8d 46 fb          	lea    -0x5(%r14),%rax
  a4b278:	49 39 c5             	cmp    %rax,%r13
  a4b27b:	0f 87 7b fe ff ff    	ja     a4b0fc <LZ4_decompress_safe_continue+0x22c>
  a4b281:	48 89 e9             	mov    %rbp,%rcx
  a4b284:	48 29 f1             	sub    %rsi,%rcx
  a4b287:	4c 89 e6             	mov    %r12,%rsi
  a4b28a:	48 29 ce             	sub    %rcx,%rsi
  a4b28d:	48 03 74 24 18       	add    0x18(%rsp),%rsi
  a4b292:	48 39 ca             	cmp    %rcx,%rdx
  a4b295:	0f 86 46 01 00 00    	jbe    a4b3e1 <LZ4_decompress_safe_continue+0x511>
  a4b29b:	48 29 ca             	sub    %rcx,%rdx
  a4b29e:	48 89 4c 24 20       	mov    %rcx,0x20(%rsp)
  a4b2a3:	48 89 54 24 28       	mov    %rdx,0x28(%rsp)
  a4b2a8:	48 89 ca             	mov    %rcx,%rdx
  a4b2ab:	e8 10 2a 00 00       	callq  a4dcc0 <memcpy>
  a4b2b0:	48 8b 4c 24 20       	mov    0x20(%rsp),%rcx
  a4b2b5:	4c 8b 44 24 28       	mov    0x28(%rsp),%r8
  a4b2ba:	48 89 c7             	mov    %rax,%rdi
  a4b2bd:	48 01 cf             	add    %rcx,%rdi
  a4b2c0:	48 89 f8             	mov    %rdi,%rax
  a4b2c3:	48 29 e8             	sub    %rbp,%rax
  a4b2c6:	49 39 c0             	cmp    %rax,%r8
  a4b2c9:	76 21                	jbe    a4b2ec <LZ4_decompress_safe_continue+0x41c>
  a4b2cb:	49 39 fd             	cmp    %rdi,%r13
  a4b2ce:	0f 86 47 03 00 00    	jbe    a4b61b <LZ4_decompress_safe_continue+0x74b>
  a4b2d4:	31 c0                	xor    %eax,%eax
  a4b2d6:	0f b6 54 05 00       	movzbl 0x0(%rbp,%rax,1),%edx
  a4b2db:	88 14 07             	mov    %dl,(%rdi,%rax,1)
  a4b2de:	48 83 c0 01          	add    $0x1,%rax
  a4b2e2:	49 39 c0             	cmp    %rax,%r8
  a4b2e5:	75 ef                	jne    a4b2d6 <LZ4_decompress_safe_continue+0x406>
  a4b2e7:	e9 eb fe ff ff       	jmpq   a4b1d7 <LZ4_decompress_safe_continue+0x307>
  a4b2ec:	4c 89 c2             	mov    %r8,%rdx
  a4b2ef:	48 89 ee             	mov    %rbp,%rsi
  a4b2f2:	e8 c9 29 00 00       	callq  a4dcc0 <memcpy>
  a4b2f7:	e9 db fe ff ff       	jmpq   a4b1d7 <LZ4_decompress_safe_continue+0x307>
  a4b2fc:	0f 1f 40 00          	nopl   0x0(%rax)
  a4b300:	49 83 f8 07          	cmp    $0x7,%r8
  a4b304:	0f 86 e3 01 00 00    	jbe    a4b4ed <LZ4_decompress_safe_continue+0x61d>
  a4b30a:	48 8b 06             	mov    (%rsi),%rax
  a4b30d:	48 83 c6 08          	add    $0x8,%rsi
  a4b311:	48 89 07             	mov    %rax,(%rdi)
  a4b314:	4c 39 e9             	cmp    %r13,%rcx
  a4b317:	0f 82 10 02 00 00    	jb     a4b52d <LZ4_decompress_safe_continue+0x65d>
  a4b31d:	48 8b 06             	mov    (%rsi),%rax
  a4b320:	48 89 47 08          	mov    %rax,0x8(%rdi)
  a4b324:	48 83 fa 10          	cmp    $0x10,%rdx
  a4b328:	0f 86 a9 fe ff ff    	jbe    a4b1d7 <LZ4_decompress_safe_continue+0x307>
  a4b32e:	48 8d 46 08          	lea    0x8(%rsi),%rax
  a4b332:	48 83 c7 10          	add    $0x10,%rdi
  a4b336:	66 2e 0f 1f 84 00 00 	nopw   %cs:0x0(%rax,%rax,1)
  a4b33d:	00 00 00 
  a4b340:	48 8b 10             	mov    (%rax),%rdx
  a4b343:	48 83 c7 08          	add    $0x8,%rdi
  a4b347:	48 83 c0 08          	add    $0x8,%rax
  a4b34b:	48 89 57 f8          	mov    %rdx,-0x8(%rdi)
  a4b34f:	4c 39 ef             	cmp    %r13,%rdi
  a4b352:	72 ec                	jb     a4b340 <LZ4_decompress_safe_continue+0x470>
  a4b354:	e9 7e fe ff ff       	jmpq   a4b1d7 <LZ4_decompress_safe_continue+0x307>
  a4b359:	4d 8d 47 f1          	lea    -0xf(%r15),%r8
  a4b35d:	b8 0f 00 00 00       	mov    $0xf,%eax
  a4b362:	eb 0a                	jmp    a4b36e <LZ4_decompress_safe_continue+0x49e>
  a4b364:	0f 1f 40 00          	nopl   0x0(%rax)
  a4b368:	40 80 ff ff          	cmp    $0xff,%dil
  a4b36c:	75 0f                	jne    a4b37d <LZ4_decompress_safe_continue+0x4ad>
  a4b36e:	0f b6 3e             	movzbl (%rsi),%edi
  a4b371:	48 83 c6 01          	add    $0x1,%rsi
  a4b375:	48 01 f8             	add    %rdi,%rax
  a4b378:	4c 39 c6             	cmp    %r8,%rsi
  a4b37b:	72 eb                	jb     a4b368 <LZ4_decompress_safe_continue+0x498>
  a4b37d:	4c 89 ef             	mov    %r13,%rdi
  a4b380:	48 01 c7             	add    %rax,%rdi
  a4b383:	0f 82 73 fd ff ff    	jb     a4b0fc <LZ4_decompress_safe_continue+0x22c>
  a4b389:	48 89 f3             	mov    %rsi,%rbx
  a4b38c:	48 01 c3             	add    %rax,%rbx
  a4b38f:	0f 83 62 fe ff ff    	jae    a4b1f7 <LZ4_decompress_safe_continue+0x327>
  a4b395:	e9 62 fd ff ff       	jmpq   a4b0fc <LZ4_decompress_safe_continue+0x22c>
  a4b39a:	66 0f 1f 44 00 00    	nopw   0x0(%rax,%rax,1)
  a4b3a0:	48 89 f8             	mov    %rdi,%rax
  a4b3a3:	48 01 d0             	add    %rdx,%rax
  a4b3a6:	0f 83 24 fc ff ff    	jae    a4afd0 <LZ4_decompress_safe_continue+0x100>
  a4b3ac:	e9 4b fd ff ff       	jmpq   a4b0fc <LZ4_decompress_safe_continue+0x22c>
  a4b3b1:	4d 8d 5f fc          	lea    -0x4(%r15),%r11
  a4b3b5:	ba 0f 00 00 00       	mov    $0xf,%edx
  a4b3ba:	eb 13                	jmp    a4b3cf <LZ4_decompress_safe_continue+0x4ff>
  a4b3bc:	0f 1f 40 00          	nopl   0x0(%rax)
  a4b3c0:	44 0f b6 c8          	movzbl %al,%r9d
  a4b3c4:	4c 01 ca             	add    %r9,%rdx
  a4b3c7:	3c ff                	cmp    $0xff,%al
  a4b3c9:	0f 85 f5 00 00 00    	jne    a4b4c4 <LZ4_decompress_safe_continue+0x5f4>
  a4b3cf:	48 83 c3 01          	add    $0x1,%rbx
  a4b3d3:	0f b6 43 ff          	movzbl -0x1(%rbx),%eax
  a4b3d7:	4c 39 db             	cmp    %r11,%rbx
  a4b3da:	75 e4                	jne    a4b3c0 <LZ4_decompress_safe_continue+0x4f0>
  a4b3dc:	e9 1b fd ff ff       	jmpq   a4b0fc <LZ4_decompress_safe_continue+0x22c>
  a4b3e1:	e8 7a 28 00 00       	callq  a4dc60 <memmove>
  a4b3e6:	e9 ec fd ff ff       	jmpq   a4b1d7 <LZ4_decompress_safe_continue+0x307>
  a4b3eb:	49 8d 44 24 fb       	lea    -0x5(%r12),%rax
  a4b3f0:	48 39 c5             	cmp    %rax,%rbp
  a4b3f3:	0f 87 03 fd ff ff    	ja     a4b0fc <LZ4_decompress_safe_continue+0x22c>
  a4b3f9:	48 83 c7 08          	add    $0x8,%rdi
  a4b3fd:	48 3b 7c 24 30       	cmp    0x30(%rsp),%rdi
  a4b402:	0f 82 bf 01 00 00    	jb     a4b5c7 <LZ4_decompress_safe_continue+0x6f7>
  a4b408:	48 89 ee             	mov    %rbp,%rsi
  a4b40b:	31 c0                	xor    %eax,%eax
  a4b40d:	48 29 fe             	sub    %rdi,%rsi
  a4b410:	48 39 fd             	cmp    %rdi,%rbp
  a4b413:	0f 86 30 fb ff ff    	jbe    a4af49 <LZ4_decompress_safe_continue+0x79>
  a4b419:	0f 1f 80 00 00 00 00 	nopl   0x0(%rax)
  a4b420:	41 0f b6 14 03       	movzbl (%r11,%rax,1),%edx
  a4b425:	88 14 07             	mov    %dl,(%rdi,%rax,1)
  a4b428:	48 83 c0 01          	add    $0x1,%rax
  a4b42c:	48 39 c6             	cmp    %rax,%rsi
  a4b42f:	75 ef                	jne    a4b420 <LZ4_decompress_safe_continue+0x550>
  a4b431:	e9 13 fb ff ff       	jmpq   a4af49 <LZ4_decompress_safe_continue+0x79>
  a4b436:	41 0f b6 03          	movzbl (%r11),%eax
  a4b43a:	88 07                	mov    %al,(%rdi)
  a4b43c:	41 0f b6 43 01       	movzbl 0x1(%r11),%eax
  a4b441:	88 47 01             	mov    %al,0x1(%rdi)
  a4b444:	41 0f b6 43 02       	movzbl 0x2(%r11),%eax
  a4b449:	88 47 02             	mov    %al,0x2(%rdi)
  a4b44c:	41 0f b6 43 03       	movzbl 0x3(%r11),%eax
  a4b451:	88 47 03             	mov    %al,0x3(%rdi)
  a4b454:	48 8d 05 45 8b 00 00 	lea    0x8b45(%rip),%rax        # a53fa0 <dec32table.3>
  a4b45b:	8b 04 b0             	mov    (%rax,%rsi,4),%eax
  a4b45e:	49 01 c3             	add    %rax,%r11
  a4b461:	41 8b 03             	mov    (%r11),%eax
  a4b464:	89 47 04             	mov    %eax,0x4(%rdi)
  a4b467:	48 8d 05 52 8b 00 00 	lea    0x8b52(%rip),%rax        # a53fc0 <dec64table.4>
  a4b46e:	48 63 04 b0          	movslq (%rax,%rsi,4),%rax
  a4b472:	49 29 c3             	sub    %rax,%r11
  a4b475:	e9 0a fc ff ff       	jmpq   a4b084 <LZ4_decompress_safe_continue+0x1b4>
  a4b47a:	4c 89 e1             	mov    %r12,%rcx
  a4b47d:	48 89 c2             	mov    %rax,%rdx
  a4b480:	49 89 fc             	mov    %rdi,%r12
  a4b483:	48 39 cf             	cmp    %rcx,%rdi
  a4b486:	0f 87 70 fc ff ff    	ja     a4b0fc <LZ4_decompress_safe_continue+0x22c>
  a4b48c:	4c 39 f3             	cmp    %r14,%rbx
  a4b48f:	0f 85 67 fc ff ff    	jne    a4b0fc <LZ4_decompress_safe_continue+0x22c>
  a4b495:	48 89 ef             	mov    %rbp,%rdi
  a4b498:	4d 29 fc             	sub    %r15,%r12
  a4b49b:	e8 20 28 00 00       	callq  a4dcc0 <memcpy>
  a4b4a0:	44 89 e0             	mov    %r12d,%eax
  a4b4a3:	45 85 e4             	test   %r12d,%r12d
  a4b4a6:	0f 8e 55 fc ff ff    	jle    a4b101 <LZ4_decompress_safe_continue+0x231>
  a4b4ac:	48 8b 4c 24 08       	mov    0x8(%rsp),%rcx
  a4b4b1:	4d 63 e4             	movslq %r12d,%r12
  a4b4b4:	4c 89 61 18          	mov    %r12,0x18(%rcx)
  a4b4b8:	4d 01 fc             	add    %r15,%r12
  a4b4bb:	4c 89 61 10          	mov    %r12,0x10(%rcx)
  a4b4bf:	e9 3d fc ff ff       	jmpq   a4b101 <LZ4_decompress_safe_continue+0x231>
  a4b4c4:	48 89 f8             	mov    %rdi,%rax
  a4b4c7:	48 01 d0             	add    %rdx,%rax
  a4b4ca:	0f 83 93 fd ff ff    	jae    a4b263 <LZ4_decompress_safe_continue+0x393>
  a4b4d0:	e9 27 fc ff ff       	jmpq   a4b0fc <LZ4_decompress_safe_continue+0x22c>
  a4b4d5:	83 f8 01             	cmp    $0x1,%eax
  a4b4d8:	0f 85 1e fc ff ff    	jne    a4b0fc <LZ4_decompress_safe_continue+0x22c>
  a4b4de:	31 c0                	xor    %eax,%eax
  a4b4e0:	80 3b 00             	cmpb   $0x0,(%rbx)
  a4b4e3:	0f 95 c0             	setne  %al
  a4b4e6:	f7 d8                	neg    %eax
  a4b4e8:	e9 14 fc ff ff       	jmpq   a4b101 <LZ4_decompress_safe_continue+0x231>
  a4b4ed:	0f b6 06             	movzbl (%rsi),%eax
  a4b4f0:	88 07                	mov    %al,(%rdi)
  a4b4f2:	0f b6 46 01          	movzbl 0x1(%rsi),%eax
  a4b4f6:	88 47 01             	mov    %al,0x1(%rdi)
  a4b4f9:	0f b6 46 02          	movzbl 0x2(%rsi),%eax
  a4b4fd:	88 47 02             	mov    %al,0x2(%rdi)
  a4b500:	0f b6 46 03          	movzbl 0x3(%rsi),%eax
  a4b504:	88 47 03             	mov    %al,0x3(%rdi)
  a4b507:	48 8d 05 92 8a 00 00 	lea    0x8a92(%rip),%rax        # a53fa0 <dec32table.3>
  a4b50e:	42 8b 04 80          	mov    (%rax,%r8,4),%eax
  a4b512:	48 01 c6             	add    %rax,%rsi
  a4b515:	8b 06                	mov    (%rsi),%eax
  a4b517:	89 47 04             	mov    %eax,0x4(%rdi)
  a4b51a:	48 8d 05 9f 8a 00 00 	lea    0x8a9f(%rip),%rax        # a53fc0 <dec64table.4>
  a4b521:	4a 63 04 80          	movslq (%rax,%r8,4),%rax
  a4b525:	48 29 c6             	sub    %rax,%rsi
  a4b528:	e9 e7 fd ff ff       	jmpq   a4b314 <LZ4_decompress_safe_continue+0x444>
  a4b52d:	49 8d 46 fb          	lea    -0x5(%r14),%rax
  a4b531:	49 39 c5             	cmp    %rax,%r13
  a4b534:	0f 87 c2 fb ff ff    	ja     a4b0fc <LZ4_decompress_safe_continue+0x22c>
  a4b53a:	48 83 c7 08          	add    $0x8,%rdi
  a4b53e:	48 3b 7c 24 30       	cmp    0x30(%rsp),%rdi
  a4b543:	0f 82 da 00 00 00    	jb     a4b623 <LZ4_decompress_safe_continue+0x753>
  a4b549:	4c 89 e9             	mov    %r13,%rcx
  a4b54c:	31 c0                	xor    %eax,%eax
  a4b54e:	48 29 f9             	sub    %rdi,%rcx
  a4b551:	4c 39 ef             	cmp    %r13,%rdi
  a4b554:	0f 83 7d fc ff ff    	jae    a4b1d7 <LZ4_decompress_safe_continue+0x307>
  a4b55a:	66 0f 1f 44 00 00    	nopw   0x0(%rax,%rax,1)
  a4b560:	0f b6 14 06          	movzbl (%rsi,%rax,1),%edx
  a4b564:	88 14 07             	mov    %dl,(%rdi,%rax,1)
  a4b567:	48 83 c0 01          	add    $0x1,%rax
  a4b56b:	48 39 c1             	cmp    %rax,%rcx
  a4b56e:	75 f0                	jne    a4b560 <LZ4_decompress_safe_continue+0x690>
  a4b570:	e9 62 fc ff ff       	jmpq   a4b1d7 <LZ4_decompress_safe_continue+0x307>
  a4b575:	48 89 fd             	mov    %rdi,%rbp
  a4b578:	e9 cc f9 ff ff       	jmpq   a4af49 <LZ4_decompress_safe_continue+0x79>
  a4b57d:	4d 89 fa             	mov    %r15,%r10
  a4b580:	48 89 c2             	mov    %rax,%rdx
  a4b583:	4c 8b 7c 24 38       	mov    0x38(%rsp),%r15
  a4b588:	48 89 fd             	mov    %rdi,%rbp
  a4b58b:	4c 39 f7             	cmp    %r14,%rdi
  a4b58e:	0f 87 68 fb ff ff    	ja     a4b0fc <LZ4_decompress_safe_continue+0x22c>
  a4b594:	49 39 da             	cmp    %rbx,%r10
  a4b597:	0f 85 5f fb ff ff    	jne    a4b0fc <LZ4_decompress_safe_continue+0x22c>
  a4b59d:	4c 89 ef             	mov    %r13,%rdi
  a4b5a0:	4c 29 fd             	sub    %r15,%rbp
  a4b5a3:	e8 18 27 00 00       	callq  a4dcc0 <memcpy>
  a4b5a8:	89 e8                	mov    %ebp,%eax
  a4b5aa:	85 ed                	test   %ebp,%ebp
  a4b5ac:	0f 8e 4f fb ff ff    	jle    a4b101 <LZ4_decompress_safe_continue+0x231>
  a4b5b2:	48 8b 4c 24 08       	mov    0x8(%rsp),%rcx
  a4b5b7:	48 63 ed             	movslq %ebp,%rbp
  a4b5ba:	48 01 69 18          	add    %rbp,0x18(%rcx)
  a4b5be:	48 01 69 10          	add    %rbp,0x10(%rcx)
  a4b5c2:	e9 3a fb ff ff       	jmpq   a4b101 <LZ4_decompress_safe_continue+0x231>
  a4b5c7:	4c 8b 44 24 30       	mov    0x30(%rsp),%r8
  a4b5cc:	4c 89 da             	mov    %r11,%rdx
  a4b5cf:	48 89 f8             	mov    %rdi,%rax
  a4b5d2:	66 0f 1f 44 00 00    	nopw   0x0(%rax,%rax,1)
  a4b5d8:	48 8b 32             	mov    (%rdx),%rsi
  a4b5db:	48 83 c0 08          	add    $0x8,%rax
  a4b5df:	48 83 c2 08          	add    $0x8,%rdx
  a4b5e3:	48 89 70 f8          	mov    %rsi,-0x8(%rax)
  a4b5e7:	49 39 c0             	cmp    %rax,%r8
  a4b5ea:	77 ec                	ja     a4b5d8 <LZ4_decompress_safe_continue+0x708>
  a4b5ec:	48 8b 54 24 30       	mov    0x30(%rsp),%rdx
  a4b5f1:	48 89 d0             	mov    %rdx,%rax
  a4b5f4:	48 29 f8             	sub    %rdi,%rax
  a4b5f7:	48 89 d7             	mov    %rdx,%rdi
  a4b5fa:	49 01 c3             	add    %rax,%r11
  a4b5fd:	e9 06 fe ff ff       	jmpq   a4b408 <LZ4_decompress_safe_continue+0x538>
  a4b602:	83 f8 01             	cmp    $0x1,%eax
  a4b605:	0f 85 f1 fa ff ff    	jne    a4b0fc <LZ4_decompress_safe_continue+0x22c>
  a4b60b:	31 c0                	xor    %eax,%eax
  a4b60d:	80 3e 00             	cmpb   $0x0,(%rsi)
  a4b610:	0f 84 eb fa ff ff    	je     a4b101 <LZ4_decompress_safe_continue+0x231>
  a4b616:	e9 e1 fa ff ff       	jmpq   a4b0fc <LZ4_decompress_safe_continue+0x22c>
  a4b61b:	49 89 fd             	mov    %rdi,%r13
  a4b61e:	e9 b4 fb ff ff       	jmpq   a4b1d7 <LZ4_decompress_safe_continue+0x307>
  a4b623:	4c 8b 44 24 30       	mov    0x30(%rsp),%r8
  a4b628:	48 89 f2             	mov    %rsi,%rdx
  a4b62b:	48 89 f8             	mov    %rdi,%rax
  a4b62e:	48 8b 0a             	mov    (%rdx),%rcx
  a4b631:	48 83 c0 08          	add    $0x8,%rax
  a4b635:	48 83 c2 08          	add    $0x8,%rdx
  a4b639:	48 89 48 f8          	mov    %rcx,-0x8(%rax)
  a4b63d:	49 39 c0             	cmp    %rax,%r8
  a4b640:	77 ec                	ja     a4b62e <LZ4_decompress_safe_continue+0x75e>
  a4b642:	48 8b 4c 24 30       	mov    0x30(%rsp),%rcx
  a4b647:	48 89 c8             	mov    %rcx,%rax
  a4b64a:	48 29 f8             	sub    %rdi,%rax
  a4b64d:	48 89 cf             	mov    %rcx,%rdi
  a4b650:	48 01 c6             	add    %rax,%rsi
  a4b653:	e9 f1 fe ff ff       	jmpq   a4b549 <LZ4_decompress_safe_continue+0x679>
  a4b658:	0f 1f 84 00 00 00 00 	nopl   0x0(%rax,%rax,1)
  a4b65f:	00 

0000000000a4b660 <LZ4_decompress_fast_continue>:
  a4b660:	f3 0f 1e fa          	endbr64 
  a4b664:	41 57                	push   %r15
  a4b666:	41 56                	push   %r14
  a4b668:	41 55                	push   %r13
  a4b66a:	41 54                	push   %r12
  a4b66c:	49 89 d4             	mov    %rdx,%r12
  a4b66f:	55                   	push   %rbp
  a4b670:	53                   	push   %rbx
  a4b671:	48 63 d9             	movslq %ecx,%rbx
  a4b674:	48 89 d8             	mov    %rbx,%rax
  a4b677:	48 83 ec 48          	sub    $0x48,%rsp
  a4b67b:	48 8b 57 18          	mov    0x18(%rdi),%rdx
  a4b67f:	4c 8b 6f 10          	mov    0x10(%rdi),%r13
  a4b683:	48 89 5c 24 30       	mov    %rbx,0x30(%rsp)
  a4b688:	4c 01 e3             	add    %r12,%rbx
  a4b68b:	48 89 d1             	mov    %rdx,%rcx
  a4b68e:	48 89 7c 24 18       	mov    %rdi,0x18(%rsp)
  a4b693:	48 89 74 24 20       	mov    %rsi,0x20(%rsp)
  a4b698:	48 f7 d9             	neg    %rcx
  a4b69b:	4d 39 e5             	cmp    %r12,%r13
  a4b69e:	0f 84 fa 02 00 00    	je     a4b99e <LZ4_decompress_fast_continue+0x33e>
  a4b6a4:	48 8b 74 24 18       	mov    0x18(%rsp),%rsi
  a4b6a9:	4c 01 e9             	add    %r13,%rcx
  a4b6ac:	48 89 56 08          	mov    %rdx,0x8(%rsi)
  a4b6b0:	48 89 0e             	mov    %rcx,(%rsi)
  a4b6b3:	85 c0                	test   %eax,%eax
  a4b6b5:	0f 84 2f 02 00 00    	je     a4b8ea <LZ4_decompress_fast_continue+0x28a>
  a4b6bb:	48 8d 43 f9          	lea    -0x7(%rbx),%rax
  a4b6bf:	4c 8b 74 24 20       	mov    0x20(%rsp),%r14
  a4b6c4:	48 8d 6b f8          	lea    -0x8(%rbx),%rbp
  a4b6c8:	4d 89 e7             	mov    %r12,%r15
  a4b6cb:	48 89 44 24 28       	mov    %rax,0x28(%rsp)
  a4b6d0:	41 0f b6 06          	movzbl (%r14),%eax
  a4b6d4:	49 8d 4e 01          	lea    0x1(%r14),%rcx
  a4b6d8:	89 c2                	mov    %eax,%edx
  a4b6da:	c1 e8 04             	shr    $0x4,%eax
  a4b6dd:	41 89 c6             	mov    %eax,%r14d
  a4b6e0:	83 f8 0f             	cmp    $0xf,%eax
  a4b6e3:	0f 84 47 01 00 00    	je     a4b830 <LZ4_decompress_fast_continue+0x1d0>
  a4b6e9:	4b 8d 3c 37          	lea    (%r15,%r14,1),%rdi
  a4b6ed:	48 39 ef             	cmp    %rbp,%rdi
  a4b6f0:	0f 87 67 01 00 00    	ja     a4b85d <LZ4_decompress_fast_continue+0x1fd>
  a4b6f6:	48 89 c8             	mov    %rcx,%rax
  a4b6f9:	0f 1f 80 00 00 00 00 	nopl   0x0(%rax)
  a4b700:	48 8b 30             	mov    (%rax),%rsi
  a4b703:	49 83 c7 08          	add    $0x8,%r15
  a4b707:	48 83 c0 08          	add    $0x8,%rax
  a4b70b:	49 89 77 f8          	mov    %rsi,-0x8(%r15)
  a4b70f:	4c 39 ff             	cmp    %r15,%rdi
  a4b712:	77 ec                	ja     a4b700 <LZ4_decompress_fast_continue+0xa0>
  a4b714:	49 01 ce             	add    %rcx,%r14
  a4b717:	89 d0                	mov    %edx,%eax
  a4b719:	49 89 f8             	mov    %rdi,%r8
  a4b71c:	83 e2 0f             	and    $0xf,%edx
  a4b71f:	41 0f b7 36          	movzwl (%r14),%esi
  a4b723:	83 e0 0f             	and    $0xf,%eax
  a4b726:	49 83 c6 02          	add    $0x2,%r14
  a4b72a:	89 37                	mov    %esi,(%rdi)
  a4b72c:	49 29 f0             	sub    %rsi,%r8
  a4b72f:	3c 0f                	cmp    $0xf,%al
  a4b731:	0f 84 89 01 00 00    	je     a4b8c0 <LZ4_decompress_fast_continue+0x260>
  a4b737:	48 83 c2 04          	add    $0x4,%rdx
  a4b73b:	4c 8d 3c 17          	lea    (%rdi,%rdx,1),%r15
  a4b73f:	4d 39 c4             	cmp    %r8,%r12
  a4b742:	76 7c                	jbe    a4b7c0 <LZ4_decompress_fast_continue+0x160>
  a4b744:	48 8d 43 fb          	lea    -0x5(%rbx),%rax
  a4b748:	49 39 c7             	cmp    %rax,%r15
  a4b74b:	0f 87 a7 01 00 00    	ja     a4b8f8 <LZ4_decompress_fast_continue+0x298>
  a4b751:	4c 89 e1             	mov    %r12,%rcx
  a4b754:	4c 89 ee             	mov    %r13,%rsi
  a4b757:	4c 29 c1             	sub    %r8,%rcx
  a4b75a:	48 29 ce             	sub    %rcx,%rsi
  a4b75d:	48 39 ca             	cmp    %rcx,%rdx
  a4b760:	0f 86 7a 01 00 00    	jbe    a4b8e0 <LZ4_decompress_fast_continue+0x280>
  a4b766:	48 29 ca             	sub    %rcx,%rdx
  a4b769:	48 89 4c 24 08       	mov    %rcx,0x8(%rsp)
  a4b76e:	48 89 54 24 10       	mov    %rdx,0x10(%rsp)
  a4b773:	48 89 ca             	mov    %rcx,%rdx
  a4b776:	e8 45 25 00 00       	callq  a4dcc0 <memcpy>
  a4b77b:	48 8b 4c 24 08       	mov    0x8(%rsp),%rcx
  a4b780:	4c 8b 44 24 10       	mov    0x10(%rsp),%r8
  a4b785:	48 89 c7             	mov    %rax,%rdi
  a4b788:	48 01 cf             	add    %rcx,%rdi
  a4b78b:	48 89 f8             	mov    %rdi,%rax
  a4b78e:	4c 29 e0             	sub    %r12,%rax
  a4b791:	49 39 c0             	cmp    %rax,%r8
  a4b794:	0f 86 86 00 00 00    	jbe    a4b820 <LZ4_decompress_fast_continue+0x1c0>
  a4b79a:	49 39 ff             	cmp    %rdi,%r15
  a4b79d:	0f 86 97 04 00 00    	jbe    a4bc3a <LZ4_decompress_fast_continue+0x5da>
  a4b7a3:	31 c0                	xor    %eax,%eax
  a4b7a5:	41 0f b6 14 04       	movzbl (%r12,%rax,1),%edx
  a4b7aa:	88 14 07             	mov    %dl,(%rdi,%rax,1)
  a4b7ad:	48 83 c0 01          	add    $0x1,%rax
  a4b7b1:	49 39 c0             	cmp    %rax,%r8
  a4b7b4:	75 ef                	jne    a4b7a5 <LZ4_decompress_fast_continue+0x145>
  a4b7b6:	e9 15 ff ff ff       	jmpq   a4b6d0 <LZ4_decompress_fast_continue+0x70>
  a4b7bb:	0f 1f 44 00 00       	nopl   0x0(%rax,%rax,1)
  a4b7c0:	48 83 fe 07          	cmp    $0x7,%rsi
  a4b7c4:	0f 86 42 01 00 00    	jbe    a4b90c <LZ4_decompress_fast_continue+0x2ac>
  a4b7ca:	49 8b 00             	mov    (%r8),%rax
  a4b7cd:	49 83 c0 08          	add    $0x8,%r8
  a4b7d1:	48 89 07             	mov    %rax,(%rdi)
  a4b7d4:	48 8d 43 f4          	lea    -0xc(%rbx),%rax
  a4b7d8:	49 39 c7             	cmp    %rax,%r15
  a4b7db:	0f 87 77 01 00 00    	ja     a4b958 <LZ4_decompress_fast_continue+0x2f8>
  a4b7e1:	49 8b 00             	mov    (%r8),%rax
  a4b7e4:	48 89 47 08          	mov    %rax,0x8(%rdi)
  a4b7e8:	48 83 fa 10          	cmp    $0x10,%rdx
  a4b7ec:	0f 86 de fe ff ff    	jbe    a4b6d0 <LZ4_decompress_fast_continue+0x70>
  a4b7f2:	49 8d 40 08          	lea    0x8(%r8),%rax
  a4b7f6:	48 83 c7 10          	add    $0x10,%rdi
  a4b7fa:	66 0f 1f 44 00 00    	nopw   0x0(%rax,%rax,1)
  a4b800:	48 8b 10             	mov    (%rax),%rdx
  a4b803:	48 83 c7 08          	add    $0x8,%rdi
  a4b807:	48 83 c0 08          	add    $0x8,%rax
  a4b80b:	48 89 57 f8          	mov    %rdx,-0x8(%rdi)
  a4b80f:	4c 39 ff             	cmp    %r15,%rdi
  a4b812:	72 ec                	jb     a4b800 <LZ4_decompress_fast_continue+0x1a0>
  a4b814:	e9 b7 fe ff ff       	jmpq   a4b6d0 <LZ4_decompress_fast_continue+0x70>
  a4b819:	0f 1f 80 00 00 00 00 	nopl   0x0(%rax)
  a4b820:	4c 89 c2             	mov    %r8,%rdx
  a4b823:	4c 89 e6             	mov    %r12,%rsi
  a4b826:	e8 95 24 00 00       	callq  a4dcc0 <memcpy>
  a4b82b:	e9 a0 fe ff ff       	jmpq   a4b6d0 <LZ4_decompress_fast_continue+0x70>
  a4b830:	41 be 0f 00 00 00    	mov    $0xf,%r14d
  a4b836:	66 2e 0f 1f 84 00 00 	nopw   %cs:0x0(%rax,%rax,1)
  a4b83d:	00 00 00 
  a4b840:	0f b6 31             	movzbl (%rcx),%esi
  a4b843:	48 83 c1 01          	add    $0x1,%rcx
  a4b847:	49 01 f6             	add    %rsi,%r14
  a4b84a:	40 80 fe ff          	cmp    $0xff,%sil
  a4b84e:	74 f0                	je     a4b840 <LZ4_decompress_fast_continue+0x1e0>
  a4b850:	4b 8d 3c 37          	lea    (%r15,%r14,1),%rdi
  a4b854:	48 39 ef             	cmp    %rbp,%rdi
  a4b857:	0f 86 99 fe ff ff    	jbe    a4b6f6 <LZ4_decompress_fast_continue+0x96>
  a4b85d:	4c 89 f2             	mov    %r14,%rdx
  a4b860:	48 39 df             	cmp    %rbx,%rdi
  a4b863:	0f 85 8f 00 00 00    	jne    a4b8f8 <LZ4_decompress_fast_continue+0x298>
  a4b869:	48 89 ce             	mov    %rcx,%rsi
  a4b86c:	4c 89 ff             	mov    %r15,%rdi
  a4b86f:	48 89 4c 24 08       	mov    %rcx,0x8(%rsp)
  a4b874:	4c 89 74 24 10       	mov    %r14,0x10(%rsp)
  a4b879:	e8 42 24 00 00       	callq  a4dcc0 <memcpy>
  a4b87e:	48 8b 4c 24 08       	mov    0x8(%rsp),%rcx
  a4b883:	48 8b 54 24 10       	mov    0x10(%rsp),%rdx
  a4b888:	48 01 ca             	add    %rcx,%rdx
  a4b88b:	48 2b 54 24 20       	sub    0x20(%rsp),%rdx
  a4b890:	89 d0                	mov    %edx,%eax
  a4b892:	85 d2                	test   %edx,%edx
  a4b894:	7e 67                	jle    a4b8fd <LZ4_decompress_fast_continue+0x29d>
  a4b896:	48 8b 4c 24 18       	mov    0x18(%rsp),%rcx
  a4b89b:	48 8b 74 24 30       	mov    0x30(%rsp),%rsi
  a4b8a0:	48 89 71 18          	mov    %rsi,0x18(%rcx)
  a4b8a4:	48 89 59 10          	mov    %rbx,0x10(%rcx)
  a4b8a8:	48 83 c4 48          	add    $0x48,%rsp
  a4b8ac:	5b                   	pop    %rbx
  a4b8ad:	5d                   	pop    %rbp
  a4b8ae:	41 5c                	pop    %r12
  a4b8b0:	41 5d                	pop    %r13
  a4b8b2:	41 5e                	pop    %r14
  a4b8b4:	41 5f                	pop    %r15
  a4b8b6:	c3                   	retq   
  a4b8b7:	66 0f 1f 84 00 00 00 	nopw   0x0(%rax,%rax,1)
  a4b8be:	00 00 
  a4b8c0:	ba 0f 00 00 00       	mov    $0xf,%edx
  a4b8c5:	0f 1f 00             	nopl   (%rax)
  a4b8c8:	41 0f b6 0e          	movzbl (%r14),%ecx
  a4b8cc:	49 83 c6 01          	add    $0x1,%r14
  a4b8d0:	48 01 ca             	add    %rcx,%rdx
  a4b8d3:	80 f9 ff             	cmp    $0xff,%cl
  a4b8d6:	74 f0                	je     a4b8c8 <LZ4_decompress_fast_continue+0x268>
  a4b8d8:	e9 5a fe ff ff       	jmpq   a4b737 <LZ4_decompress_fast_continue+0xd7>
  a4b8dd:	0f 1f 00             	nopl   (%rax)
  a4b8e0:	e8 7b 23 00 00       	callq  a4dc60 <memmove>
  a4b8e5:	e9 e6 fd ff ff       	jmpq   a4b6d0 <LZ4_decompress_fast_continue+0x70>
  a4b8ea:	48 8b 44 24 20       	mov    0x20(%rsp),%rax
  a4b8ef:	80 38 00             	cmpb   $0x0,(%rax)
  a4b8f2:	0f 84 20 04 00 00    	je     a4bd18 <LZ4_decompress_fast_continue+0x6b8>
  a4b8f8:	b8 ff ff ff ff       	mov    $0xffffffff,%eax
  a4b8fd:	48 83 c4 48          	add    $0x48,%rsp
  a4b901:	5b                   	pop    %rbx
  a4b902:	5d                   	pop    %rbp
  a4b903:	41 5c                	pop    %r12
  a4b905:	41 5d                	pop    %r13
  a4b907:	41 5e                	pop    %r14
  a4b909:	41 5f                	pop    %r15
  a4b90b:	c3                   	retq   
  a4b90c:	41 0f b6 00          	movzbl (%r8),%eax
  a4b910:	88 07                	mov    %al,(%rdi)
  a4b912:	41 0f b6 40 01       	movzbl 0x1(%r8),%eax
  a4b917:	88 47 01             	mov    %al,0x1(%rdi)
  a4b91a:	41 0f b6 40 02       	movzbl 0x2(%r8),%eax
  a4b91f:	88 47 02             	mov    %al,0x2(%rdi)
  a4b922:	41 0f b6 40 03       	movzbl 0x3(%r8),%eax
  a4b927:	88 47 03             	mov    %al,0x3(%rdi)
  a4b92a:	48 8d 05 6f 86 00 00 	lea    0x866f(%rip),%rax        # a53fa0 <dec32table.3>
  a4b931:	8b 04 b0             	mov    (%rax,%rsi,4),%eax
  a4b934:	49 01 c0             	add    %rax,%r8
  a4b937:	41 8b 00             	mov    (%r8),%eax
  a4b93a:	89 47 04             	mov    %eax,0x4(%rdi)
  a4b93d:	48 8d 05 7c 86 00 00 	lea    0x867c(%rip),%rax        # a53fc0 <dec64table.4>
  a4b944:	48 63 04 b0          	movslq (%rax,%rsi,4),%rax
  a4b948:	49 29 c0             	sub    %rax,%r8
  a4b94b:	48 8d 43 f4          	lea    -0xc(%rbx),%rax
  a4b94f:	49 39 c7             	cmp    %rax,%r15
  a4b952:	0f 86 89 fe ff ff    	jbe    a4b7e1 <LZ4_decompress_fast_continue+0x181>
  a4b958:	48 8d 43 fb          	lea    -0x5(%rbx),%rax
  a4b95c:	49 39 c7             	cmp    %rax,%r15
  a4b95f:	77 97                	ja     a4b8f8 <LZ4_decompress_fast_continue+0x298>
  a4b961:	48 83 c7 08          	add    $0x8,%rdi
  a4b965:	48 3b 7c 24 28       	cmp    0x28(%rsp),%rdi
  a4b96a:	0f 82 d2 02 00 00    	jb     a4bc42 <LZ4_decompress_fast_continue+0x5e2>
  a4b970:	4c 39 ff             	cmp    %r15,%rdi
  a4b973:	0f 83 57 fd ff ff    	jae    a4b6d0 <LZ4_decompress_fast_continue+0x70>
  a4b979:	4c 89 f9             	mov    %r15,%rcx
  a4b97c:	31 c0                	xor    %eax,%eax
  a4b97e:	48 29 f9             	sub    %rdi,%rcx
  a4b981:	0f 1f 80 00 00 00 00 	nopl   0x0(%rax)
  a4b988:	41 0f b6 14 00       	movzbl (%r8,%rax,1),%edx
  a4b98d:	88 14 07             	mov    %dl,(%rdi,%rax,1)
  a4b990:	48 83 c0 01          	add    $0x1,%rax
  a4b994:	48 39 c1             	cmp    %rax,%rcx
  a4b997:	75 ef                	jne    a4b988 <LZ4_decompress_fast_continue+0x328>
  a4b999:	e9 32 fd ff ff       	jmpq   a4b6d0 <LZ4_decompress_fast_continue+0x70>
  a4b99e:	48 89 fe             	mov    %rdi,%rsi
  a4b9a1:	4c 8b 74 24 20       	mov    0x20(%rsp),%r14
  a4b9a6:	48 8b 7f 08          	mov    0x8(%rdi),%rdi
  a4b9aa:	4d 8d 3c 0c          	lea    (%r12,%rcx,1),%r15
  a4b9ae:	48 8b 36             	mov    (%rsi),%rsi
  a4b9b1:	48 89 7c 24 10       	mov    %rdi,0x10(%rsp)
  a4b9b6:	45 0f b6 16          	movzbl (%r14),%r10d
  a4b9ba:	48 89 74 24 28       	mov    %rsi,0x28(%rsp)
  a4b9bf:	85 c0                	test   %eax,%eax
  a4b9c1:	0f 84 5b 03 00 00    	je     a4bd22 <LZ4_decompress_fast_continue+0x6c2>
  a4b9c7:	48 8d 43 f9          	lea    -0x7(%rbx),%rax
  a4b9cb:	4d 89 f5             	mov    %r14,%r13
  a4b9ce:	48 8d 6b f8          	lea    -0x8(%rbx),%rbp
  a4b9d2:	4d 89 fe             	mov    %r15,%r14
  a4b9d5:	48 89 44 24 38       	mov    %rax,0x38(%rsp)
  a4b9da:	66 0f 1f 44 00 00    	nopw   0x0(%rax,%rax,1)
  a4b9e0:	41 0f b6 c2          	movzbl %r10b,%eax
  a4b9e4:	49 8d 4d 01          	lea    0x1(%r13),%rcx
  a4b9e8:	c1 e8 04             	shr    $0x4,%eax
  a4b9eb:	89 c6                	mov    %eax,%esi
  a4b9ed:	83 f8 0f             	cmp    $0xf,%eax
  a4b9f0:	0f 84 5d 01 00 00    	je     a4bb53 <LZ4_decompress_fast_continue+0x4f3>
  a4b9f6:	49 8d 3c 34          	lea    (%r12,%rsi,1),%rdi
  a4b9fa:	48 39 ef             	cmp    %rbp,%rdi
  a4b9fd:	0f 87 7f 02 00 00    	ja     a4bc82 <LZ4_decompress_fast_continue+0x622>
  a4ba03:	48 89 c8             	mov    %rcx,%rax
  a4ba06:	66 2e 0f 1f 84 00 00 	nopw   %cs:0x0(%rax,%rax,1)
  a4ba0d:	00 00 00 
  a4ba10:	48 8b 10             	mov    (%rax),%rdx
  a4ba13:	49 83 c4 08          	add    $0x8,%r12
  a4ba17:	48 83 c0 08          	add    $0x8,%rax
  a4ba1b:	49 89 54 24 f8       	mov    %rdx,-0x8(%r12)
  a4ba20:	4c 39 e7             	cmp    %r12,%rdi
  a4ba23:	77 eb                	ja     a4ba10 <LZ4_decompress_fast_continue+0x3b0>
  a4ba25:	48 01 f1             	add    %rsi,%rcx
  a4ba28:	44 89 d0             	mov    %r10d,%eax
  a4ba2b:	48 89 fe             	mov    %rdi,%rsi
  a4ba2e:	4c 89 d2             	mov    %r10,%rdx
  a4ba31:	44 0f b7 01          	movzwl (%rcx),%r8d
  a4ba35:	83 e0 0f             	and    $0xf,%eax
  a4ba38:	4c 8d 69 02          	lea    0x2(%rcx),%r13
  a4ba3c:	83 e2 0f             	and    $0xf,%edx
  a4ba3f:	44 89 07             	mov    %r8d,(%rdi)
  a4ba42:	4c 29 c6             	sub    %r8,%rsi
  a4ba45:	3c 0f                	cmp    $0xf,%al
  a4ba47:	0f 84 27 01 00 00    	je     a4bb74 <LZ4_decompress_fast_continue+0x514>
  a4ba4d:	48 83 c2 04          	add    $0x4,%rdx
  a4ba51:	4c 8d 24 17          	lea    (%rdi,%rdx,1),%r12
  a4ba55:	49 39 f6             	cmp    %rsi,%r14
  a4ba58:	0f 86 82 00 00 00    	jbe    a4bae0 <LZ4_decompress_fast_continue+0x480>
  a4ba5e:	48 8d 43 fb          	lea    -0x5(%rbx),%rax
  a4ba62:	49 39 c4             	cmp    %rax,%r12
  a4ba65:	0f 87 8d fe ff ff    	ja     a4b8f8 <LZ4_decompress_fast_continue+0x298>
  a4ba6b:	4d 89 f2             	mov    %r14,%r10
  a4ba6e:	49 29 f2             	sub    %rsi,%r10
  a4ba71:	48 8b 74 24 10       	mov    0x10(%rsp),%rsi
  a4ba76:	4c 29 d6             	sub    %r10,%rsi
  a4ba79:	48 03 74 24 28       	add    0x28(%rsp),%rsi
  a4ba7e:	4c 39 d2             	cmp    %r10,%rdx
  a4ba81:	0f 86 0f 01 00 00    	jbe    a4bb96 <LZ4_decompress_fast_continue+0x536>
  a4ba87:	4c 29 d2             	sub    %r10,%rdx
  a4ba8a:	4c 89 54 24 08       	mov    %r10,0x8(%rsp)
  a4ba8f:	49 89 d7             	mov    %rdx,%r15
  a4ba92:	4c 89 d2             	mov    %r10,%rdx
  a4ba95:	e8 26 22 00 00       	callq  a4dcc0 <memcpy>
  a4ba9a:	4c 8b 54 24 08       	mov    0x8(%rsp),%r10
  a4ba9f:	48 89 c7             	mov    %rax,%rdi
  a4baa2:	4c 01 d7             	add    %r10,%rdi
  a4baa5:	48 89 f8             	mov    %rdi,%rax
  a4baa8:	4c 29 f0             	sub    %r14,%rax
  a4baab:	49 39 c7             	cmp    %rax,%r15
  a4baae:	0f 86 8a 00 00 00    	jbe    a4bb3e <LZ4_decompress_fast_continue+0x4de>
  a4bab4:	49 39 fc             	cmp    %rdi,%r12
  a4bab7:	0f 86 bd 01 00 00    	jbe    a4bc7a <LZ4_decompress_fast_continue+0x61a>
  a4babd:	31 c0                	xor    %eax,%eax
  a4babf:	41 0f b6 14 06       	movzbl (%r14,%rax,1),%edx
  a4bac4:	88 14 07             	mov    %dl,(%rdi,%rax,1)
  a4bac7:	48 83 c0 01          	add    $0x1,%rax
  a4bacb:	49 39 c7             	cmp    %rax,%r15
  a4bace:	75 ef                	jne    a4babf <LZ4_decompress_fast_continue+0x45f>
  a4bad0:	45 0f b6 55 00       	movzbl 0x0(%r13),%r10d
  a4bad5:	e9 06 ff ff ff       	jmpq   a4b9e0 <LZ4_decompress_fast_continue+0x380>
  a4bada:	66 0f 1f 44 00 00    	nopw   0x0(%rax,%rax,1)
  a4bae0:	49 83 f8 07          	cmp    $0x7,%r8
  a4bae4:	0f 86 bb 00 00 00    	jbe    a4bba5 <LZ4_decompress_fast_continue+0x545>
  a4baea:	48 8b 06             	mov    (%rsi),%rax
  a4baed:	48 83 c6 08          	add    $0x8,%rsi
  a4baf1:	48 89 07             	mov    %rax,(%rdi)
  a4baf4:	48 8d 43 f4          	lea    -0xc(%rbx),%rax
  a4baf8:	49 39 c4             	cmp    %rax,%r12
  a4bafb:	0f 87 ec 00 00 00    	ja     a4bbed <LZ4_decompress_fast_continue+0x58d>
  a4bb01:	48 8b 06             	mov    (%rsi),%rax
  a4bb04:	48 89 47 08          	mov    %rax,0x8(%rdi)
  a4bb08:	48 83 fa 10          	cmp    $0x10,%rdx
  a4bb0c:	76 c2                	jbe    a4bad0 <LZ4_decompress_fast_continue+0x470>
  a4bb0e:	48 8d 46 08          	lea    0x8(%rsi),%rax
  a4bb12:	48 83 c7 10          	add    $0x10,%rdi
  a4bb16:	66 2e 0f 1f 84 00 00 	nopw   %cs:0x0(%rax,%rax,1)
  a4bb1d:	00 00 00 
  a4bb20:	48 8b 10             	mov    (%rax),%rdx
  a4bb23:	48 83 c7 08          	add    $0x8,%rdi
  a4bb27:	48 83 c0 08          	add    $0x8,%rax
  a4bb2b:	48 89 57 f8          	mov    %rdx,-0x8(%rdi)
  a4bb2f:	4c 39 e7             	cmp    %r12,%rdi
  a4bb32:	72 ec                	jb     a4bb20 <LZ4_decompress_fast_continue+0x4c0>
  a4bb34:	45 0f b6 55 00       	movzbl 0x0(%r13),%r10d
  a4bb39:	e9 a2 fe ff ff       	jmpq   a4b9e0 <LZ4_decompress_fast_continue+0x380>
  a4bb3e:	4c 89 fa             	mov    %r15,%rdx
  a4bb41:	4c 89 f6             	mov    %r14,%rsi
  a4bb44:	e8 77 21 00 00       	callq  a4dcc0 <memcpy>
  a4bb49:	45 0f b6 55 00       	movzbl 0x0(%r13),%r10d
  a4bb4e:	e9 8d fe ff ff       	jmpq   a4b9e0 <LZ4_decompress_fast_continue+0x380>
  a4bb53:	be 0f 00 00 00       	mov    $0xf,%esi
  a4bb58:	0f 1f 84 00 00 00 00 	nopl   0x0(%rax,%rax,1)
  a4bb5f:	00 
  a4bb60:	0f b6 11             	movzbl (%rcx),%edx
  a4bb63:	48 83 c1 01          	add    $0x1,%rcx
  a4bb67:	48 01 d6             	add    %rdx,%rsi
  a4bb6a:	80 fa ff             	cmp    $0xff,%dl
  a4bb6d:	74 f1                	je     a4bb60 <LZ4_decompress_fast_continue+0x500>
  a4bb6f:	e9 82 fe ff ff       	jmpq   a4b9f6 <LZ4_decompress_fast_continue+0x396>
  a4bb74:	ba 0f 00 00 00       	mov    $0xf,%edx
  a4bb79:	0f 1f 80 00 00 00 00 	nopl   0x0(%rax)
  a4bb80:	41 0f b6 4d 00       	movzbl 0x0(%r13),%ecx
  a4bb85:	49 83 c5 01          	add    $0x1,%r13
  a4bb89:	48 01 ca             	add    %rcx,%rdx
  a4bb8c:	80 f9 ff             	cmp    $0xff,%cl
  a4bb8f:	74 ef                	je     a4bb80 <LZ4_decompress_fast_continue+0x520>
  a4bb91:	e9 b7 fe ff ff       	jmpq   a4ba4d <LZ4_decompress_fast_continue+0x3ed>
  a4bb96:	e8 c5 20 00 00       	callq  a4dc60 <memmove>
  a4bb9b:	45 0f b6 55 00       	movzbl 0x0(%r13),%r10d
  a4bba0:	e9 3b fe ff ff       	jmpq   a4b9e0 <LZ4_decompress_fast_continue+0x380>
  a4bba5:	0f b6 06             	movzbl (%rsi),%eax
  a4bba8:	88 07                	mov    %al,(%rdi)
  a4bbaa:	0f b6 46 01          	movzbl 0x1(%rsi),%eax
  a4bbae:	88 47 01             	mov    %al,0x1(%rdi)
  a4bbb1:	0f b6 46 02          	movzbl 0x2(%rsi),%eax
  a4bbb5:	88 47 02             	mov    %al,0x2(%rdi)
  a4bbb8:	0f b6 46 03          	movzbl 0x3(%rsi),%eax
  a4bbbc:	88 47 03             	mov    %al,0x3(%rdi)
  a4bbbf:	48 8d 05 da 83 00 00 	lea    0x83da(%rip),%rax        # a53fa0 <dec32table.3>
  a4bbc6:	42 8b 04 80          	mov    (%rax,%r8,4),%eax
  a4bbca:	48 01 c6             	add    %rax,%rsi
  a4bbcd:	8b 06                	mov    (%rsi),%eax
  a4bbcf:	89 47 04             	mov    %eax,0x4(%rdi)
  a4bbd2:	48 8d 05 e7 83 00 00 	lea    0x83e7(%rip),%rax        # a53fc0 <dec64table.4>
  a4bbd9:	4a 63 04 80          	movslq (%rax,%r8,4),%rax
  a4bbdd:	48 29 c6             	sub    %rax,%rsi
  a4bbe0:	48 8d 43 f4          	lea    -0xc(%rbx),%rax
  a4bbe4:	49 39 c4             	cmp    %rax,%r12
  a4bbe7:	0f 86 14 ff ff ff    	jbe    a4bb01 <LZ4_decompress_fast_continue+0x4a1>
  a4bbed:	48 8d 43 fb          	lea    -0x5(%rbx),%rax
  a4bbf1:	49 39 c4             	cmp    %rax,%r12
  a4bbf4:	0f 87 fe fc ff ff    	ja     a4b8f8 <LZ4_decompress_fast_continue+0x298>
  a4bbfa:	48 83 c7 08          	add    $0x8,%rdi
  a4bbfe:	48 3b 7c 24 38       	cmp    0x38(%rsp),%rdi
  a4bc03:	0f 82 da 00 00 00    	jb     a4bce3 <LZ4_decompress_fast_continue+0x683>
  a4bc09:	4c 39 e7             	cmp    %r12,%rdi
  a4bc0c:	0f 83 be fe ff ff    	jae    a4bad0 <LZ4_decompress_fast_continue+0x470>
  a4bc12:	4d 89 e0             	mov    %r12,%r8
  a4bc15:	31 c0                	xor    %eax,%eax
  a4bc17:	49 29 f8             	sub    %rdi,%r8
  a4bc1a:	66 0f 1f 44 00 00    	nopw   0x0(%rax,%rax,1)
  a4bc20:	0f b6 14 06          	movzbl (%rsi,%rax,1),%edx
  a4bc24:	88 14 07             	mov    %dl,(%rdi,%rax,1)
  a4bc27:	48 83 c0 01          	add    $0x1,%rax
  a4bc2b:	49 39 c0             	cmp    %rax,%r8
  a4bc2e:	75 f0                	jne    a4bc20 <LZ4_decompress_fast_continue+0x5c0>
  a4bc30:	45 0f b6 55 00       	movzbl 0x0(%r13),%r10d
  a4bc35:	e9 a6 fd ff ff       	jmpq   a4b9e0 <LZ4_decompress_fast_continue+0x380>
  a4bc3a:	49 89 ff             	mov    %rdi,%r15
  a4bc3d:	e9 8e fa ff ff       	jmpq   a4b6d0 <LZ4_decompress_fast_continue+0x70>
  a4bc42:	48 8b 74 24 28       	mov    0x28(%rsp),%rsi
  a4bc47:	4c 89 c2             	mov    %r8,%rdx
  a4bc4a:	48 89 f8             	mov    %rdi,%rax
  a4bc4d:	0f 1f 00             	nopl   (%rax)
  a4bc50:	48 8b 0a             	mov    (%rdx),%rcx
  a4bc53:	48 83 c0 08          	add    $0x8,%rax
  a4bc57:	48 83 c2 08          	add    $0x8,%rdx
  a4bc5b:	48 89 48 f8          	mov    %rcx,-0x8(%rax)
  a4bc5f:	48 39 c6             	cmp    %rax,%rsi
  a4bc62:	77 ec                	ja     a4bc50 <LZ4_decompress_fast_continue+0x5f0>
  a4bc64:	48 8b 4c 24 28       	mov    0x28(%rsp),%rcx
  a4bc69:	48 89 c8             	mov    %rcx,%rax
  a4bc6c:	48 29 f8             	sub    %rdi,%rax
  a4bc6f:	48 89 cf             	mov    %rcx,%rdi
  a4bc72:	49 01 c0             	add    %rax,%r8
  a4bc75:	e9 f6 fc ff ff       	jmpq   a4b970 <LZ4_decompress_fast_continue+0x310>
  a4bc7a:	49 89 fc             	mov    %rdi,%r12
  a4bc7d:	e9 4e fe ff ff       	jmpq   a4bad0 <LZ4_decompress_fast_continue+0x470>
  a4bc82:	49 89 f6             	mov    %rsi,%r14
  a4bc85:	48 39 df             	cmp    %rbx,%rdi
  a4bc88:	0f 85 6a fc ff ff    	jne    a4b8f8 <LZ4_decompress_fast_continue+0x298>
  a4bc8e:	48 89 f2             	mov    %rsi,%rdx
  a4bc91:	4c 89 e7             	mov    %r12,%rdi
  a4bc94:	48 89 ce             	mov    %rcx,%rsi
  a4bc97:	48 89 4c 24 08       	mov    %rcx,0x8(%rsp)
  a4bc9c:	e8 1f 20 00 00       	callq  a4dcc0 <memcpy>
  a4bca1:	4c 8b 44 24 08       	mov    0x8(%rsp),%r8
  a4bca6:	4b 8d 04 30          	lea    (%r8,%r14,1),%rax
  a4bcaa:	48 2b 44 24 20       	sub    0x20(%rsp),%rax
  a4bcaf:	85 c0                	test   %eax,%eax
  a4bcb1:	0f 8e 46 fc ff ff    	jle    a4b8fd <LZ4_decompress_fast_continue+0x29d>
  a4bcb7:	48 8b 5c 24 18       	mov    0x18(%rsp),%rbx
  a4bcbc:	48 8b 4c 24 30       	mov    0x30(%rsp),%rcx
  a4bcc1:	48 03 4b 10          	add    0x10(%rbx),%rcx
  a4bcc5:	48 8b 53 18          	mov    0x18(%rbx),%rdx
  a4bcc9:	48 89 cb             	mov    %rcx,%rbx
  a4bccc:	48 8b 4c 24 18       	mov    0x18(%rsp),%rcx
  a4bcd1:	48 03 54 24 30       	add    0x30(%rsp),%rdx
  a4bcd6:	48 89 51 18          	mov    %rdx,0x18(%rcx)
  a4bcda:	48 89 59 10          	mov    %rbx,0x10(%rcx)
  a4bcde:	e9 1a fc ff ff       	jmpq   a4b8fd <LZ4_decompress_fast_continue+0x29d>
  a4bce3:	4c 8b 44 24 38       	mov    0x38(%rsp),%r8
  a4bce8:	48 89 f2             	mov    %rsi,%rdx
  a4bceb:	48 89 f8             	mov    %rdi,%rax
  a4bcee:	48 8b 0a             	mov    (%rdx),%rcx
  a4bcf1:	48 83 c0 08          	add    $0x8,%rax
  a4bcf5:	48 83 c2 08          	add    $0x8,%rdx
  a4bcf9:	48 89 48 f8          	mov    %rcx,-0x8(%rax)
  a4bcfd:	49 39 c0             	cmp    %rax,%r8
  a4bd00:	77 ec                	ja     a4bcee <LZ4_decompress_fast_continue+0x68e>
  a4bd02:	48 8b 4c 24 38       	mov    0x38(%rsp),%rcx
  a4bd07:	48 89 c8             	mov    %rcx,%rax
  a4bd0a:	48 29 f8             	sub    %rdi,%rax
  a4bd0d:	48 89 cf             	mov    %rcx,%rdi
  a4bd10:	48 01 c6             	add    %rax,%rsi
  a4bd13:	e9 f1 fe ff ff       	jmpq   a4bc09 <LZ4_decompress_fast_continue+0x5a9>
  a4bd18:	b8 01 00 00 00       	mov    $0x1,%eax
  a4bd1d:	e9 74 fb ff ff       	jmpq   a4b896 <LZ4_decompress_fast_continue+0x236>
  a4bd22:	45 84 d2             	test   %r10b,%r10b
  a4bd25:	0f 85 cd fb ff ff    	jne    a4b8f8 <LZ4_decompress_fast_continue+0x298>
  a4bd2b:	b8 01 00 00 00       	mov    $0x1,%eax
  a4bd30:	eb 9a                	jmp    a4bccc <LZ4_decompress_fast_continue+0x66c>
  a4bd32:	66 66 2e 0f 1f 84 00 	data16 nopw %cs:0x0(%rax,%rax,1)
  a4bd39:	00 00 00 00 
  a4bd3d:	0f 1f 00             	nopl   (%rax)

0000000000a4bd40 <LZ4_decompress_safe_usingDict>:
  a4bd40:	f3 0f 1e fa          	endbr64 
  a4bd44:	41 57                	push   %r15
  a4bd46:	41 56                	push   %r14
  a4bd48:	41 55                	push   %r13
  a4bd4a:	4c 63 ea             	movslq %edx,%r13
  a4bd4d:	48 63 d1             	movslq %ecx,%rdx
  a4bd50:	41 54                	push   %r12
  a4bd52:	48 89 d0             	mov    %rdx,%rax
  a4bd55:	49 89 f4             	mov    %rsi,%r12
  a4bd58:	4c 89 ee             	mov    %r13,%rsi
  a4bd5b:	55                   	push   %rbp
  a4bd5c:	49 01 fd             	add    %rdi,%r13
  a4bd5f:	48 89 fd             	mov    %rdi,%rbp
  a4bd62:	53                   	push   %rbx
  a4bd63:	48 83 ec 38          	sub    $0x38,%rsp
  a4bd67:	45 85 c9             	test   %r9d,%r9d
  a4bd6a:	0f 85 00 01 00 00    	jne    a4be70 <LZ4_decompress_safe_usingDict+0x130>
  a4bd70:	4c 01 e2             	add    %r12,%rdx
  a4bd73:	4c 89 e7             	mov    %r12,%rdi
  a4bd76:	85 c0                	test   %eax,%eax
  a4bd78:	0f 84 93 04 00 00    	je     a4c211 <LZ4_decompress_safe_usingDict+0x4d1>
  a4bd7e:	48 8d 42 fb          	lea    -0x5(%rdx),%rax
  a4bd82:	4d 8d 4d f1          	lea    -0xf(%r13),%r9
  a4bd86:	48 89 44 24 08       	mov    %rax,0x8(%rsp)
  a4bd8b:	4c 8d 42 f4          	lea    -0xc(%rdx),%r8
  a4bd8f:	4d 8d 5d f8          	lea    -0x8(%r13),%r11
  a4bd93:	4d 8d 55 fc          	lea    -0x4(%r13),%r10
  a4bd97:	4c 8d 72 f9          	lea    -0x7(%rdx),%r14
  a4bd9b:	0f b6 45 00          	movzbl 0x0(%rbp),%eax
  a4bd9f:	48 8d 75 01          	lea    0x1(%rbp),%rsi
  a4bda3:	89 c1                	mov    %eax,%ecx
  a4bda5:	c1 e8 04             	shr    $0x4,%eax
  a4bda8:	41 89 c7             	mov    %eax,%r15d
  a4bdab:	83 f8 0f             	cmp    $0xf,%eax
  a4bdae:	0f 84 ac 02 00 00    	je     a4c060 <LZ4_decompress_safe_usingDict+0x320>
  a4bdb4:	4a 8d 1c 3f          	lea    (%rdi,%r15,1),%rbx
  a4bdb8:	4a 8d 2c 3e          	lea    (%rsi,%r15,1),%rbp
  a4bdbc:	49 39 d8             	cmp    %rbx,%r8
  a4bdbf:	0f 82 5c 06 00 00    	jb     a4c421 <LZ4_decompress_safe_usingDict+0x6e1>
  a4bdc5:	4c 39 dd             	cmp    %r11,%rbp
  a4bdc8:	0f 87 53 06 00 00    	ja     a4c421 <LZ4_decompress_safe_usingDict+0x6e1>
  a4bdce:	66 90                	xchg   %ax,%ax
  a4bdd0:	48 8b 06             	mov    (%rsi),%rax
  a4bdd3:	48 83 c7 08          	add    $0x8,%rdi
  a4bdd7:	48 83 c6 08          	add    $0x8,%rsi
  a4bddb:	48 89 47 f8          	mov    %rax,-0x8(%rdi)
  a4bddf:	48 39 df             	cmp    %rbx,%rdi
  a4bde2:	72 ec                	jb     a4bdd0 <LZ4_decompress_safe_usingDict+0x90>
  a4bde4:	0f b7 75 00          	movzwl 0x0(%rbp),%esi
  a4bde8:	48 89 d8             	mov    %rbx,%rax
  a4bdeb:	48 83 c5 02          	add    $0x2,%rbp
  a4bdef:	48 29 f0             	sub    %rsi,%rax
  a4bdf2:	49 39 c4             	cmp    %rax,%r12
  a4bdf5:	0f 87 f5 01 00 00    	ja     a4bff0 <LZ4_decompress_safe_usingDict+0x2b0>
  a4bdfb:	89 cf                	mov    %ecx,%edi
  a4bdfd:	89 33                	mov    %esi,(%rbx)
  a4bdff:	83 e1 0f             	and    $0xf,%ecx
  a4be02:	83 e7 0f             	and    $0xf,%edi
  a4be05:	40 80 ff 0f          	cmp    $0xf,%dil
  a4be09:	0f 84 b1 01 00 00    	je     a4bfc0 <LZ4_decompress_safe_usingDict+0x280>
  a4be0f:	48 83 c1 04          	add    $0x4,%rcx
  a4be13:	48 8d 3c 0b          	lea    (%rbx,%rcx,1),%rdi
  a4be17:	48 83 fe 07          	cmp    $0x7,%rsi
  a4be1b:	0f 86 95 04 00 00    	jbe    a4c2b6 <LZ4_decompress_safe_usingDict+0x576>
  a4be21:	48 8b 30             	mov    (%rax),%rsi
  a4be24:	48 83 c0 08          	add    $0x8,%rax
  a4be28:	48 89 33             	mov    %rsi,(%rbx)
  a4be2b:	49 39 f8             	cmp    %rdi,%r8
  a4be2e:	0f 82 3e 04 00 00    	jb     a4c272 <LZ4_decompress_safe_usingDict+0x532>
  a4be34:	48 8b 30             	mov    (%rax),%rsi
  a4be37:	48 89 73 08          	mov    %rsi,0x8(%rbx)
  a4be3b:	48 83 f9 10          	cmp    $0x10,%rcx
  a4be3f:	0f 86 56 ff ff ff    	jbe    a4bd9b <LZ4_decompress_safe_usingDict+0x5b>
  a4be45:	48 83 c0 08          	add    $0x8,%rax
  a4be49:	48 83 c3 10          	add    $0x10,%rbx
  a4be4d:	0f 1f 00             	nopl   (%rax)
  a4be50:	48 8b 08             	mov    (%rax),%rcx
  a4be53:	48 83 c3 08          	add    $0x8,%rbx
  a4be57:	48 83 c0 08          	add    $0x8,%rax
  a4be5b:	48 89 4b f8          	mov    %rcx,-0x8(%rbx)
  a4be5f:	48 39 df             	cmp    %rbx,%rdi
  a4be62:	77 ec                	ja     a4be50 <LZ4_decompress_safe_usingDict+0x110>
  a4be64:	e9 32 ff ff ff       	jmpq   a4bd9b <LZ4_decompress_safe_usingDict+0x5b>
  a4be69:	0f 1f 80 00 00 00 00 	nopl   0x0(%rax)
  a4be70:	4d 63 d1             	movslq %r9d,%r10
  a4be73:	4b 8d 0c 10          	lea    (%r8,%r10,1),%rcx
  a4be77:	48 89 4c 24 10       	mov    %rcx,0x10(%rsp)
  a4be7c:	49 39 cc             	cmp    %rcx,%r12
  a4be7f:	0f 84 75 02 00 00    	je     a4c0fa <LZ4_decompress_safe_usingDict+0x3ba>
  a4be85:	4d 8d 3c 14          	lea    (%r12,%rdx,1),%r15
  a4be89:	4c 89 e2             	mov    %r12,%rdx
  a4be8c:	4c 89 e3             	mov    %r12,%rbx
  a4be8f:	4d 89 d6             	mov    %r10,%r14
  a4be92:	4c 29 d2             	sub    %r10,%rdx
  a4be95:	48 89 54 24 08       	mov    %rdx,0x8(%rsp)
  a4be9a:	49 8d 57 f9          	lea    -0x7(%r15),%rdx
  a4be9e:	48 89 54 24 28       	mov    %rdx,0x28(%rsp)
  a4bea3:	85 c0                	test   %eax,%eax
  a4bea5:	0f 84 66 03 00 00    	je     a4c211 <LZ4_decompress_safe_usingDict+0x4d1>
  a4beab:	0f b6 4d 00          	movzbl 0x0(%rbp),%ecx
  a4beaf:	48 8d 75 01          	lea    0x1(%rbp),%rsi
  a4beb3:	89 ca                	mov    %ecx,%edx
  a4beb5:	c1 e9 04             	shr    $0x4,%ecx
  a4beb8:	89 c8                	mov    %ecx,%eax
  a4beba:	83 f9 0f             	cmp    $0xf,%ecx
  a4bebd:	0f 84 f5 01 00 00    	je     a4c0b8 <LZ4_decompress_safe_usingDict+0x378>
  a4bec3:	48 8d 3c 03          	lea    (%rbx,%rax,1),%rdi
  a4bec7:	48 8d 2c 06          	lea    (%rsi,%rax,1),%rbp
  a4becb:	49 8d 4f f4          	lea    -0xc(%r15),%rcx
  a4becf:	48 39 cf             	cmp    %rcx,%rdi
  a4bed2:	0f 87 f5 05 00 00    	ja     a4c4cd <LZ4_decompress_safe_usingDict+0x78d>
  a4bed8:	4d 8d 45 f8          	lea    -0x8(%r13),%r8
  a4bedc:	4c 39 c5             	cmp    %r8,%rbp
  a4bedf:	0f 87 e8 05 00 00    	ja     a4c4cd <LZ4_decompress_safe_usingDict+0x78d>
  a4bee5:	0f 1f 00             	nopl   (%rax)
  a4bee8:	48 8b 06             	mov    (%rsi),%rax
  a4beeb:	48 83 c3 08          	add    $0x8,%rbx
  a4beef:	48 83 c6 08          	add    $0x8,%rsi
  a4bef3:	48 89 43 f8          	mov    %rax,-0x8(%rbx)
  a4bef7:	48 39 df             	cmp    %rbx,%rdi
  a4befa:	77 ec                	ja     a4bee8 <LZ4_decompress_safe_usingDict+0x1a8>
  a4befc:	44 0f b7 45 00       	movzwl 0x0(%rbp),%r8d
  a4bf01:	48 89 fe             	mov    %rdi,%rsi
  a4bf04:	48 83 c5 02          	add    $0x2,%rbp
  a4bf08:	4c 89 c0             	mov    %r8,%rax
  a4bf0b:	4c 29 c6             	sub    %r8,%rsi
  a4bf0e:	48 39 74 24 08       	cmp    %rsi,0x8(%rsp)
  a4bf13:	76 0d                	jbe    a4bf22 <LZ4_decompress_safe_usingDict+0x1e2>
  a4bf15:	49 81 fe ff ff 00 00 	cmp    $0xffff,%r14
  a4bf1c:	0f 86 ce 00 00 00    	jbe    a4bff0 <LZ4_decompress_safe_usingDict+0x2b0>
  a4bf22:	89 07                	mov    %eax,(%rdi)
  a4bf24:	89 d0                	mov    %edx,%eax
  a4bf26:	83 e2 0f             	and    $0xf,%edx
  a4bf29:	83 e0 0f             	and    $0xf,%eax
  a4bf2c:	3c 0f                	cmp    $0xf,%al
  a4bf2e:	0f 84 fc 02 00 00    	je     a4c230 <LZ4_decompress_safe_usingDict+0x4f0>
  a4bf34:	48 83 c2 04          	add    $0x4,%rdx
  a4bf38:	48 8d 1c 17          	lea    (%rdi,%rdx,1),%rbx
  a4bf3c:	49 39 f4             	cmp    %rsi,%r12
  a4bf3f:	0f 86 c3 00 00 00    	jbe    a4c008 <LZ4_decompress_safe_usingDict+0x2c8>
  a4bf45:	49 8d 47 fb          	lea    -0x5(%r15),%rax
  a4bf49:	48 39 c3             	cmp    %rax,%rbx
  a4bf4c:	0f 87 9e 00 00 00    	ja     a4bff0 <LZ4_decompress_safe_usingDict+0x2b0>
  a4bf52:	4c 89 e1             	mov    %r12,%rcx
  a4bf55:	48 29 f1             	sub    %rsi,%rcx
  a4bf58:	48 8b 74 24 10       	mov    0x10(%rsp),%rsi
  a4bf5d:	48 29 ce             	sub    %rcx,%rsi
  a4bf60:	48 39 ca             	cmp    %rcx,%rdx
  a4bf63:	0f 86 ff 02 00 00    	jbe    a4c268 <LZ4_decompress_safe_usingDict+0x528>
  a4bf69:	48 29 ca             	sub    %rcx,%rdx
  a4bf6c:	48 89 4c 24 18       	mov    %rcx,0x18(%rsp)
  a4bf71:	48 89 54 24 20       	mov    %rdx,0x20(%rsp)
  a4bf76:	48 89 ca             	mov    %rcx,%rdx
  a4bf79:	e8 42 1d 00 00       	callq  a4dcc0 <memcpy>
  a4bf7e:	48 8b 4c 24 18       	mov    0x18(%rsp),%rcx
  a4bf83:	4c 8b 44 24 20       	mov    0x20(%rsp),%r8
  a4bf88:	48 89 c7             	mov    %rax,%rdi
  a4bf8b:	48 01 cf             	add    %rcx,%rdi
  a4bf8e:	48 89 f8             	mov    %rdi,%rax
  a4bf91:	4c 29 e0             	sub    %r12,%rax
  a4bf94:	49 39 c0             	cmp    %rax,%r8
  a4bf97:	0f 86 04 01 00 00    	jbe    a4c0a1 <LZ4_decompress_safe_usingDict+0x361>
  a4bf9d:	48 39 fb             	cmp    %rdi,%rbx
  a4bfa0:	0f 86 52 05 00 00    	jbe    a4c4f8 <LZ4_decompress_safe_usingDict+0x7b8>
  a4bfa6:	31 c0                	xor    %eax,%eax
  a4bfa8:	41 0f b6 14 04       	movzbl (%r12,%rax,1),%edx
  a4bfad:	88 14 07             	mov    %dl,(%rdi,%rax,1)
  a4bfb0:	48 83 c0 01          	add    $0x1,%rax
  a4bfb4:	4c 39 c0             	cmp    %r8,%rax
  a4bfb7:	75 ef                	jne    a4bfa8 <LZ4_decompress_safe_usingDict+0x268>
  a4bfb9:	e9 ed fe ff ff       	jmpq   a4beab <LZ4_decompress_safe_usingDict+0x16b>
  a4bfbe:	66 90                	xchg   %ax,%ax
  a4bfc0:	b9 0f 00 00 00       	mov    $0xf,%ecx
  a4bfc5:	eb 1a                	jmp    a4bfe1 <LZ4_decompress_safe_usingDict+0x2a1>
  a4bfc7:	66 0f 1f 84 00 00 00 	nopw   0x0(%rax,%rax,1)
  a4bfce:	00 00 
  a4bfd0:	44 0f b6 ff          	movzbl %dil,%r15d
  a4bfd4:	4c 01 f9             	add    %r15,%rcx
  a4bfd7:	40 80 ff ff          	cmp    $0xff,%dil
  a4bfdb:	0f 85 1f 03 00 00    	jne    a4c300 <LZ4_decompress_safe_usingDict+0x5c0>
  a4bfe1:	48 83 c5 01          	add    $0x1,%rbp
  a4bfe5:	0f b6 7d ff          	movzbl -0x1(%rbp),%edi
  a4bfe9:	4c 39 d5             	cmp    %r10,%rbp
  a4bfec:	75 e2                	jne    a4bfd0 <LZ4_decompress_safe_usingDict+0x290>
  a4bfee:	66 90                	xchg   %ax,%ax
  a4bff0:	b8 ff ff ff ff       	mov    $0xffffffff,%eax
  a4bff5:	48 83 c4 38          	add    $0x38,%rsp
  a4bff9:	5b                   	pop    %rbx
  a4bffa:	5d                   	pop    %rbp
  a4bffb:	41 5c                	pop    %r12
  a4bffd:	41 5d                	pop    %r13
  a4bfff:	41 5e                	pop    %r14
  a4c001:	41 5f                	pop    %r15
  a4c003:	c3                   	retq   
  a4c004:	0f 1f 40 00          	nopl   0x0(%rax)
  a4c008:	49 83 f8 07          	cmp    $0x7,%r8
  a4c00c:	0f 86 7b 04 00 00    	jbe    a4c48d <LZ4_decompress_safe_usingDict+0x74d>
  a4c012:	48 8b 06             	mov    (%rsi),%rax
  a4c015:	48 89 07             	mov    %rax,(%rdi)
  a4c018:	48 8d 46 08          	lea    0x8(%rsi),%rax
  a4c01c:	48 39 d9             	cmp    %rbx,%rcx
  a4c01f:	0f 82 20 04 00 00    	jb     a4c445 <LZ4_decompress_safe_usingDict+0x705>
  a4c025:	48 8b 08             	mov    (%rax),%rcx
  a4c028:	48 89 4f 08          	mov    %rcx,0x8(%rdi)
  a4c02c:	48 83 fa 10          	cmp    $0x10,%rdx
  a4c030:	0f 86 75 fe ff ff    	jbe    a4beab <LZ4_decompress_safe_usingDict+0x16b>
  a4c036:	48 83 c0 08          	add    $0x8,%rax
  a4c03a:	48 83 c7 10          	add    $0x10,%rdi
  a4c03e:	66 90                	xchg   %ax,%ax
  a4c040:	48 8b 10             	mov    (%rax),%rdx
  a4c043:	48 83 c7 08          	add    $0x8,%rdi
  a4c047:	48 83 c0 08          	add    $0x8,%rax
  a4c04b:	48 89 57 f8          	mov    %rdx,-0x8(%rdi)
  a4c04f:	48 39 fb             	cmp    %rdi,%rbx
  a4c052:	77 ec                	ja     a4c040 <LZ4_decompress_safe_usingDict+0x300>
  a4c054:	e9 52 fe ff ff       	jmpq   a4beab <LZ4_decompress_safe_usingDict+0x16b>
  a4c059:	0f 1f 80 00 00 00 00 	nopl   0x0(%rax)
  a4c060:	41 bf 0f 00 00 00    	mov    $0xf,%r15d
  a4c066:	eb 0d                	jmp    a4c075 <LZ4_decompress_safe_usingDict+0x335>
  a4c068:	0f 1f 84 00 00 00 00 	nopl   0x0(%rax,%rax,1)
  a4c06f:	00 
  a4c070:	80 fb ff             	cmp    $0xff,%bl
  a4c073:	75 0f                	jne    a4c084 <LZ4_decompress_safe_usingDict+0x344>
  a4c075:	0f b6 1e             	movzbl (%rsi),%ebx
  a4c078:	48 83 c6 01          	add    $0x1,%rsi
  a4c07c:	49 01 df             	add    %rbx,%r15
  a4c07f:	4c 39 ce             	cmp    %r9,%rsi
  a4c082:	72 ec                	jb     a4c070 <LZ4_decompress_safe_usingDict+0x330>
  a4c084:	48 89 fb             	mov    %rdi,%rbx
  a4c087:	4c 01 fb             	add    %r15,%rbx
  a4c08a:	0f 82 60 ff ff ff    	jb     a4bff0 <LZ4_decompress_safe_usingDict+0x2b0>
  a4c090:	48 89 f5             	mov    %rsi,%rbp
  a4c093:	4c 01 fd             	add    %r15,%rbp
  a4c096:	0f 83 20 fd ff ff    	jae    a4bdbc <LZ4_decompress_safe_usingDict+0x7c>
  a4c09c:	e9 4f ff ff ff       	jmpq   a4bff0 <LZ4_decompress_safe_usingDict+0x2b0>
  a4c0a1:	4c 89 c2             	mov    %r8,%rdx
  a4c0a4:	4c 89 e6             	mov    %r12,%rsi
  a4c0a7:	e8 14 1c 00 00       	callq  a4dcc0 <memcpy>
  a4c0ac:	e9 fa fd ff ff       	jmpq   a4beab <LZ4_decompress_safe_usingDict+0x16b>
  a4c0b1:	0f 1f 80 00 00 00 00 	nopl   0x0(%rax)
  a4c0b8:	4d 8d 45 f1          	lea    -0xf(%r13),%r8
  a4c0bc:	b8 0f 00 00 00       	mov    $0xf,%eax
  a4c0c1:	eb 0b                	jmp    a4c0ce <LZ4_decompress_safe_usingDict+0x38e>
  a4c0c3:	0f 1f 44 00 00       	nopl   0x0(%rax,%rax,1)
  a4c0c8:	40 80 ff ff          	cmp    $0xff,%dil
  a4c0cc:	75 0f                	jne    a4c0dd <LZ4_decompress_safe_usingDict+0x39d>
  a4c0ce:	0f b6 3e             	movzbl (%rsi),%edi
  a4c0d1:	48 83 c6 01          	add    $0x1,%rsi
  a4c0d5:	48 01 f8             	add    %rdi,%rax
  a4c0d8:	49 39 f0             	cmp    %rsi,%r8
  a4c0db:	77 eb                	ja     a4c0c8 <LZ4_decompress_safe_usingDict+0x388>
  a4c0dd:	48 89 df             	mov    %rbx,%rdi
  a4c0e0:	48 01 c7             	add    %rax,%rdi
  a4c0e3:	0f 82 07 ff ff ff    	jb     a4bff0 <LZ4_decompress_safe_usingDict+0x2b0>
  a4c0e9:	48 89 f5             	mov    %rsi,%rbp
  a4c0ec:	48 01 c5             	add    %rax,%rbp
  a4c0ef:	0f 83 d6 fd ff ff    	jae    a4becb <LZ4_decompress_safe_usingDict+0x18b>
  a4c0f5:	e9 f6 fe ff ff       	jmpq   a4bff0 <LZ4_decompress_safe_usingDict+0x2b0>
  a4c0fa:	4c 01 e2             	add    %r12,%rdx
  a4c0fd:	41 81 f9 fe ff 00 00 	cmp    $0xfffe,%r9d
  a4c104:	0f 8e 18 02 00 00    	jle    a4c322 <LZ4_decompress_safe_usingDict+0x5e2>
  a4c10a:	4d 8d 8c 24 00 00 ff 	lea    -0x10000(%r12),%r9
  a4c111:	ff 
  a4c112:	85 c0                	test   %eax,%eax
  a4c114:	0f 84 f7 00 00 00    	je     a4c211 <LZ4_decompress_safe_usingDict+0x4d1>
  a4c11a:	48 8d 42 fb          	lea    -0x5(%rdx),%rax
  a4c11e:	4d 8d 55 f1          	lea    -0xf(%r13),%r10
  a4c122:	48 89 44 24 08       	mov    %rax,0x8(%rsp)
  a4c127:	4c 8d 42 f4          	lea    -0xc(%rdx),%r8
  a4c12b:	4d 8d 75 f8          	lea    -0x8(%r13),%r14
  a4c12f:	4d 8d 5d fc          	lea    -0x4(%r13),%r11
  a4c133:	4c 8d 7a f9          	lea    -0x7(%rdx),%r15
  a4c137:	0f b6 45 00          	movzbl 0x0(%rbp),%eax
  a4c13b:	48 8d 75 01          	lea    0x1(%rbp),%rsi
  a4c13f:	89 c7                	mov    %eax,%edi
  a4c141:	c1 e8 04             	shr    $0x4,%eax
  a4c144:	89 c1                	mov    %eax,%ecx
  a4c146:	83 f8 0f             	cmp    $0xf,%eax
  a4c149:	0f 84 29 04 00 00    	je     a4c578 <LZ4_decompress_safe_usingDict+0x838>
  a4c14f:	49 8d 1c 0c          	lea    (%r12,%rcx,1),%rbx
  a4c153:	48 8d 2c 0e          	lea    (%rsi,%rcx,1),%rbp
  a4c157:	49 39 d8             	cmp    %rbx,%r8
  a4c15a:	0f 82 11 06 00 00    	jb     a4c771 <LZ4_decompress_safe_usingDict+0xa31>
  a4c160:	4c 39 f5             	cmp    %r14,%rbp
  a4c163:	0f 87 08 06 00 00    	ja     a4c771 <LZ4_decompress_safe_usingDict+0xa31>
  a4c169:	0f 1f 80 00 00 00 00 	nopl   0x0(%rax)
  a4c170:	48 8b 06             	mov    (%rsi),%rax
  a4c173:	49 83 c4 08          	add    $0x8,%r12
  a4c177:	48 83 c6 08          	add    $0x8,%rsi
  a4c17b:	49 89 44 24 f8       	mov    %rax,-0x8(%r12)
  a4c180:	49 39 dc             	cmp    %rbx,%r12
  a4c183:	72 eb                	jb     a4c170 <LZ4_decompress_safe_usingDict+0x430>
  a4c185:	0f b7 4d 00          	movzwl 0x0(%rbp),%ecx
  a4c189:	48 89 de             	mov    %rbx,%rsi
  a4c18c:	48 83 c5 02          	add    $0x2,%rbp
  a4c190:	48 29 ce             	sub    %rcx,%rsi
  a4c193:	49 39 f1             	cmp    %rsi,%r9
  a4c196:	0f 87 54 fe ff ff    	ja     a4bff0 <LZ4_decompress_safe_usingDict+0x2b0>
  a4c19c:	41 89 fc             	mov    %edi,%r12d
  a4c19f:	48 89 f8             	mov    %rdi,%rax
  a4c1a2:	89 0b                	mov    %ecx,(%rbx)
  a4c1a4:	41 83 e4 0f          	and    $0xf,%r12d
  a4c1a8:	83 e0 0f             	and    $0xf,%eax
  a4c1ab:	41 80 fc 0f          	cmp    $0xf,%r12b
  a4c1af:	0f 84 30 04 00 00    	je     a4c5e5 <LZ4_decompress_safe_usingDict+0x8a5>
  a4c1b5:	48 8d 78 04          	lea    0x4(%rax),%rdi
  a4c1b9:	4c 8d 24 3b          	lea    (%rbx,%rdi,1),%r12
  a4c1bd:	48 83 f9 07          	cmp    $0x7,%rcx
  a4c1c1:	0f 86 7c 04 00 00    	jbe    a4c643 <LZ4_decompress_safe_usingDict+0x903>
  a4c1c7:	48 8b 06             	mov    (%rsi),%rax
  a4c1ca:	48 89 03             	mov    %rax,(%rbx)
  a4c1cd:	48 8d 46 08          	lea    0x8(%rsi),%rax
  a4c1d1:	4d 39 e0             	cmp    %r12,%r8
  a4c1d4:	0f 82 a8 04 00 00    	jb     a4c682 <LZ4_decompress_safe_usingDict+0x942>
  a4c1da:	48 8b 08             	mov    (%rax),%rcx
  a4c1dd:	48 89 4b 08          	mov    %rcx,0x8(%rbx)
  a4c1e1:	48 83 ff 10          	cmp    $0x10,%rdi
  a4c1e5:	0f 86 4c ff ff ff    	jbe    a4c137 <LZ4_decompress_safe_usingDict+0x3f7>
  a4c1eb:	48 83 c0 08          	add    $0x8,%rax
  a4c1ef:	48 83 c3 10          	add    $0x10,%rbx
  a4c1f3:	0f 1f 44 00 00       	nopl   0x0(%rax,%rax,1)
  a4c1f8:	48 8b 08             	mov    (%rax),%rcx
  a4c1fb:	48 83 c3 08          	add    $0x8,%rbx
  a4c1ff:	48 83 c0 08          	add    $0x8,%rax
  a4c203:	48 89 4b f8          	mov    %rcx,-0x8(%rbx)
  a4c207:	49 39 dc             	cmp    %rbx,%r12
  a4c20a:	77 ec                	ja     a4c1f8 <LZ4_decompress_safe_usingDict+0x4b8>
  a4c20c:	e9 26 ff ff ff       	jmpq   a4c137 <LZ4_decompress_safe_usingDict+0x3f7>
  a4c211:	83 fe 01             	cmp    $0x1,%esi
  a4c214:	0f 85 d6 fd ff ff    	jne    a4bff0 <LZ4_decompress_safe_usingDict+0x2b0>
  a4c21a:	31 c0                	xor    %eax,%eax
  a4c21c:	80 7d 00 00          	cmpb   $0x0,0x0(%rbp)
  a4c220:	0f 84 cf fd ff ff    	je     a4bff5 <LZ4_decompress_safe_usingDict+0x2b5>
  a4c226:	e9 c5 fd ff ff       	jmpq   a4bff0 <LZ4_decompress_safe_usingDict+0x2b0>
  a4c22b:	0f 1f 44 00 00       	nopl   0x0(%rax,%rax,1)
  a4c230:	4d 8d 55 fc          	lea    -0x4(%r13),%r10
  a4c234:	ba 0f 00 00 00       	mov    $0xf,%edx
  a4c239:	eb 14                	jmp    a4c24f <LZ4_decompress_safe_usingDict+0x50f>
  a4c23b:	0f 1f 44 00 00       	nopl   0x0(%rax,%rax,1)
  a4c240:	44 0f b6 c8          	movzbl %al,%r9d
  a4c244:	4c 01 ca             	add    %r9,%rdx
  a4c247:	3c ff                	cmp    $0xff,%al
  a4c249:	0f 85 c2 00 00 00    	jne    a4c311 <LZ4_decompress_safe_usingDict+0x5d1>
  a4c24f:	48 83 c5 01          	add    $0x1,%rbp
  a4c253:	0f b6 45 ff          	movzbl -0x1(%rbp),%eax
  a4c257:	49 39 ea             	cmp    %rbp,%r10
  a4c25a:	75 e4                	jne    a4c240 <LZ4_decompress_safe_usingDict+0x500>
  a4c25c:	e9 8f fd ff ff       	jmpq   a4bff0 <LZ4_decompress_safe_usingDict+0x2b0>
  a4c261:	0f 1f 80 00 00 00 00 	nopl   0x0(%rax)
  a4c268:	e8 f3 19 00 00       	callq  a4dc60 <memmove>
  a4c26d:	e9 39 fc ff ff       	jmpq   a4beab <LZ4_decompress_safe_usingDict+0x16b>
  a4c272:	48 3b 7c 24 08       	cmp    0x8(%rsp),%rdi
  a4c277:	0f 87 73 fd ff ff    	ja     a4bff0 <LZ4_decompress_safe_usingDict+0x2b0>
  a4c27d:	48 83 c3 08          	add    $0x8,%rbx
  a4c281:	4c 39 f3             	cmp    %r14,%rbx
  a4c284:	0f 82 27 03 00 00    	jb     a4c5b1 <LZ4_decompress_safe_usingDict+0x871>
  a4c28a:	48 39 df             	cmp    %rbx,%rdi
  a4c28d:	0f 86 08 fb ff ff    	jbe    a4bd9b <LZ4_decompress_safe_usingDict+0x5b>
  a4c293:	49 89 ff             	mov    %rdi,%r15
  a4c296:	31 c9                	xor    %ecx,%ecx
  a4c298:	49 29 df             	sub    %rbx,%r15
  a4c29b:	0f 1f 44 00 00       	nopl   0x0(%rax,%rax,1)
  a4c2a0:	0f b6 34 08          	movzbl (%rax,%rcx,1),%esi
  a4c2a4:	40 88 34 0b          	mov    %sil,(%rbx,%rcx,1)
  a4c2a8:	48 83 c1 01          	add    $0x1,%rcx
  a4c2ac:	49 39 cf             	cmp    %rcx,%r15
  a4c2af:	75 ef                	jne    a4c2a0 <LZ4_decompress_safe_usingDict+0x560>
  a4c2b1:	e9 e5 fa ff ff       	jmpq   a4bd9b <LZ4_decompress_safe_usingDict+0x5b>
  a4c2b6:	44 0f b6 38          	movzbl (%rax),%r15d
  a4c2ba:	44 88 3b             	mov    %r15b,(%rbx)
  a4c2bd:	44 0f b6 78 01       	movzbl 0x1(%rax),%r15d
  a4c2c2:	44 88 7b 01          	mov    %r15b,0x1(%rbx)
  a4c2c6:	44 0f b6 78 02       	movzbl 0x2(%rax),%r15d
  a4c2cb:	44 88 7b 02          	mov    %r15b,0x2(%rbx)
  a4c2cf:	44 0f b6 78 03       	movzbl 0x3(%rax),%r15d
  a4c2d4:	44 88 7b 03          	mov    %r15b,0x3(%rbx)
  a4c2d8:	4c 8d 3d c1 7c 00 00 	lea    0x7cc1(%rip),%r15        # a53fa0 <dec32table.3>
  a4c2df:	45 8b 3c b7          	mov    (%r15,%rsi,4),%r15d
  a4c2e3:	4c 01 f8             	add    %r15,%rax
  a4c2e6:	44 8b 38             	mov    (%rax),%r15d
  a4c2e9:	44 89 7b 04          	mov    %r15d,0x4(%rbx)
  a4c2ed:	4c 8d 3d cc 7c 00 00 	lea    0x7ccc(%rip),%r15        # a53fc0 <dec64table.4>
  a4c2f4:	49 63 34 b7          	movslq (%r15,%rsi,4),%rsi
  a4c2f8:	48 29 f0             	sub    %rsi,%rax
  a4c2fb:	e9 2b fb ff ff       	jmpq   a4be2b <LZ4_decompress_safe_usingDict+0xeb>
  a4c300:	48 89 df             	mov    %rbx,%rdi
  a4c303:	48 01 cf             	add    %rcx,%rdi
  a4c306:	0f 83 03 fb ff ff    	jae    a4be0f <LZ4_decompress_safe_usingDict+0xcf>
  a4c30c:	e9 df fc ff ff       	jmpq   a4bff0 <LZ4_decompress_safe_usingDict+0x2b0>
  a4c311:	48 89 f8             	mov    %rdi,%rax
  a4c314:	48 01 d0             	add    %rdx,%rax
  a4c317:	0f 83 17 fc ff ff    	jae    a4bf34 <LZ4_decompress_safe_usingDict+0x1f4>
  a4c31d:	e9 ce fc ff ff       	jmpq   a4bff0 <LZ4_decompress_safe_usingDict+0x2b0>
  a4c322:	85 c0                	test   %eax,%eax
  a4c324:	0f 84 e7 fe ff ff    	je     a4c211 <LZ4_decompress_safe_usingDict+0x4d1>
  a4c32a:	48 8d 42 fb          	lea    -0x5(%rdx),%rax
  a4c32e:	4d 8d 55 f1          	lea    -0xf(%r13),%r10
  a4c332:	48 89 44 24 08       	mov    %rax,0x8(%rsp)
  a4c337:	4c 8d 4a f4          	lea    -0xc(%rdx),%r9
  a4c33b:	4d 8d 75 f8          	lea    -0x8(%r13),%r14
  a4c33f:	4d 8d 5d fc          	lea    -0x4(%r13),%r11
  a4c343:	4c 8d 7a f9          	lea    -0x7(%rdx),%r15
  a4c347:	0f b6 45 00          	movzbl 0x0(%rbp),%eax
  a4c34b:	48 8d 75 01          	lea    0x1(%rbp),%rsi
  a4c34f:	89 c7                	mov    %eax,%edi
  a4c351:	c1 e8 04             	shr    $0x4,%eax
  a4c354:	89 c1                	mov    %eax,%ecx
  a4c356:	83 f8 0f             	cmp    $0xf,%eax
  a4c359:	0f 84 d6 01 00 00    	je     a4c535 <LZ4_decompress_safe_usingDict+0x7f5>
  a4c35f:	49 8d 1c 0c          	lea    (%r12,%rcx,1),%rbx
  a4c363:	48 8d 2c 0e          	lea    (%rsi,%rcx,1),%rbp
  a4c367:	49 39 d9             	cmp    %rbx,%r9
  a4c36a:	0f 82 29 04 00 00    	jb     a4c799 <LZ4_decompress_safe_usingDict+0xa59>
  a4c370:	4c 39 f5             	cmp    %r14,%rbp
  a4c373:	0f 87 20 04 00 00    	ja     a4c799 <LZ4_decompress_safe_usingDict+0xa59>
  a4c379:	0f 1f 80 00 00 00 00 	nopl   0x0(%rax)
  a4c380:	48 8b 06             	mov    (%rsi),%rax
  a4c383:	49 83 c4 08          	add    $0x8,%r12
  a4c387:	48 83 c6 08          	add    $0x8,%rsi
  a4c38b:	49 89 44 24 f8       	mov    %rax,-0x8(%r12)
  a4c390:	49 39 dc             	cmp    %rbx,%r12
  a4c393:	72 eb                	jb     a4c380 <LZ4_decompress_safe_usingDict+0x640>
  a4c395:	0f b7 4d 00          	movzwl 0x0(%rbp),%ecx
  a4c399:	48 89 de             	mov    %rbx,%rsi
  a4c39c:	48 83 c5 02          	add    $0x2,%rbp
  a4c3a0:	48 29 ce             	sub    %rcx,%rsi
  a4c3a3:	49 39 f0             	cmp    %rsi,%r8
  a4c3a6:	0f 87 44 fc ff ff    	ja     a4bff0 <LZ4_decompress_safe_usingDict+0x2b0>
  a4c3ac:	41 89 fc             	mov    %edi,%r12d
  a4c3af:	48 89 f8             	mov    %rdi,%rax
  a4c3b2:	89 0b                	mov    %ecx,(%rbx)
  a4c3b4:	41 83 e4 0f          	and    $0xf,%r12d
  a4c3b8:	83 e0 0f             	and    $0xf,%eax
  a4c3bb:	41 80 fc 0f          	cmp    $0xf,%r12b
  a4c3bf:	0f 84 4e 02 00 00    	je     a4c613 <LZ4_decompress_safe_usingDict+0x8d3>
  a4c3c5:	48 8d 78 04          	lea    0x4(%rax),%rdi
  a4c3c9:	4c 8d 24 3b          	lea    (%rbx,%rdi,1),%r12
  a4c3cd:	48 83 f9 07          	cmp    $0x7,%rcx
  a4c3d1:	0f 86 2f 03 00 00    	jbe    a4c706 <LZ4_decompress_safe_usingDict+0x9c6>
  a4c3d7:	48 8b 06             	mov    (%rsi),%rax
  a4c3da:	48 89 03             	mov    %rax,(%rbx)
  a4c3dd:	48 8d 46 08          	lea    0x8(%rsi),%rax
  a4c3e1:	4d 39 e1             	cmp    %r12,%r9
  a4c3e4:	0f 82 dc 02 00 00    	jb     a4c6c6 <LZ4_decompress_safe_usingDict+0x986>
  a4c3ea:	48 8b 08             	mov    (%rax),%rcx
  a4c3ed:	48 89 4b 08          	mov    %rcx,0x8(%rbx)
  a4c3f1:	48 83 ff 10          	cmp    $0x10,%rdi
  a4c3f5:	0f 86 4c ff ff ff    	jbe    a4c347 <LZ4_decompress_safe_usingDict+0x607>
  a4c3fb:	48 83 c0 08          	add    $0x8,%rax
  a4c3ff:	48 83 c3 10          	add    $0x10,%rbx
  a4c403:	0f 1f 44 00 00       	nopl   0x0(%rax,%rax,1)
  a4c408:	48 8b 08             	mov    (%rax),%rcx
  a4c40b:	48 83 c3 08          	add    $0x8,%rbx
  a4c40f:	48 83 c0 08          	add    $0x8,%rax
  a4c413:	48 89 4b f8          	mov    %rcx,-0x8(%rbx)
  a4c417:	49 39 dc             	cmp    %rbx,%r12
  a4c41a:	77 ec                	ja     a4c408 <LZ4_decompress_safe_usingDict+0x6c8>
  a4c41c:	e9 26 ff ff ff       	jmpq   a4c347 <LZ4_decompress_safe_usingDict+0x607>
  a4c421:	48 39 da             	cmp    %rbx,%rdx
  a4c424:	0f 82 c6 fb ff ff    	jb     a4bff0 <LZ4_decompress_safe_usingDict+0x2b0>
  a4c42a:	4c 39 ed             	cmp    %r13,%rbp
  a4c42d:	0f 85 bd fb ff ff    	jne    a4bff0 <LZ4_decompress_safe_usingDict+0x2b0>
  a4c433:	4c 89 fa             	mov    %r15,%rdx
  a4c436:	e8 85 18 00 00       	callq  a4dcc0 <memcpy>
  a4c43b:	89 d8                	mov    %ebx,%eax
  a4c43d:	44 29 e0             	sub    %r12d,%eax
  a4c440:	e9 b0 fb ff ff       	jmpq   a4bff5 <LZ4_decompress_safe_usingDict+0x2b5>
  a4c445:	49 8d 57 fb          	lea    -0x5(%r15),%rdx
  a4c449:	48 39 d3             	cmp    %rdx,%rbx
  a4c44c:	0f 87 9e fb ff ff    	ja     a4bff0 <LZ4_decompress_safe_usingDict+0x2b0>
  a4c452:	48 83 c7 08          	add    $0x8,%rdi
  a4c456:	48 3b 7c 24 28       	cmp    0x28(%rsp),%rdi
  a4c45b:	0f 82 9f 00 00 00    	jb     a4c500 <LZ4_decompress_safe_usingDict+0x7c0>
  a4c461:	48 39 fb             	cmp    %rdi,%rbx
  a4c464:	0f 86 41 fa ff ff    	jbe    a4beab <LZ4_decompress_safe_usingDict+0x16b>
  a4c46a:	48 89 de             	mov    %rbx,%rsi
  a4c46d:	31 d2                	xor    %edx,%edx
  a4c46f:	48 29 fe             	sub    %rdi,%rsi
  a4c472:	66 0f 1f 44 00 00    	nopw   0x0(%rax,%rax,1)
  a4c478:	0f b6 0c 10          	movzbl (%rax,%rdx,1),%ecx
  a4c47c:	88 0c 17             	mov    %cl,(%rdi,%rdx,1)
  a4c47f:	48 83 c2 01          	add    $0x1,%rdx
  a4c483:	48 39 d6             	cmp    %rdx,%rsi
  a4c486:	75 f0                	jne    a4c478 <LZ4_decompress_safe_usingDict+0x738>
  a4c488:	e9 1e fa ff ff       	jmpq   a4beab <LZ4_decompress_safe_usingDict+0x16b>
  a4c48d:	0f b6 06             	movzbl (%rsi),%eax
  a4c490:	88 07                	mov    %al,(%rdi)
  a4c492:	0f b6 46 01          	movzbl 0x1(%rsi),%eax
  a4c496:	88 47 01             	mov    %al,0x1(%rdi)
  a4c499:	0f b6 46 02          	movzbl 0x2(%rsi),%eax
  a4c49d:	88 47 02             	mov    %al,0x2(%rdi)
  a4c4a0:	0f b6 46 03          	movzbl 0x3(%rsi),%eax
  a4c4a4:	88 47 03             	mov    %al,0x3(%rdi)
  a4c4a7:	48 8d 05 f2 7a 00 00 	lea    0x7af2(%rip),%rax        # a53fa0 <dec32table.3>
  a4c4ae:	42 8b 04 80          	mov    (%rax,%r8,4),%eax
  a4c4b2:	48 01 f0             	add    %rsi,%rax
  a4c4b5:	8b 30                	mov    (%rax),%esi
  a4c4b7:	89 77 04             	mov    %esi,0x4(%rdi)
  a4c4ba:	48 8d 35 ff 7a 00 00 	lea    0x7aff(%rip),%rsi        # a53fc0 <dec64table.4>
  a4c4c1:	4a 63 34 86          	movslq (%rsi,%r8,4),%rsi
  a4c4c5:	48 29 f0             	sub    %rsi,%rax
  a4c4c8:	e9 4f fb ff ff       	jmpq   a4c01c <LZ4_decompress_safe_usingDict+0x2dc>
  a4c4cd:	49 89 fe             	mov    %rdi,%r14
  a4c4d0:	48 89 c2             	mov    %rax,%rdx
  a4c4d3:	49 39 ed             	cmp    %rbp,%r13
  a4c4d6:	0f 85 14 fb ff ff    	jne    a4bff0 <LZ4_decompress_safe_usingDict+0x2b0>
  a4c4dc:	4c 39 ff             	cmp    %r15,%rdi
  a4c4df:	0f 87 0b fb ff ff    	ja     a4bff0 <LZ4_decompress_safe_usingDict+0x2b0>
  a4c4e5:	48 89 df             	mov    %rbx,%rdi
  a4c4e8:	e8 d3 17 00 00       	callq  a4dcc0 <memcpy>
  a4c4ed:	44 89 f0             	mov    %r14d,%eax
  a4c4f0:	44 29 e0             	sub    %r12d,%eax
  a4c4f3:	e9 fd fa ff ff       	jmpq   a4bff5 <LZ4_decompress_safe_usingDict+0x2b5>
  a4c4f8:	48 89 fb             	mov    %rdi,%rbx
  a4c4fb:	e9 ab f9 ff ff       	jmpq   a4beab <LZ4_decompress_safe_usingDict+0x16b>
  a4c500:	4c 8b 44 24 28       	mov    0x28(%rsp),%r8
  a4c505:	48 89 c1             	mov    %rax,%rcx
  a4c508:	48 89 fa             	mov    %rdi,%rdx
  a4c50b:	48 8b 31             	mov    (%rcx),%rsi
  a4c50e:	48 83 c2 08          	add    $0x8,%rdx
  a4c512:	48 83 c1 08          	add    $0x8,%rcx
  a4c516:	48 89 72 f8          	mov    %rsi,-0x8(%rdx)
  a4c51a:	49 39 d0             	cmp    %rdx,%r8
  a4c51d:	77 ec                	ja     a4c50b <LZ4_decompress_safe_usingDict+0x7cb>
  a4c51f:	48 8b 4c 24 28       	mov    0x28(%rsp),%rcx
  a4c524:	48 89 ca             	mov    %rcx,%rdx
  a4c527:	48 29 fa             	sub    %rdi,%rdx
  a4c52a:	48 89 cf             	mov    %rcx,%rdi
  a4c52d:	48 01 d0             	add    %rdx,%rax
  a4c530:	e9 2c ff ff ff       	jmpq   a4c461 <LZ4_decompress_safe_usingDict+0x721>
  a4c535:	b9 0f 00 00 00       	mov    $0xf,%ecx
  a4c53a:	eb 09                	jmp    a4c545 <LZ4_decompress_safe_usingDict+0x805>
  a4c53c:	0f 1f 40 00          	nopl   0x0(%rax)
  a4c540:	80 fb ff             	cmp    $0xff,%bl
  a4c543:	75 0f                	jne    a4c554 <LZ4_decompress_safe_usingDict+0x814>
  a4c545:	0f b6 1e             	movzbl (%rsi),%ebx
  a4c548:	48 83 c6 01          	add    $0x1,%rsi
  a4c54c:	48 01 d9             	add    %rbx,%rcx
  a4c54f:	4c 39 d6             	cmp    %r10,%rsi
  a4c552:	72 ec                	jb     a4c540 <LZ4_decompress_safe_usingDict+0x800>
  a4c554:	4c 89 e3             	mov    %r12,%rbx
  a4c557:	48 01 cb             	add    %rcx,%rbx
  a4c55a:	0f 82 90 fa ff ff    	jb     a4bff0 <LZ4_decompress_safe_usingDict+0x2b0>
  a4c560:	48 89 f5             	mov    %rsi,%rbp
  a4c563:	48 01 cd             	add    %rcx,%rbp
  a4c566:	0f 83 fb fd ff ff    	jae    a4c367 <LZ4_decompress_safe_usingDict+0x627>
  a4c56c:	e9 7f fa ff ff       	jmpq   a4bff0 <LZ4_decompress_safe_usingDict+0x2b0>
  a4c571:	0f 1f 80 00 00 00 00 	nopl   0x0(%rax)
  a4c578:	b9 0f 00 00 00       	mov    $0xf,%ecx
  a4c57d:	eb 06                	jmp    a4c585 <LZ4_decompress_safe_usingDict+0x845>
  a4c57f:	90                   	nop
  a4c580:	80 fb ff             	cmp    $0xff,%bl
  a4c583:	75 0f                	jne    a4c594 <LZ4_decompress_safe_usingDict+0x854>
  a4c585:	0f b6 1e             	movzbl (%rsi),%ebx
  a4c588:	48 83 c6 01          	add    $0x1,%rsi
  a4c58c:	48 01 d9             	add    %rbx,%rcx
  a4c58f:	4c 39 d6             	cmp    %r10,%rsi
  a4c592:	72 ec                	jb     a4c580 <LZ4_decompress_safe_usingDict+0x840>
  a4c594:	4c 89 e3             	mov    %r12,%rbx
  a4c597:	48 01 cb             	add    %rcx,%rbx
  a4c59a:	0f 82 50 fa ff ff    	jb     a4bff0 <LZ4_decompress_safe_usingDict+0x2b0>
  a4c5a0:	48 89 f5             	mov    %rsi,%rbp
  a4c5a3:	48 01 cd             	add    %rcx,%rbp
  a4c5a6:	0f 83 ab fb ff ff    	jae    a4c157 <LZ4_decompress_safe_usingDict+0x417>
  a4c5ac:	e9 3f fa ff ff       	jmpq   a4bff0 <LZ4_decompress_safe_usingDict+0x2b0>
  a4c5b1:	48 89 c6             	mov    %rax,%rsi
  a4c5b4:	48 89 d9             	mov    %rbx,%rcx
  a4c5b7:	66 0f 1f 84 00 00 00 	nopw   0x0(%rax,%rax,1)
  a4c5be:	00 00 
  a4c5c0:	4c 8b 3e             	mov    (%rsi),%r15
  a4c5c3:	48 83 c1 08          	add    $0x8,%rcx
  a4c5c7:	48 83 c6 08          	add    $0x8,%rsi
  a4c5cb:	4c 89 79 f8          	mov    %r15,-0x8(%rcx)
  a4c5cf:	49 39 ce             	cmp    %rcx,%r14
  a4c5d2:	77 ec                	ja     a4c5c0 <LZ4_decompress_safe_usingDict+0x880>
  a4c5d4:	4c 89 f1             	mov    %r14,%rcx
  a4c5d7:	48 29 d9             	sub    %rbx,%rcx
  a4c5da:	4c 89 f3             	mov    %r14,%rbx
  a4c5dd:	48 01 c8             	add    %rcx,%rax
  a4c5e0:	e9 a5 fc ff ff       	jmpq   a4c28a <LZ4_decompress_safe_usingDict+0x54a>
  a4c5e5:	b8 0f 00 00 00       	mov    $0xf,%eax
  a4c5ea:	eb 15                	jmp    a4c601 <LZ4_decompress_safe_usingDict+0x8c1>
  a4c5ec:	0f 1f 40 00          	nopl   0x0(%rax)
  a4c5f0:	44 0f b6 e7          	movzbl %dil,%r12d
  a4c5f4:	4c 01 e0             	add    %r12,%rax
  a4c5f7:	40 80 ff ff          	cmp    $0xff,%dil
  a4c5fb:	0f 85 5f 01 00 00    	jne    a4c760 <LZ4_decompress_safe_usingDict+0xa20>
  a4c601:	48 83 c5 01          	add    $0x1,%rbp
  a4c605:	0f b6 7d ff          	movzbl -0x1(%rbp),%edi
  a4c609:	4c 39 dd             	cmp    %r11,%rbp
  a4c60c:	75 e2                	jne    a4c5f0 <LZ4_decompress_safe_usingDict+0x8b0>
  a4c60e:	e9 dd f9 ff ff       	jmpq   a4bff0 <LZ4_decompress_safe_usingDict+0x2b0>
  a4c613:	b8 0f 00 00 00       	mov    $0xf,%eax
  a4c618:	eb 17                	jmp    a4c631 <LZ4_decompress_safe_usingDict+0x8f1>
  a4c61a:	66 0f 1f 44 00 00    	nopw   0x0(%rax,%rax,1)
  a4c620:	44 0f b6 e7          	movzbl %dil,%r12d
  a4c624:	4c 01 e0             	add    %r12,%rax
  a4c627:	40 80 ff ff          	cmp    $0xff,%dil
  a4c62b:	0f 85 14 01 00 00    	jne    a4c745 <LZ4_decompress_safe_usingDict+0xa05>
  a4c631:	48 83 c5 01          	add    $0x1,%rbp
  a4c635:	0f b6 7d ff          	movzbl -0x1(%rbp),%edi
  a4c639:	49 39 eb             	cmp    %rbp,%r11
  a4c63c:	75 e2                	jne    a4c620 <LZ4_decompress_safe_usingDict+0x8e0>
  a4c63e:	e9 ad f9 ff ff       	jmpq   a4bff0 <LZ4_decompress_safe_usingDict+0x2b0>
  a4c643:	0f b6 06             	movzbl (%rsi),%eax
  a4c646:	88 03                	mov    %al,(%rbx)
  a4c648:	0f b6 46 01          	movzbl 0x1(%rsi),%eax
  a4c64c:	88 43 01             	mov    %al,0x1(%rbx)
  a4c64f:	0f b6 46 02          	movzbl 0x2(%rsi),%eax
  a4c653:	88 43 02             	mov    %al,0x2(%rbx)
  a4c656:	0f b6 46 03          	movzbl 0x3(%rsi),%eax
  a4c65a:	88 43 03             	mov    %al,0x3(%rbx)
  a4c65d:	48 8d 05 3c 79 00 00 	lea    0x793c(%rip),%rax        # a53fa0 <dec32table.3>
  a4c664:	8b 04 88             	mov    (%rax,%rcx,4),%eax
  a4c667:	48 01 f0             	add    %rsi,%rax
  a4c66a:	8b 30                	mov    (%rax),%esi
  a4c66c:	89 73 04             	mov    %esi,0x4(%rbx)
  a4c66f:	48 8d 35 4a 79 00 00 	lea    0x794a(%rip),%rsi        # a53fc0 <dec64table.4>
  a4c676:	48 63 0c 8e          	movslq (%rsi,%rcx,4),%rcx
  a4c67a:	48 29 c8             	sub    %rcx,%rax
  a4c67d:	e9 4f fb ff ff       	jmpq   a4c1d1 <LZ4_decompress_safe_usingDict+0x491>
  a4c682:	4c 3b 64 24 08       	cmp    0x8(%rsp),%r12
  a4c687:	0f 87 63 f9 ff ff    	ja     a4bff0 <LZ4_decompress_safe_usingDict+0x2b0>
  a4c68d:	48 83 c3 08          	add    $0x8,%rbx
  a4c691:	4c 39 fb             	cmp    %r15,%rbx
  a4c694:	0f 82 41 01 00 00    	jb     a4c7db <LZ4_decompress_safe_usingDict+0xa9b>
  a4c69a:	49 39 dc             	cmp    %rbx,%r12
  a4c69d:	0f 86 94 fa ff ff    	jbe    a4c137 <LZ4_decompress_safe_usingDict+0x3f7>
  a4c6a3:	4c 89 e7             	mov    %r12,%rdi
  a4c6a6:	31 c9                	xor    %ecx,%ecx
  a4c6a8:	48 29 df             	sub    %rbx,%rdi
  a4c6ab:	0f 1f 44 00 00       	nopl   0x0(%rax,%rax,1)
  a4c6b0:	0f b6 34 08          	movzbl (%rax,%rcx,1),%esi
  a4c6b4:	40 88 34 0b          	mov    %sil,(%rbx,%rcx,1)
  a4c6b8:	48 83 c1 01          	add    $0x1,%rcx
  a4c6bc:	48 39 cf             	cmp    %rcx,%rdi
  a4c6bf:	75 ef                	jne    a4c6b0 <LZ4_decompress_safe_usingDict+0x970>
  a4c6c1:	e9 71 fa ff ff       	jmpq   a4c137 <LZ4_decompress_safe_usingDict+0x3f7>
  a4c6c6:	4c 3b 64 24 08       	cmp    0x8(%rsp),%r12
  a4c6cb:	0f 87 1f f9 ff ff    	ja     a4bff0 <LZ4_decompress_safe_usingDict+0x2b0>
  a4c6d1:	48 83 c3 08          	add    $0x8,%rbx
  a4c6d5:	4c 39 fb             	cmp    %r15,%rbx
  a4c6d8:	0f 82 d2 00 00 00    	jb     a4c7b0 <LZ4_decompress_safe_usingDict+0xa70>
  a4c6de:	49 39 dc             	cmp    %rbx,%r12
  a4c6e1:	0f 86 60 fc ff ff    	jbe    a4c347 <LZ4_decompress_safe_usingDict+0x607>
  a4c6e7:	4c 89 e7             	mov    %r12,%rdi
  a4c6ea:	31 c9                	xor    %ecx,%ecx
  a4c6ec:	48 29 df             	sub    %rbx,%rdi
  a4c6ef:	90                   	nop
  a4c6f0:	0f b6 34 08          	movzbl (%rax,%rcx,1),%esi
  a4c6f4:	40 88 34 0b          	mov    %sil,(%rbx,%rcx,1)
  a4c6f8:	48 83 c1 01          	add    $0x1,%rcx
  a4c6fc:	48 39 cf             	cmp    %rcx,%rdi
  a4c6ff:	75 ef                	jne    a4c6f0 <LZ4_decompress_safe_usingDict+0x9b0>
  a4c701:	e9 41 fc ff ff       	jmpq   a4c347 <LZ4_decompress_safe_usingDict+0x607>
  a4c706:	0f b6 06             	movzbl (%rsi),%eax
  a4c709:	88 03                	mov    %al,(%rbx)
  a4c70b:	0f b6 46 01          	movzbl 0x1(%rsi),%eax
  a4c70f:	88 43 01             	mov    %al,0x1(%rbx)
  a4c712:	0f b6 46 02          	movzbl 0x2(%rsi),%eax
  a4c716:	88 43 02             	mov    %al,0x2(%rbx)
  a4c719:	0f b6 46 03          	movzbl 0x3(%rsi),%eax
  a4c71d:	88 43 03             	mov    %al,0x3(%rbx)
  a4c720:	48 8d 05 79 78 00 00 	lea    0x7879(%rip),%rax        # a53fa0 <dec32table.3>
  a4c727:	8b 04 88             	mov    (%rax,%rcx,4),%eax
  a4c72a:	48 01 f0             	add    %rsi,%rax
  a4c72d:	8b 30                	mov    (%rax),%esi
  a4c72f:	89 73 04             	mov    %esi,0x4(%rbx)
  a4c732:	48 8d 35 87 78 00 00 	lea    0x7887(%rip),%rsi        # a53fc0 <dec64table.4>
  a4c739:	48 63 0c 8e          	movslq (%rsi,%rcx,4),%rcx
  a4c73d:	48 29 c8             	sub    %rcx,%rax
  a4c740:	e9 9c fc ff ff       	jmpq   a4c3e1 <LZ4_decompress_safe_usingDict+0x6a1>
  a4c745:	48 89 df             	mov    %rbx,%rdi
  a4c748:	48 01 c7             	add    %rax,%rdi
  a4c74b:	0f 83 74 fc ff ff    	jae    a4c3c5 <LZ4_decompress_safe_usingDict+0x685>
  a4c751:	e9 9a f8 ff ff       	jmpq   a4bff0 <LZ4_decompress_safe_usingDict+0x2b0>
  a4c756:	66 2e 0f 1f 84 00 00 	nopw   %cs:0x0(%rax,%rax,1)
  a4c75d:	00 00 00 
  a4c760:	48 89 df             	mov    %rbx,%rdi
  a4c763:	48 01 c7             	add    %rax,%rdi
  a4c766:	0f 83 49 fa ff ff    	jae    a4c1b5 <LZ4_decompress_safe_usingDict+0x475>
  a4c76c:	e9 7f f8 ff ff       	jmpq   a4bff0 <LZ4_decompress_safe_usingDict+0x2b0>
  a4c771:	48 39 d3             	cmp    %rdx,%rbx
  a4c774:	0f 87 76 f8 ff ff    	ja     a4bff0 <LZ4_decompress_safe_usingDict+0x2b0>
  a4c77a:	4c 39 ed             	cmp    %r13,%rbp
  a4c77d:	0f 85 6d f8 ff ff    	jne    a4bff0 <LZ4_decompress_safe_usingDict+0x2b0>
  a4c783:	48 89 ca             	mov    %rcx,%rdx
  a4c786:	4c 89 e7             	mov    %r12,%rdi
  a4c789:	e8 32 15 00 00       	callq  a4dcc0 <memcpy>
  a4c78e:	89 d8                	mov    %ebx,%eax
  a4c790:	2b 44 24 10          	sub    0x10(%rsp),%eax
  a4c794:	e9 5c f8 ff ff       	jmpq   a4bff5 <LZ4_decompress_safe_usingDict+0x2b5>
  a4c799:	49 39 ed             	cmp    %rbp,%r13
  a4c79c:	0f 85 4e f8 ff ff    	jne    a4bff0 <LZ4_decompress_safe_usingDict+0x2b0>
  a4c7a2:	48 39 d3             	cmp    %rdx,%rbx
  a4c7a5:	76 dc                	jbe    a4c783 <LZ4_decompress_safe_usingDict+0xa43>
  a4c7a7:	e9 44 f8 ff ff       	jmpq   a4bff0 <LZ4_decompress_safe_usingDict+0x2b0>
  a4c7ac:	0f 1f 40 00          	nopl   0x0(%rax)
  a4c7b0:	48 89 c6             	mov    %rax,%rsi
  a4c7b3:	48 89 d9             	mov    %rbx,%rcx
  a4c7b6:	48 8b 3e             	mov    (%rsi),%rdi
  a4c7b9:	48 83 c1 08          	add    $0x8,%rcx
  a4c7bd:	48 83 c6 08          	add    $0x8,%rsi
  a4c7c1:	48 89 79 f8          	mov    %rdi,-0x8(%rcx)
  a4c7c5:	49 39 cf             	cmp    %rcx,%r15
  a4c7c8:	77 ec                	ja     a4c7b6 <LZ4_decompress_safe_usingDict+0xa76>
  a4c7ca:	4c 89 f9             	mov    %r15,%rcx
  a4c7cd:	48 29 d9             	sub    %rbx,%rcx
  a4c7d0:	4c 89 fb             	mov    %r15,%rbx
  a4c7d3:	48 01 c8             	add    %rcx,%rax
  a4c7d6:	e9 03 ff ff ff       	jmpq   a4c6de <LZ4_decompress_safe_usingDict+0x99e>
  a4c7db:	48 89 c6             	mov    %rax,%rsi
  a4c7de:	48 89 d9             	mov    %rbx,%rcx
  a4c7e1:	48 8b 3e             	mov    (%rsi),%rdi
  a4c7e4:	48 83 c1 08          	add    $0x8,%rcx
  a4c7e8:	48 83 c6 08          	add    $0x8,%rsi
  a4c7ec:	48 89 79 f8          	mov    %rdi,-0x8(%rcx)
  a4c7f0:	49 39 cf             	cmp    %rcx,%r15
  a4c7f3:	77 ec                	ja     a4c7e1 <LZ4_decompress_safe_usingDict+0xaa1>
  a4c7f5:	4c 89 f9             	mov    %r15,%rcx
  a4c7f8:	48 29 d9             	sub    %rbx,%rcx
  a4c7fb:	4c 89 fb             	mov    %r15,%rbx
  a4c7fe:	48 01 c8             	add    %rcx,%rax
  a4c801:	e9 94 fe ff ff       	jmpq   a4c69a <LZ4_decompress_safe_usingDict+0x95a>
  a4c806:	66 2e 0f 1f 84 00 00 	nopw   %cs:0x0(%rax,%rax,1)
  a4c80d:	00 00 00 

0000000000a4c810 <LZ4_decompress_fast_usingDict>:
  a4c810:	f3 0f 1e fa          	endbr64 
  a4c814:	41 57                	push   %r15
  a4c816:	44 89 c0             	mov    %r8d,%eax
  a4c819:	41 56                	push   %r14
  a4c81b:	41 55                	push   %r13
  a4c81d:	49 89 f5             	mov    %rsi,%r13
  a4c820:	48 63 f2             	movslq %edx,%rsi
  a4c823:	41 54                	push   %r12
  a4c825:	55                   	push   %rbp
  a4c826:	53                   	push   %rbx
  a4c827:	48 83 ec 28          	sub    $0x28,%rsp
  a4c82b:	44 0f b6 07          	movzbl (%rdi),%r8d
  a4c82f:	48 89 7c 24 08       	mov    %rdi,0x8(%rsp)
  a4c834:	85 c0                	test   %eax,%eax
  a4c836:	0f 85 3e 02 00 00    	jne    a4ca7a <LZ4_decompress_fast_usingDict+0x26a>
  a4c83c:	4d 8d 5c 35 00       	lea    0x0(%r13,%rsi,1),%r11
  a4c841:	85 d2                	test   %edx,%edx
  a4c843:	0f 84 2a 04 00 00    	je     a4cc73 <LZ4_decompress_fast_usingDict+0x463>
  a4c849:	49 89 fc             	mov    %rdi,%r12
  a4c84c:	49 8d 73 f8          	lea    -0x8(%r11),%rsi
  a4c850:	49 8d 7b f4          	lea    -0xc(%r11),%rdi
  a4c854:	4c 8d 3d 65 77 00 00 	lea    0x7765(%rip),%r15        # a53fc0 <dec64table.4>
  a4c85b:	4c 8d 35 3e 77 00 00 	lea    0x773e(%rip),%r14        # a53fa0 <dec32table.3>
  a4c862:	4d 8d 53 f9          	lea    -0x7(%r11),%r10
  a4c866:	49 8d 6b fb          	lea    -0x5(%r11),%rbp
  a4c86a:	66 0f 1f 44 00 00    	nopw   0x0(%rax,%rax,1)
  a4c870:	41 0f b6 c0          	movzbl %r8b,%eax
  a4c874:	49 83 c4 01          	add    $0x1,%r12
  a4c878:	c1 e8 04             	shr    $0x4,%eax
  a4c87b:	89 c3                	mov    %eax,%ebx
  a4c87d:	83 f8 0f             	cmp    $0xf,%eax
  a4c880:	0f 84 ca 00 00 00    	je     a4c950 <LZ4_decompress_fast_usingDict+0x140>
  a4c886:	49 8d 54 1d 00       	lea    0x0(%r13,%rbx,1),%rdx
  a4c88b:	48 39 f2             	cmp    %rsi,%rdx
  a4c88e:	0f 87 e3 00 00 00    	ja     a4c977 <LZ4_decompress_fast_usingDict+0x167>
  a4c894:	4c 89 e0             	mov    %r12,%rax
  a4c897:	66 0f 1f 84 00 00 00 	nopw   0x0(%rax,%rax,1)
  a4c89e:	00 00 
  a4c8a0:	48 8b 08             	mov    (%rax),%rcx
  a4c8a3:	49 83 c5 08          	add    $0x8,%r13
  a4c8a7:	48 83 c0 08          	add    $0x8,%rax
  a4c8ab:	49 89 4d f8          	mov    %rcx,-0x8(%r13)
  a4c8af:	4c 39 ea             	cmp    %r13,%rdx
  a4c8b2:	77 ec                	ja     a4c8a0 <LZ4_decompress_fast_usingDict+0x90>
  a4c8b4:	49 01 dc             	add    %rbx,%r12
  a4c8b7:	44 89 c1             	mov    %r8d,%ecx
  a4c8ba:	48 89 d0             	mov    %rdx,%rax
  a4c8bd:	41 83 e0 0f          	and    $0xf,%r8d
  a4c8c1:	45 0f b7 0c 24       	movzwl (%r12),%r9d
  a4c8c6:	83 e1 0f             	and    $0xf,%ecx
  a4c8c9:	49 83 c4 02          	add    $0x2,%r12
  a4c8cd:	44 89 0a             	mov    %r9d,(%rdx)
  a4c8d0:	4c 29 c8             	sub    %r9,%rax
  a4c8d3:	80 f9 0f             	cmp    $0xf,%cl
  a4c8d6:	0f 84 cc 00 00 00    	je     a4c9a8 <LZ4_decompress_fast_usingDict+0x198>
  a4c8dc:	49 83 c0 04          	add    $0x4,%r8
  a4c8e0:	4e 8d 2c 02          	lea    (%rdx,%r8,1),%r13
  a4c8e4:	49 83 f9 07          	cmp    $0x7,%r9
  a4c8e8:	0f 86 ea 00 00 00    	jbe    a4c9d8 <LZ4_decompress_fast_usingDict+0x1c8>
  a4c8ee:	48 8b 08             	mov    (%rax),%rcx
  a4c8f1:	48 83 c0 08          	add    $0x8,%rax
  a4c8f5:	48 89 0a             	mov    %rcx,(%rdx)
  a4c8f8:	49 39 fd             	cmp    %rdi,%r13
  a4c8fb:	0f 87 0f 01 00 00    	ja     a4ca10 <LZ4_decompress_fast_usingDict+0x200>
  a4c901:	48 8b 08             	mov    (%rax),%rcx
  a4c904:	48 89 4a 08          	mov    %rcx,0x8(%rdx)
  a4c908:	49 83 f8 10          	cmp    $0x10,%r8
  a4c90c:	77 12                	ja     a4c920 <LZ4_decompress_fast_usingDict+0x110>
  a4c90e:	45 0f b6 04 24       	movzbl (%r12),%r8d
  a4c913:	e9 58 ff ff ff       	jmpq   a4c870 <LZ4_decompress_fast_usingDict+0x60>
  a4c918:	0f 1f 84 00 00 00 00 	nopl   0x0(%rax,%rax,1)
  a4c91f:	00 
  a4c920:	48 83 c0 08          	add    $0x8,%rax
  a4c924:	48 83 c2 10          	add    $0x10,%rdx
  a4c928:	0f 1f 84 00 00 00 00 	nopl   0x0(%rax,%rax,1)
  a4c92f:	00 
  a4c930:	48 8b 08             	mov    (%rax),%rcx
  a4c933:	48 83 c2 08          	add    $0x8,%rdx
  a4c937:	48 83 c0 08          	add    $0x8,%rax
  a4c93b:	48 89 4a f8          	mov    %rcx,-0x8(%rdx)
  a4c93f:	49 39 d5             	cmp    %rdx,%r13
  a4c942:	77 ec                	ja     a4c930 <LZ4_decompress_fast_usingDict+0x120>
  a4c944:	eb c8                	jmp    a4c90e <LZ4_decompress_fast_usingDict+0xfe>
  a4c946:	66 2e 0f 1f 84 00 00 	nopw   %cs:0x0(%rax,%rax,1)
  a4c94d:	00 00 00 
  a4c950:	bb 0f 00 00 00       	mov    $0xf,%ebx
  a4c955:	0f 1f 00             	nopl   (%rax)
  a4c958:	41 0f b6 14 24       	movzbl (%r12),%edx
  a4c95d:	49 83 c4 01          	add    $0x1,%r12
  a4c961:	48 01 d3             	add    %rdx,%rbx
  a4c964:	80 fa ff             	cmp    $0xff,%dl
  a4c967:	74 ef                	je     a4c958 <LZ4_decompress_fast_usingDict+0x148>
  a4c969:	49 8d 54 1d 00       	lea    0x0(%r13,%rbx,1),%rdx
  a4c96e:	48 39 f2             	cmp    %rsi,%rdx
  a4c971:	0f 86 1d ff ff ff    	jbe    a4c894 <LZ4_decompress_fast_usingDict+0x84>
  a4c977:	49 39 d3             	cmp    %rdx,%r11
  a4c97a:	0f 85 01 03 00 00    	jne    a4cc81 <LZ4_decompress_fast_usingDict+0x471>
  a4c980:	48 89 da             	mov    %rbx,%rdx
  a4c983:	4c 89 e6             	mov    %r12,%rsi
  a4c986:	4c 89 ef             	mov    %r13,%rdi
  a4c989:	e8 32 13 00 00       	callq  a4dcc0 <memcpy>
  a4c98e:	49 8d 04 1c          	lea    (%r12,%rbx,1),%rax
  a4c992:	2b 44 24 08          	sub    0x8(%rsp),%eax
  a4c996:	48 83 c4 28          	add    $0x28,%rsp
  a4c99a:	5b                   	pop    %rbx
  a4c99b:	5d                   	pop    %rbp
  a4c99c:	41 5c                	pop    %r12
  a4c99e:	41 5d                	pop    %r13
  a4c9a0:	41 5e                	pop    %r14
  a4c9a2:	41 5f                	pop    %r15
  a4c9a4:	c3                   	retq   
  a4c9a5:	0f 1f 00             	nopl   (%rax)
  a4c9a8:	41 b8 0f 00 00 00    	mov    $0xf,%r8d
  a4c9ae:	66 90                	xchg   %ax,%ax
  a4c9b0:	41 0f b6 1c 24       	movzbl (%r12),%ebx
  a4c9b5:	49 83 c4 01          	add    $0x1,%r12
  a4c9b9:	49 01 d8             	add    %rbx,%r8
  a4c9bc:	80 fb ff             	cmp    $0xff,%bl
  a4c9bf:	74 ef                	je     a4c9b0 <LZ4_decompress_fast_usingDict+0x1a0>
  a4c9c1:	49 83 c0 04          	add    $0x4,%r8
  a4c9c5:	4e 8d 2c 02          	lea    (%rdx,%r8,1),%r13
  a4c9c9:	49 83 f9 07          	cmp    $0x7,%r9
  a4c9cd:	0f 87 1b ff ff ff    	ja     a4c8ee <LZ4_decompress_fast_usingDict+0xde>
  a4c9d3:	0f 1f 44 00 00       	nopl   0x0(%rax,%rax,1)
  a4c9d8:	0f b6 08             	movzbl (%rax),%ecx
  a4c9db:	88 0a                	mov    %cl,(%rdx)
  a4c9dd:	0f b6 48 01          	movzbl 0x1(%rax),%ecx
  a4c9e1:	88 4a 01             	mov    %cl,0x1(%rdx)
  a4c9e4:	0f b6 48 02          	movzbl 0x2(%rax),%ecx
  a4c9e8:	88 4a 02             	mov    %cl,0x2(%rdx)
  a4c9eb:	0f b6 48 03          	movzbl 0x3(%rax),%ecx
  a4c9ef:	88 4a 03             	mov    %cl,0x3(%rdx)
  a4c9f2:	43 8b 0c 8e          	mov    (%r14,%r9,4),%ecx
  a4c9f6:	48 01 c8             	add    %rcx,%rax
  a4c9f9:	8b 08                	mov    (%rax),%ecx
  a4c9fb:	89 4a 04             	mov    %ecx,0x4(%rdx)
  a4c9fe:	4b 63 0c 8f          	movslq (%r15,%r9,4),%rcx
  a4ca02:	48 29 c8             	sub    %rcx,%rax
  a4ca05:	49 39 fd             	cmp    %rdi,%r13
  a4ca08:	0f 86 f3 fe ff ff    	jbe    a4c901 <LZ4_decompress_fast_usingDict+0xf1>
  a4ca0e:	66 90                	xchg   %ax,%ax
  a4ca10:	49 39 ed             	cmp    %rbp,%r13
  a4ca13:	0f 87 68 02 00 00    	ja     a4cc81 <LZ4_decompress_fast_usingDict+0x471>
  a4ca19:	48 83 c2 08          	add    $0x8,%rdx
  a4ca1d:	4c 39 d2             	cmp    %r10,%rdx
  a4ca20:	72 2d                	jb     a4ca4f <LZ4_decompress_fast_usingDict+0x23f>
  a4ca22:	49 39 d5             	cmp    %rdx,%r13
  a4ca25:	0f 86 e3 fe ff ff    	jbe    a4c90e <LZ4_decompress_fast_usingDict+0xfe>
  a4ca2b:	4d 89 e9             	mov    %r13,%r9
  a4ca2e:	31 c9                	xor    %ecx,%ecx
  a4ca30:	49 29 d1             	sub    %rdx,%r9
  a4ca33:	0f 1f 44 00 00       	nopl   0x0(%rax,%rax,1)
  a4ca38:	44 0f b6 04 08       	movzbl (%rax,%rcx,1),%r8d
  a4ca3d:	44 88 04 0a          	mov    %r8b,(%rdx,%rcx,1)
  a4ca41:	48 83 c1 01          	add    $0x1,%rcx
  a4ca45:	49 39 c9             	cmp    %rcx,%r9
  a4ca48:	75 ee                	jne    a4ca38 <LZ4_decompress_fast_usingDict+0x228>
  a4ca4a:	e9 bf fe ff ff       	jmpq   a4c90e <LZ4_decompress_fast_usingDict+0xfe>
  a4ca4f:	49 89 c0             	mov    %rax,%r8
  a4ca52:	48 89 d1             	mov    %rdx,%rcx
  a4ca55:	0f 1f 00             	nopl   (%rax)
  a4ca58:	4d 8b 08             	mov    (%r8),%r9
  a4ca5b:	48 83 c1 08          	add    $0x8,%rcx
  a4ca5f:	49 83 c0 08          	add    $0x8,%r8
  a4ca63:	4c 89 49 f8          	mov    %r9,-0x8(%rcx)
  a4ca67:	49 39 ca             	cmp    %rcx,%r10
  a4ca6a:	77 ec                	ja     a4ca58 <LZ4_decompress_fast_usingDict+0x248>
  a4ca6c:	4c 89 d1             	mov    %r10,%rcx
  a4ca6f:	48 29 d1             	sub    %rdx,%rcx
  a4ca72:	4c 89 d2             	mov    %r10,%rdx
  a4ca75:	48 01 c8             	add    %rcx,%rax
  a4ca78:	eb a8                	jmp    a4ca22 <LZ4_decompress_fast_usingDict+0x212>
  a4ca7a:	4c 63 d0             	movslq %eax,%r10
  a4ca7d:	4a 8d 2c 11          	lea    (%rcx,%r10,1),%rbp
  a4ca81:	49 39 ed             	cmp    %rbp,%r13
  a4ca84:	0f 84 be 02 00 00    	je     a4cd48 <LZ4_decompress_fast_usingDict+0x538>
  a4ca8a:	49 8d 5c 35 00       	lea    0x0(%r13,%rsi,1),%rbx
  a4ca8f:	85 d2                	test   %edx,%edx
  a4ca91:	0f 84 dc 01 00 00    	je     a4cc73 <LZ4_decompress_fast_usingDict+0x463>
  a4ca97:	48 8d 43 f9          	lea    -0x7(%rbx),%rax
  a4ca9b:	48 89 6c 24 10       	mov    %rbp,0x10(%rsp)
  a4caa0:	4c 8d 63 f8          	lea    -0x8(%rbx),%r12
  a4caa4:	4d 89 ee             	mov    %r13,%r14
  a4caa7:	48 89 44 24 18       	mov    %rax,0x18(%rsp)
  a4caac:	4c 8b 7c 24 08       	mov    0x8(%rsp),%r15
  a4cab1:	0f 1f 80 00 00 00 00 	nopl   0x0(%rax)
  a4cab8:	41 0f b6 c0          	movzbl %r8b,%eax
  a4cabc:	49 83 c7 01          	add    $0x1,%r15
  a4cac0:	c1 e8 04             	shr    $0x4,%eax
  a4cac3:	89 c2                	mov    %eax,%edx
  a4cac5:	83 f8 0f             	cmp    $0xf,%eax
  a4cac8:	0f 84 77 01 00 00    	je     a4cc45 <LZ4_decompress_fast_usingDict+0x435>
  a4cace:	49 8d 3c 16          	lea    (%r14,%rdx,1),%rdi
  a4cad2:	4c 39 e7             	cmp    %r12,%rdi
  a4cad5:	0f 87 72 04 00 00    	ja     a4cf4d <LZ4_decompress_fast_usingDict+0x73d>
  a4cadb:	4c 89 f8             	mov    %r15,%rax
  a4cade:	66 90                	xchg   %ax,%ax
  a4cae0:	48 8b 08             	mov    (%rax),%rcx
  a4cae3:	49 83 c6 08          	add    $0x8,%r14
  a4cae7:	48 83 c0 08          	add    $0x8,%rax
  a4caeb:	49 89 4e f8          	mov    %rcx,-0x8(%r14)
  a4caef:	4c 39 f7             	cmp    %r14,%rdi
  a4caf2:	77 ec                	ja     a4cae0 <LZ4_decompress_fast_usingDict+0x2d0>
  a4caf4:	49 01 d7             	add    %rdx,%r15
  a4caf7:	44 89 c0             	mov    %r8d,%eax
  a4cafa:	49 89 fa             	mov    %rdi,%r10
  a4cafd:	4c 89 c2             	mov    %r8,%rdx
  a4cb00:	41 0f b7 37          	movzwl (%r15),%esi
  a4cb04:	83 e0 0f             	and    $0xf,%eax
  a4cb07:	49 83 c7 02          	add    $0x2,%r15
  a4cb0b:	83 e2 0f             	and    $0xf,%edx
  a4cb0e:	89 37                	mov    %esi,(%rdi)
  a4cb10:	49 29 f2             	sub    %rsi,%r10
  a4cb13:	3c 0f                	cmp    $0xf,%al
  a4cb15:	0f 84 06 01 00 00    	je     a4cc21 <LZ4_decompress_fast_usingDict+0x411>
  a4cb1b:	48 83 c2 04          	add    $0x4,%rdx
  a4cb1f:	4c 8d 34 17          	lea    (%rdi,%rdx,1),%r14
  a4cb23:	4d 39 d5             	cmp    %r10,%r13
  a4cb26:	0f 86 84 00 00 00    	jbe    a4cbb0 <LZ4_decompress_fast_usingDict+0x3a0>
  a4cb2c:	48 8d 43 fb          	lea    -0x5(%rbx),%rax
  a4cb30:	49 39 c6             	cmp    %rax,%r14
  a4cb33:	0f 87 48 01 00 00    	ja     a4cc81 <LZ4_decompress_fast_usingDict+0x471>
  a4cb39:	48 8b 74 24 10       	mov    0x10(%rsp),%rsi
  a4cb3e:	4c 89 e9             	mov    %r13,%rcx
  a4cb41:	4c 29 d1             	sub    %r10,%rcx
  a4cb44:	48 29 ce             	sub    %rcx,%rsi
  a4cb47:	48 39 ca             	cmp    %rcx,%rdx
  a4cb4a:	0f 86 15 01 00 00    	jbe    a4cc65 <LZ4_decompress_fast_usingDict+0x455>
  a4cb50:	48 29 ca             	sub    %rcx,%rdx
  a4cb53:	48 89 0c 24          	mov    %rcx,(%rsp)
  a4cb57:	48 89 d5             	mov    %rdx,%rbp
  a4cb5a:	48 89 ca             	mov    %rcx,%rdx
  a4cb5d:	e8 5e 11 00 00       	callq  a4dcc0 <memcpy>
  a4cb62:	48 8b 0c 24          	mov    (%rsp),%rcx
  a4cb66:	48 89 c7             	mov    %rax,%rdi
  a4cb69:	48 01 cf             	add    %rcx,%rdi
  a4cb6c:	48 89 f8             	mov    %rdi,%rax
  a4cb6f:	4c 29 e8             	sub    %r13,%rax
  a4cb72:	48 39 c5             	cmp    %rax,%rbp
  a4cb75:	0f 86 92 00 00 00    	jbe    a4cc0d <LZ4_decompress_fast_usingDict+0x3fd>
  a4cb7b:	49 39 fe             	cmp    %rdi,%r14
  a4cb7e:	0f 86 c1 03 00 00    	jbe    a4cf45 <LZ4_decompress_fast_usingDict+0x735>
  a4cb84:	31 c0                	xor    %eax,%eax
  a4cb86:	41 0f b6 54 05 00    	movzbl 0x0(%r13,%rax,1),%edx
  a4cb8c:	88 14 07             	mov    %dl,(%rdi,%rax,1)
  a4cb8f:	48 83 c0 01          	add    $0x1,%rax
  a4cb93:	48 39 c5             	cmp    %rax,%rbp
  a4cb96:	75 ee                	jne    a4cb86 <LZ4_decompress_fast_usingDict+0x376>
  a4cb98:	0f 1f 84 00 00 00 00 	nopl   0x0(%rax,%rax,1)
  a4cb9f:	00 
  a4cba0:	45 0f b6 07          	movzbl (%r15),%r8d
  a4cba4:	e9 0f ff ff ff       	jmpq   a4cab8 <LZ4_decompress_fast_usingDict+0x2a8>
  a4cba9:	0f 1f 80 00 00 00 00 	nopl   0x0(%rax)
  a4cbb0:	48 83 fe 07          	cmp    $0x7,%rsi
  a4cbb4:	0f 86 19 01 00 00    	jbe    a4ccd3 <LZ4_decompress_fast_usingDict+0x4c3>
  a4cbba:	49 8b 02             	mov    (%r10),%rax
  a4cbbd:	48 89 07             	mov    %rax,(%rdi)
  a4cbc0:	49 8d 42 08          	lea    0x8(%r10),%rax
  a4cbc4:	48 8d 4b f4          	lea    -0xc(%rbx),%rcx
  a4cbc8:	49 39 ce             	cmp    %rcx,%r14
  a4cbcb:	0f 87 c4 00 00 00    	ja     a4cc95 <LZ4_decompress_fast_usingDict+0x485>
  a4cbd1:	48 8b 08             	mov    (%rax),%rcx
  a4cbd4:	48 89 4f 08          	mov    %rcx,0x8(%rdi)
  a4cbd8:	48 83 fa 10          	cmp    $0x10,%rdx
  a4cbdc:	76 c2                	jbe    a4cba0 <LZ4_decompress_fast_usingDict+0x390>
  a4cbde:	48 83 c0 08          	add    $0x8,%rax
  a4cbe2:	48 83 c7 10          	add    $0x10,%rdi
  a4cbe6:	66 2e 0f 1f 84 00 00 	nopw   %cs:0x0(%rax,%rax,1)
  a4cbed:	00 00 00 
  a4cbf0:	48 8b 10             	mov    (%rax),%rdx
  a4cbf3:	48 83 c7 08          	add    $0x8,%rdi
  a4cbf7:	48 83 c0 08          	add    $0x8,%rax
  a4cbfb:	48 89 57 f8          	mov    %rdx,-0x8(%rdi)
  a4cbff:	4c 39 f7             	cmp    %r14,%rdi
  a4cc02:	72 ec                	jb     a4cbf0 <LZ4_decompress_fast_usingDict+0x3e0>
  a4cc04:	45 0f b6 07          	movzbl (%r15),%r8d
  a4cc08:	e9 ab fe ff ff       	jmpq   a4cab8 <LZ4_decompress_fast_usingDict+0x2a8>
  a4cc0d:	48 89 ea             	mov    %rbp,%rdx
  a4cc10:	4c 89 ee             	mov    %r13,%rsi
  a4cc13:	e8 a8 10 00 00       	callq  a4dcc0 <memcpy>
  a4cc18:	45 0f b6 07          	movzbl (%r15),%r8d
  a4cc1c:	e9 97 fe ff ff       	jmpq   a4cab8 <LZ4_decompress_fast_usingDict+0x2a8>
  a4cc21:	ba 0f 00 00 00       	mov    $0xf,%edx
  a4cc26:	66 2e 0f 1f 84 00 00 	nopw   %cs:0x0(%rax,%rax,1)
  a4cc2d:	00 00 00 
  a4cc30:	41 0f b6 0f          	movzbl (%r15),%ecx
  a4cc34:	49 83 c7 01          	add    $0x1,%r15
  a4cc38:	48 01 ca             	add    %rcx,%rdx
  a4cc3b:	80 f9 ff             	cmp    $0xff,%cl
  a4cc3e:	74 f0                	je     a4cc30 <LZ4_decompress_fast_usingDict+0x420>
  a4cc40:	e9 d6 fe ff ff       	jmpq   a4cb1b <LZ4_decompress_fast_usingDict+0x30b>
  a4cc45:	ba 0f 00 00 00       	mov    $0xf,%edx
  a4cc4a:	66 0f 1f 44 00 00    	nopw   0x0(%rax,%rax,1)
  a4cc50:	41 0f b6 0f          	movzbl (%r15),%ecx
  a4cc54:	49 83 c7 01          	add    $0x1,%r15
  a4cc58:	48 01 ca             	add    %rcx,%rdx
  a4cc5b:	80 f9 ff             	cmp    $0xff,%cl
  a4cc5e:	74 f0                	je     a4cc50 <LZ4_decompress_fast_usingDict+0x440>
  a4cc60:	e9 69 fe ff ff       	jmpq   a4cace <LZ4_decompress_fast_usingDict+0x2be>
  a4cc65:	e8 f6 0f 00 00       	callq  a4dc60 <memmove>
  a4cc6a:	45 0f b6 07          	movzbl (%r15),%r8d
  a4cc6e:	e9 45 fe ff ff       	jmpq   a4cab8 <LZ4_decompress_fast_usingDict+0x2a8>
  a4cc73:	b8 01 00 00 00       	mov    $0x1,%eax
  a4cc78:	45 84 c0             	test   %r8b,%r8b
  a4cc7b:	0f 84 15 fd ff ff    	je     a4c996 <LZ4_decompress_fast_usingDict+0x186>
  a4cc81:	48 83 c4 28          	add    $0x28,%rsp
  a4cc85:	b8 ff ff ff ff       	mov    $0xffffffff,%eax
  a4cc8a:	5b                   	pop    %rbx
  a4cc8b:	5d                   	pop    %rbp
  a4cc8c:	41 5c                	pop    %r12
  a4cc8e:	41 5d                	pop    %r13
  a4cc90:	41 5e                	pop    %r14
  a4cc92:	41 5f                	pop    %r15
  a4cc94:	c3                   	retq   
  a4cc95:	48 8d 53 fb          	lea    -0x5(%rbx),%rdx
  a4cc99:	49 39 d6             	cmp    %rdx,%r14
  a4cc9c:	77 e3                	ja     a4cc81 <LZ4_decompress_fast_usingDict+0x471>
  a4cc9e:	48 83 c7 08          	add    $0x8,%rdi
  a4cca2:	48 3b 7c 24 18       	cmp    0x18(%rsp),%rdi
  a4cca7:	72 6d                	jb     a4cd16 <LZ4_decompress_fast_usingDict+0x506>
  a4cca9:	4c 39 f7             	cmp    %r14,%rdi
  a4ccac:	0f 83 ee fe ff ff    	jae    a4cba0 <LZ4_decompress_fast_usingDict+0x390>
  a4ccb2:	4c 89 f6             	mov    %r14,%rsi
  a4ccb5:	31 d2                	xor    %edx,%edx
  a4ccb7:	48 29 fe             	sub    %rdi,%rsi
  a4ccba:	0f b6 0c 10          	movzbl (%rax,%rdx,1),%ecx
  a4ccbe:	88 0c 17             	mov    %cl,(%rdi,%rdx,1)
  a4ccc1:	48 83 c2 01          	add    $0x1,%rdx
  a4ccc5:	48 39 d6             	cmp    %rdx,%rsi
  a4ccc8:	75 f0                	jne    a4ccba <LZ4_decompress_fast_usingDict+0x4aa>
  a4ccca:	45 0f b6 07          	movzbl (%r15),%r8d
  a4ccce:	e9 e5 fd ff ff       	jmpq   a4cab8 <LZ4_decompress_fast_usingDict+0x2a8>
  a4ccd3:	41 0f b6 02          	movzbl (%r10),%eax
  a4ccd7:	88 07                	mov    %al,(%rdi)
  a4ccd9:	41 0f b6 42 01       	movzbl 0x1(%r10),%eax
  a4ccde:	88 47 01             	mov    %al,0x1(%rdi)
  a4cce1:	41 0f b6 42 02       	movzbl 0x2(%r10),%eax
  a4cce6:	88 47 02             	mov    %al,0x2(%rdi)
  a4cce9:	41 0f b6 42 03       	movzbl 0x3(%r10),%eax
  a4ccee:	88 47 03             	mov    %al,0x3(%rdi)
  a4ccf1:	48 8d 05 a8 72 00 00 	lea    0x72a8(%rip),%rax        # a53fa0 <dec32table.3>
  a4ccf8:	8b 04 b0             	mov    (%rax,%rsi,4),%eax
  a4ccfb:	4c 01 d0             	add    %r10,%rax
  a4ccfe:	8b 08                	mov    (%rax),%ecx
  a4cd00:	89 4f 04             	mov    %ecx,0x4(%rdi)
  a4cd03:	48 8d 0d b6 72 00 00 	lea    0x72b6(%rip),%rcx        # a53fc0 <dec64table.4>
  a4cd0a:	48 63 0c b1          	movslq (%rcx,%rsi,4),%rcx
  a4cd0e:	48 29 c8             	sub    %rcx,%rax
  a4cd11:	e9 ae fe ff ff       	jmpq   a4cbc4 <LZ4_decompress_fast_usingDict+0x3b4>
  a4cd16:	48 89 c1             	mov    %rax,%rcx
  a4cd19:	48 89 fa             	mov    %rdi,%rdx
  a4cd1c:	48 8b 31             	mov    (%rcx),%rsi
  a4cd1f:	48 83 c2 08          	add    $0x8,%rdx
  a4cd23:	48 83 c1 08          	add    $0x8,%rcx
  a4cd27:	48 89 72 f8          	mov    %rsi,-0x8(%rdx)
  a4cd2b:	48 39 54 24 18       	cmp    %rdx,0x18(%rsp)
  a4cd30:	77 ea                	ja     a4cd1c <LZ4_decompress_fast_usingDict+0x50c>
  a4cd32:	48 8b 74 24 18       	mov    0x18(%rsp),%rsi
  a4cd37:	48 89 f2             	mov    %rsi,%rdx
  a4cd3a:	48 29 fa             	sub    %rdi,%rdx
  a4cd3d:	48 89 f7             	mov    %rsi,%rdi
  a4cd40:	48 01 d0             	add    %rdx,%rax
  a4cd43:	e9 61 ff ff ff       	jmpq   a4cca9 <LZ4_decompress_fast_usingDict+0x499>
  a4cd48:	48 01 ee             	add    %rbp,%rsi
  a4cd4b:	3d fe ff 00 00       	cmp    $0xfffe,%eax
  a4cd50:	0f 8e 55 02 00 00    	jle    a4cfab <LZ4_decompress_fast_usingDict+0x79b>
  a4cd56:	85 d2                	test   %edx,%edx
  a4cd58:	0f 84 15 ff ff ff    	je     a4cc73 <LZ4_decompress_fast_usingDict+0x463>
  a4cd5e:	48 8b 5c 24 08       	mov    0x8(%rsp),%rbx
  a4cd63:	4c 8d 4e f8          	lea    -0x8(%rsi),%r9
  a4cd67:	48 8d 7e f4          	lea    -0xc(%rsi),%rdi
  a4cd6b:	4c 8d 3d 4e 72 00 00 	lea    0x724e(%rip),%r15        # a53fc0 <dec64table.4>
  a4cd72:	4c 8d 35 27 72 00 00 	lea    0x7227(%rip),%r14        # a53fa0 <dec32table.3>
  a4cd79:	4c 8d 5e f9          	lea    -0x7(%rsi),%r11
  a4cd7d:	4c 8d 6e fb          	lea    -0x5(%rsi),%r13
  a4cd81:	0f 1f 80 00 00 00 00 	nopl   0x0(%rax)
  a4cd88:	41 0f b6 c0          	movzbl %r8b,%eax
  a4cd8c:	48 83 c3 01          	add    $0x1,%rbx
  a4cd90:	c1 e8 04             	shr    $0x4,%eax
  a4cd93:	41 89 c4             	mov    %eax,%r12d
  a4cd96:	83 f8 0f             	cmp    $0xf,%eax
  a4cd99:	0f 84 a7 00 00 00    	je     a4ce46 <LZ4_decompress_fast_usingDict+0x636>
  a4cd9f:	4a 8d 54 25 00       	lea    0x0(%rbp,%r12,1),%rdx
  a4cda4:	4c 39 ca             	cmp    %r9,%rdx
  a4cda7:	0f 87 6a 01 00 00    	ja     a4cf17 <LZ4_decompress_fast_usingDict+0x707>
  a4cdad:	48 89 d8             	mov    %rbx,%rax
  a4cdb0:	48 8b 08             	mov    (%rax),%rcx
  a4cdb3:	48 83 c5 08          	add    $0x8,%rbp
  a4cdb7:	48 83 c0 08          	add    $0x8,%rax
  a4cdbb:	48 89 4d f8          	mov    %rcx,-0x8(%rbp)
  a4cdbf:	48 39 ea             	cmp    %rbp,%rdx
  a4cdc2:	77 ec                	ja     a4cdb0 <LZ4_decompress_fast_usingDict+0x5a0>
  a4cdc4:	4c 01 e3             	add    %r12,%rbx
  a4cdc7:	44 89 c0             	mov    %r8d,%eax
  a4cdca:	49 89 d4             	mov    %rdx,%r12
  a4cdcd:	4c 89 c1             	mov    %r8,%rcx
  a4cdd0:	44 0f b7 13          	movzwl (%rbx),%r10d
  a4cdd4:	83 e0 0f             	and    $0xf,%eax
  a4cdd7:	48 83 c3 02          	add    $0x2,%rbx
  a4cddb:	83 e1 0f             	and    $0xf,%ecx
  a4cdde:	44 89 12             	mov    %r10d,(%rdx)
  a4cde1:	4d 29 d4             	sub    %r10,%r12
  a4cde4:	3c 0f                	cmp    $0xf,%al
  a4cde6:	74 7c                	je     a4ce64 <LZ4_decompress_fast_usingDict+0x654>
  a4cde8:	48 83 c1 04          	add    $0x4,%rcx
  a4cdec:	48 8d 2c 0a          	lea    (%rdx,%rcx,1),%rbp
  a4cdf0:	49 83 fa 07          	cmp    $0x7,%r10
  a4cdf4:	0f 86 99 00 00 00    	jbe    a4ce93 <LZ4_decompress_fast_usingDict+0x683>
  a4cdfa:	49 8b 04 24          	mov    (%r12),%rax
  a4cdfe:	48 89 02             	mov    %rax,(%rdx)
  a4ce01:	49 8d 44 24 08       	lea    0x8(%r12),%rax
  a4ce06:	48 39 fd             	cmp    %rdi,%rbp
  a4ce09:	0f 87 c4 00 00 00    	ja     a4ced3 <LZ4_decompress_fast_usingDict+0x6c3>
  a4ce0f:	4c 8b 00             	mov    (%rax),%r8
  a4ce12:	4c 89 42 08          	mov    %r8,0x8(%rdx)
  a4ce16:	48 83 f9 10          	cmp    $0x10,%rcx
  a4ce1a:	77 09                	ja     a4ce25 <LZ4_decompress_fast_usingDict+0x615>
  a4ce1c:	44 0f b6 03          	movzbl (%rbx),%r8d
  a4ce20:	e9 63 ff ff ff       	jmpq   a4cd88 <LZ4_decompress_fast_usingDict+0x578>
  a4ce25:	48 83 c0 08          	add    $0x8,%rax
  a4ce29:	48 83 c2 10          	add    $0x10,%rdx
  a4ce2d:	0f 1f 00             	nopl   (%rax)
  a4ce30:	48 8b 08             	mov    (%rax),%rcx
  a4ce33:	48 83 c2 08          	add    $0x8,%rdx
  a4ce37:	48 83 c0 08          	add    $0x8,%rax
  a4ce3b:	48 89 4a f8          	mov    %rcx,-0x8(%rdx)
  a4ce3f:	48 39 d5             	cmp    %rdx,%rbp
  a4ce42:	77 ec                	ja     a4ce30 <LZ4_decompress_fast_usingDict+0x620>
  a4ce44:	eb d6                	jmp    a4ce1c <LZ4_decompress_fast_usingDict+0x60c>
  a4ce46:	41 bc 0f 00 00 00    	mov    $0xf,%r12d
  a4ce4c:	0f 1f 40 00          	nopl   0x0(%rax)
  a4ce50:	0f b6 13             	movzbl (%rbx),%edx
  a4ce53:	48 83 c3 01          	add    $0x1,%rbx
  a4ce57:	49 01 d4             	add    %rdx,%r12
  a4ce5a:	80 fa ff             	cmp    $0xff,%dl
  a4ce5d:	74 f1                	je     a4ce50 <LZ4_decompress_fast_usingDict+0x640>
  a4ce5f:	e9 3b ff ff ff       	jmpq   a4cd9f <LZ4_decompress_fast_usingDict+0x58f>
  a4ce64:	b9 0f 00 00 00       	mov    $0xf,%ecx
  a4ce69:	0f 1f 80 00 00 00 00 	nopl   0x0(%rax)
  a4ce70:	44 0f b6 03          	movzbl (%rbx),%r8d
  a4ce74:	48 83 c3 01          	add    $0x1,%rbx
  a4ce78:	4c 01 c1             	add    %r8,%rcx
  a4ce7b:	41 80 f8 ff          	cmp    $0xff,%r8b
  a4ce7f:	74 ef                	je     a4ce70 <LZ4_decompress_fast_usingDict+0x660>
  a4ce81:	48 83 c1 04          	add    $0x4,%rcx
  a4ce85:	48 8d 2c 0a          	lea    (%rdx,%rcx,1),%rbp
  a4ce89:	49 83 fa 07          	cmp    $0x7,%r10
  a4ce8d:	0f 87 67 ff ff ff    	ja     a4cdfa <LZ4_decompress_fast_usingDict+0x5ea>
  a4ce93:	41 0f b6 04 24       	movzbl (%r12),%eax
  a4ce98:	88 02                	mov    %al,(%rdx)
  a4ce9a:	41 0f b6 44 24 01    	movzbl 0x1(%r12),%eax
  a4cea0:	88 42 01             	mov    %al,0x1(%rdx)
  a4cea3:	41 0f b6 44 24 02    	movzbl 0x2(%r12),%eax
  a4cea9:	88 42 02             	mov    %al,0x2(%rdx)
  a4ceac:	41 0f b6 44 24 03    	movzbl 0x3(%r12),%eax
  a4ceb2:	88 42 03             	mov    %al,0x3(%rdx)
  a4ceb5:	43 8b 04 96          	mov    (%r14,%r10,4),%eax
  a4ceb9:	4c 01 e0             	add    %r12,%rax
  a4cebc:	44 8b 00             	mov    (%rax),%r8d
  a4cebf:	44 89 42 04          	mov    %r8d,0x4(%rdx)
  a4cec3:	4f 63 04 97          	movslq (%r15,%r10,4),%r8
  a4cec7:	4c 29 c0             	sub    %r8,%rax
  a4ceca:	48 39 fd             	cmp    %rdi,%rbp
  a4cecd:	0f 86 3c ff ff ff    	jbe    a4ce0f <LZ4_decompress_fast_usingDict+0x5ff>
  a4ced3:	4c 39 ed             	cmp    %r13,%rbp
  a4ced6:	0f 87 a5 fd ff ff    	ja     a4cc81 <LZ4_decompress_fast_usingDict+0x471>
  a4cedc:	48 83 c2 08          	add    $0x8,%rdx
  a4cee0:	4c 39 da             	cmp    %r11,%rdx
  a4cee3:	0f 82 97 00 00 00    	jb     a4cf80 <LZ4_decompress_fast_usingDict+0x770>
  a4cee9:	48 39 d5             	cmp    %rdx,%rbp
  a4ceec:	0f 86 2a ff ff ff    	jbe    a4ce1c <LZ4_decompress_fast_usingDict+0x60c>
  a4cef2:	49 89 ea             	mov    %rbp,%r10
  a4cef5:	31 c9                	xor    %ecx,%ecx
  a4cef7:	49 29 d2             	sub    %rdx,%r10
  a4cefa:	66 0f 1f 44 00 00    	nopw   0x0(%rax,%rax,1)
  a4cf00:	44 0f b6 04 08       	movzbl (%rax,%rcx,1),%r8d
  a4cf05:	44 88 04 0a          	mov    %r8b,(%rdx,%rcx,1)
  a4cf09:	48 83 c1 01          	add    $0x1,%rcx
  a4cf0d:	49 39 ca             	cmp    %rcx,%r10
  a4cf10:	75 ee                	jne    a4cf00 <LZ4_decompress_fast_usingDict+0x6f0>
  a4cf12:	e9 05 ff ff ff       	jmpq   a4ce1c <LZ4_decompress_fast_usingDict+0x60c>
  a4cf17:	48 39 f2             	cmp    %rsi,%rdx
  a4cf1a:	0f 85 61 fd ff ff    	jne    a4cc81 <LZ4_decompress_fast_usingDict+0x471>
  a4cf20:	4c 89 e2             	mov    %r12,%rdx
  a4cf23:	48 89 de             	mov    %rbx,%rsi
  a4cf26:	48 89 ef             	mov    %rbp,%rdi
  a4cf29:	e8 92 0d 00 00       	callq  a4dcc0 <memcpy>
  a4cf2e:	4a 8d 04 23          	lea    (%rbx,%r12,1),%rax
  a4cf32:	2b 44 24 08          	sub    0x8(%rsp),%eax
  a4cf36:	48 83 c4 28          	add    $0x28,%rsp
  a4cf3a:	5b                   	pop    %rbx
  a4cf3b:	5d                   	pop    %rbp
  a4cf3c:	41 5c                	pop    %r12
  a4cf3e:	41 5d                	pop    %r13
  a4cf40:	41 5e                	pop    %r14
  a4cf42:	41 5f                	pop    %r15
  a4cf44:	c3                   	retq   
  a4cf45:	49 89 fe             	mov    %rdi,%r14
  a4cf48:	e9 53 fc ff ff       	jmpq   a4cba0 <LZ4_decompress_fast_usingDict+0x390>
  a4cf4d:	48 39 fb             	cmp    %rdi,%rbx
  a4cf50:	0f 85 2b fd ff ff    	jne    a4cc81 <LZ4_decompress_fast_usingDict+0x471>
  a4cf56:	4c 89 fe             	mov    %r15,%rsi
  a4cf59:	4c 89 f7             	mov    %r14,%rdi
  a4cf5c:	48 89 54 24 10       	mov    %rdx,0x10(%rsp)
  a4cf61:	4c 89 3c 24          	mov    %r15,(%rsp)
  a4cf65:	e8 56 0d 00 00       	callq  a4dcc0 <memcpy>
  a4cf6a:	48 8b 0c 24          	mov    (%rsp),%rcx
  a4cf6e:	48 8b 54 24 10       	mov    0x10(%rsp),%rdx
  a4cf73:	48 8d 04 11          	lea    (%rcx,%rdx,1),%rax
  a4cf77:	2b 44 24 08          	sub    0x8(%rsp),%eax
  a4cf7b:	e9 16 fa ff ff       	jmpq   a4c996 <LZ4_decompress_fast_usingDict+0x186>
  a4cf80:	49 89 c0             	mov    %rax,%r8
  a4cf83:	48 89 d1             	mov    %rdx,%rcx
  a4cf86:	4d 8b 10             	mov    (%r8),%r10
  a4cf89:	48 83 c1 08          	add    $0x8,%rcx
  a4cf8d:	49 83 c0 08          	add    $0x8,%r8
  a4cf91:	4c 89 51 f8          	mov    %r10,-0x8(%rcx)
  a4cf95:	49 39 cb             	cmp    %rcx,%r11
  a4cf98:	77 ec                	ja     a4cf86 <LZ4_decompress_fast_usingDict+0x776>
  a4cf9a:	4c 89 d9             	mov    %r11,%rcx
  a4cf9d:	48 29 d1             	sub    %rdx,%rcx
  a4cfa0:	4c 89 da             	mov    %r11,%rdx
  a4cfa3:	48 01 c8             	add    %rcx,%rax
  a4cfa6:	e9 3e ff ff ff       	jmpq   a4cee9 <LZ4_decompress_fast_usingDict+0x6d9>
  a4cfab:	85 d2                	test   %edx,%edx
  a4cfad:	0f 84 c0 fc ff ff    	je     a4cc73 <LZ4_decompress_fast_usingDict+0x463>
  a4cfb3:	48 8b 5c 24 08       	mov    0x8(%rsp),%rbx
  a4cfb8:	4c 8d 4e f8          	lea    -0x8(%rsi),%r9
  a4cfbc:	48 8d 7e f4          	lea    -0xc(%rsi),%rdi
  a4cfc0:	4c 8d 3d f9 6f 00 00 	lea    0x6ff9(%rip),%r15        # a53fc0 <dec64table.4>
  a4cfc7:	4c 8d 35 d2 6f 00 00 	lea    0x6fd2(%rip),%r14        # a53fa0 <dec32table.3>
  a4cfce:	4c 8d 5e f9          	lea    -0x7(%rsi),%r11
  a4cfd2:	4c 8d 6e fb          	lea    -0x5(%rsi),%r13
  a4cfd6:	66 2e 0f 1f 84 00 00 	nopw   %cs:0x0(%rax,%rax,1)
  a4cfdd:	00 00 00 
  a4cfe0:	41 0f b6 c0          	movzbl %r8b,%eax
  a4cfe4:	48 83 c3 01          	add    $0x1,%rbx
  a4cfe8:	c1 e8 04             	shr    $0x4,%eax
  a4cfeb:	41 89 c4             	mov    %eax,%r12d
  a4cfee:	83 f8 0f             	cmp    $0xf,%eax
  a4cff1:	0f 84 af 00 00 00    	je     a4d0a6 <LZ4_decompress_fast_usingDict+0x896>
  a4cff7:	4a 8d 54 25 00       	lea    0x0(%rbp,%r12,1),%rdx
  a4cffc:	4c 39 ca             	cmp    %r9,%rdx
  a4cfff:	0f 87 12 ff ff ff    	ja     a4cf17 <LZ4_decompress_fast_usingDict+0x707>
  a4d005:	48 89 d8             	mov    %rbx,%rax
  a4d008:	0f 1f 84 00 00 00 00 	nopl   0x0(%rax,%rax,1)
  a4d00f:	00 
  a4d010:	48 8b 08             	mov    (%rax),%rcx
  a4d013:	48 83 c5 08          	add    $0x8,%rbp
  a4d017:	48 83 c0 08          	add    $0x8,%rax
  a4d01b:	48 89 4d f8          	mov    %rcx,-0x8(%rbp)
  a4d01f:	48 39 ea             	cmp    %rbp,%rdx
  a4d022:	77 ec                	ja     a4d010 <LZ4_decompress_fast_usingDict+0x800>
  a4d024:	4c 01 e3             	add    %r12,%rbx
  a4d027:	44 89 c0             	mov    %r8d,%eax
  a4d02a:	49 89 d4             	mov    %rdx,%r12
  a4d02d:	4c 89 c1             	mov    %r8,%rcx
  a4d030:	44 0f b7 13          	movzwl (%rbx),%r10d
  a4d034:	83 e0 0f             	and    $0xf,%eax
  a4d037:	48 83 c3 02          	add    $0x2,%rbx
  a4d03b:	83 e1 0f             	and    $0xf,%ecx
  a4d03e:	44 89 12             	mov    %r10d,(%rdx)
  a4d041:	4d 29 d4             	sub    %r10,%r12
  a4d044:	3c 0f                	cmp    $0xf,%al
  a4d046:	74 7c                	je     a4d0c4 <LZ4_decompress_fast_usingDict+0x8b4>
  a4d048:	48 83 c1 04          	add    $0x4,%rcx
  a4d04c:	48 8d 2c 0a          	lea    (%rdx,%rcx,1),%rbp
  a4d050:	49 83 fa 07          	cmp    $0x7,%r10
  a4d054:	0f 86 99 00 00 00    	jbe    a4d0f3 <LZ4_decompress_fast_usingDict+0x8e3>
  a4d05a:	49 8b 04 24          	mov    (%r12),%rax
  a4d05e:	48 89 02             	mov    %rax,(%rdx)
  a4d061:	49 8d 44 24 08       	lea    0x8(%r12),%rax
  a4d066:	48 39 fd             	cmp    %rdi,%rbp
  a4d069:	0f 87 c4 00 00 00    	ja     a4d133 <LZ4_decompress_fast_usingDict+0x923>
  a4d06f:	4c 8b 00             	mov    (%rax),%r8
  a4d072:	4c 89 42 08          	mov    %r8,0x8(%rdx)
  a4d076:	48 83 f9 10          	cmp    $0x10,%rcx
  a4d07a:	77 09                	ja     a4d085 <LZ4_decompress_fast_usingDict+0x875>
  a4d07c:	44 0f b6 03          	movzbl (%rbx),%r8d
  a4d080:	e9 5b ff ff ff       	jmpq   a4cfe0 <LZ4_decompress_fast_usingDict+0x7d0>
  a4d085:	48 83 c0 08          	add    $0x8,%rax
  a4d089:	48 83 c2 10          	add    $0x10,%rdx
  a4d08d:	0f 1f 00             	nopl   (%rax)
  a4d090:	48 8b 08             	mov    (%rax),%rcx
  a4d093:	48 83 c2 08          	add    $0x8,%rdx
  a4d097:	48 83 c0 08          	add    $0x8,%rax
  a4d09b:	48 89 4a f8          	mov    %rcx,-0x8(%rdx)
  a4d09f:	48 39 d5             	cmp    %rdx,%rbp
  a4d0a2:	77 ec                	ja     a4d090 <LZ4_decompress_fast_usingDict+0x880>
  a4d0a4:	eb d6                	jmp    a4d07c <LZ4_decompress_fast_usingDict+0x86c>
  a4d0a6:	41 bc 0f 00 00 00    	mov    $0xf,%r12d
  a4d0ac:	0f 1f 40 00          	nopl   0x0(%rax)
  a4d0b0:	0f b6 13             	movzbl (%rbx),%edx
  a4d0b3:	48 83 c3 01          	add    $0x1,%rbx
  a4d0b7:	49 01 d4             	add    %rdx,%r12
  a4d0ba:	80 fa ff             	cmp    $0xff,%dl
  a4d0bd:	74 f1                	je     a4d0b0 <LZ4_decompress_fast_usingDict+0x8a0>
  a4d0bf:	e9 33 ff ff ff       	jmpq   a4cff7 <LZ4_decompress_fast_usingDict+0x7e7>
  a4d0c4:	b9 0f 00 00 00       	mov    $0xf,%ecx
  a4d0c9:	0f 1f 80 00 00 00 00 	nopl   0x0(%rax)
  a4d0d0:	44 0f b6 03          	movzbl (%rbx),%r8d
  a4d0d4:	48 83 c3 01          	add    $0x1,%rbx
  a4d0d8:	4c 01 c1             	add    %r8,%rcx
  a4d0db:	41 80 f8 ff          	cmp    $0xff,%r8b
  a4d0df:	74 ef                	je     a4d0d0 <LZ4_decompress_fast_usingDict+0x8c0>
  a4d0e1:	48 83 c1 04          	add    $0x4,%rcx
  a4d0e5:	48 8d 2c 0a          	lea    (%rdx,%rcx,1),%rbp
  a4d0e9:	49 83 fa 07          	cmp    $0x7,%r10
  a4d0ed:	0f 87 67 ff ff ff    	ja     a4d05a <LZ4_decompress_fast_usingDict+0x84a>
  a4d0f3:	41 0f b6 04 24       	movzbl (%r12),%eax
  a4d0f8:	88 02                	mov    %al,(%rdx)
  a4d0fa:	41 0f b6 44 24 01    	movzbl 0x1(%r12),%eax
  a4d100:	88 42 01             	mov    %al,0x1(%rdx)
  a4d103:	41 0f b6 44 24 02    	movzbl 0x2(%r12),%eax
  a4d109:	88 42 02             	mov    %al,0x2(%rdx)
  a4d10c:	41 0f b6 44 24 03    	movzbl 0x3(%r12),%eax
  a4d112:	88 42 03             	mov    %al,0x3(%rdx)
  a4d115:	43 8b 04 96          	mov    (%r14,%r10,4),%eax
  a4d119:	4c 01 e0             	add    %r12,%rax
  a4d11c:	44 8b 00             	mov    (%rax),%r8d
  a4d11f:	44 89 42 04          	mov    %r8d,0x4(%rdx)
  a4d123:	4f 63 04 97          	movslq (%r15,%r10,4),%r8
  a4d127:	4c 29 c0             	sub    %r8,%rax
  a4d12a:	48 39 fd             	cmp    %rdi,%rbp
  a4d12d:	0f 86 3c ff ff ff    	jbe    a4d06f <LZ4_decompress_fast_usingDict+0x85f>
  a4d133:	4c 39 ed             	cmp    %r13,%rbp
  a4d136:	0f 87 45 fb ff ff    	ja     a4cc81 <LZ4_decompress_fast_usingDict+0x471>
  a4d13c:	48 83 c2 08          	add    $0x8,%rdx
  a4d140:	4c 39 da             	cmp    %r11,%rdx
  a4d143:	72 32                	jb     a4d177 <LZ4_decompress_fast_usingDict+0x967>
  a4d145:	48 39 d5             	cmp    %rdx,%rbp
  a4d148:	0f 86 2e ff ff ff    	jbe    a4d07c <LZ4_decompress_fast_usingDict+0x86c>
  a4d14e:	49 89 ea             	mov    %rbp,%r10
  a4d151:	31 c9                	xor    %ecx,%ecx
  a4d153:	49 29 d2             	sub    %rdx,%r10
  a4d156:	66 2e 0f 1f 84 00 00 	nopw   %cs:0x0(%rax,%rax,1)
  a4d15d:	00 00 00 
  a4d160:	44 0f b6 04 08       	movzbl (%rax,%rcx,1),%r8d
  a4d165:	44 88 04 0a          	mov    %r8b,(%rdx,%rcx,1)
  a4d169:	48 83 c1 01          	add    $0x1,%rcx
  a4d16d:	49 39 ca             	cmp    %rcx,%r10
  a4d170:	75 ee                	jne    a4d160 <LZ4_decompress_fast_usingDict+0x950>
  a4d172:	e9 05 ff ff ff       	jmpq   a4d07c <LZ4_decompress_fast_usingDict+0x86c>
  a4d177:	49 89 c0             	mov    %rax,%r8
  a4d17a:	48 89 d1             	mov    %rdx,%rcx
  a4d17d:	4d 8b 10             	mov    (%r8),%r10
  a4d180:	48 83 c1 08          	add    $0x8,%rcx
  a4d184:	49 83 c0 08          	add    $0x8,%r8
  a4d188:	4c 89 51 f8          	mov    %r10,-0x8(%rcx)
  a4d18c:	49 39 cb             	cmp    %rcx,%r11
  a4d18f:	77 ec                	ja     a4d17d <LZ4_decompress_fast_usingDict+0x96d>
  a4d191:	4c 89 d9             	mov    %r11,%rcx
  a4d194:	48 29 d1             	sub    %rdx,%rcx
  a4d197:	4c 89 da             	mov    %r11,%rdx
  a4d19a:	48 01 c8             	add    %rcx,%rax
  a4d19d:	eb a6                	jmp    a4d145 <LZ4_decompress_fast_usingDict+0x935>
  a4d19f:	90                   	nop

0000000000a4d1a0 <__putstr>:
  a4d1a0:	f3 0f 1e fa          	endbr64 
  a4d1a4:	8b 35 32 e0 01 00    	mov    0x1e032(%rip),%esi        # a6b1dc <early_serial_base>
  a4d1aa:	49 89 f9             	mov    %rdi,%r9
  a4d1ad:	85 f6                	test   %esi,%esi
  a4d1af:	74 62                	je     a4d213 <__putstr+0x73>
  a4d1b1:	0f b6 07             	movzbl (%rdi),%eax
  a4d1b4:	84 c0                	test   %al,%al
  a4d1b6:	74 5b                	je     a4d213 <__putstr+0x73>
  a4d1b8:	49 89 f8             	mov    %rdi,%r8
  a4d1bb:	41 bb 0d 00 00 00    	mov    $0xd,%r11d
  a4d1c1:	0f 1f 80 00 00 00 00 	nopl   0x0(%rax)
  a4d1c8:	8d 7e 05             	lea    0x5(%rsi),%edi
  a4d1cb:	3c 0a                	cmp    $0xa,%al
  a4d1cd:	0f 84 3d 01 00 00    	je     a4d310 <__putstr+0x170>
  a4d1d3:	49 83 c0 01          	add    $0x1,%r8
  a4d1d7:	89 fa                	mov    %edi,%edx
  a4d1d9:	45 0f b6 50 ff       	movzbl -0x1(%r8),%r10d
  a4d1de:	ec                   	in     (%dx),%al
  a4d1df:	a8 20                	test   $0x20,%al
  a4d1e1:	75 22                	jne    a4d205 <__putstr+0x65>
  a4d1e3:	b9 fe ff 00 00       	mov    $0xfffe,%ecx
  a4d1e8:	eb 0b                	jmp    a4d1f5 <__putstr+0x55>
  a4d1ea:	66 0f 1f 44 00 00    	nopw   0x0(%rax,%rax,1)
  a4d1f0:	83 e9 01             	sub    $0x1,%ecx
  a4d1f3:	74 10                	je     a4d205 <__putstr+0x65>
  a4d1f5:	f3 90                	pause  
  a4d1f7:	8b 35 df df 01 00    	mov    0x1dfdf(%rip),%esi        # a6b1dc <early_serial_base>
  a4d1fd:	8d 56 05             	lea    0x5(%rsi),%edx
  a4d200:	ec                   	in     (%dx),%al
  a4d201:	a8 20                	test   $0x20,%al
  a4d203:	74 eb                	je     a4d1f0 <__putstr+0x50>
  a4d205:	44 89 d0             	mov    %r10d,%eax
  a4d208:	89 f2                	mov    %esi,%edx
  a4d20a:	ee                   	out    %al,(%dx)
  a4d20b:	41 0f b6 00          	movzbl (%r8),%eax
  a4d20f:	84 c0                	test   %al,%al
  a4d211:	75 b5                	jne    a4d1c8 <__putstr+0x28>
  a4d213:	8b 05 1b df 01 00    	mov    0x1df1b(%rip),%eax        # a6b134 <lines>
  a4d219:	85 c0                	test   %eax,%eax
  a4d21b:	0f 84 e8 00 00 00    	je     a4d309 <__putstr+0x169>
  a4d221:	8b 05 09 df 01 00    	mov    0x1df09(%rip),%eax        # a6b130 <cols>
  a4d227:	85 c0                	test   %eax,%eax
  a4d229:	0f 84 da 00 00 00    	je     a4d309 <__putstr+0x169>
  a4d22f:	55                   	push   %rbp
  a4d230:	53                   	push   %rbx
  a4d231:	49 8d 59 01          	lea    0x1(%r9),%rbx
  a4d235:	48 83 ec 08          	sub    $0x8,%rsp
  a4d239:	48 8b 35 d0 ce 01 00 	mov    0x1ced0(%rip),%rsi        # a6a110 <boot_params>
  a4d240:	41 0f b6 11          	movzbl (%r9),%edx
  a4d244:	0f b6 0e             	movzbl (%rsi),%ecx
  a4d247:	0f b6 6e 01          	movzbl 0x1(%rsi),%ebp
  a4d24b:	41 89 c8             	mov    %ecx,%r8d
  a4d24e:	89 ef                	mov    %ebp,%edi
  a4d250:	84 d2                	test   %dl,%dl
  a4d252:	75 1b                	jne    a4d26f <__putstr+0xcf>
  a4d254:	eb 6f                	jmp    a4d2c5 <__putstr+0x125>
  a4d256:	66 2e 0f 1f 84 00 00 	nopw   %cs:0x0(%rax,%rax,1)
  a4d25d:	00 00 00 
  a4d260:	89 c5                	mov    %eax,%ebp
  a4d262:	31 c9                	xor    %ecx,%ecx
  a4d264:	0f b6 13             	movzbl (%rbx),%edx
  a4d267:	48 83 c3 01          	add    $0x1,%rbx
  a4d26b:	84 d2                	test   %dl,%dl
  a4d26d:	74 44                	je     a4d2b3 <__putstr+0x113>
  a4d26f:	80 fa 0a             	cmp    $0xa,%dl
  a4d272:	74 22                	je     a4d296 <__putstr+0xf6>
  a4d274:	8b 35 b6 de 01 00    	mov    0x1deb6(%rip),%esi        # a6b130 <cols>
  a4d27a:	48 8b 3d bf de 01 00 	mov    0x1debf(%rip),%rdi        # a6b140 <vidmem>
  a4d281:	89 f0                	mov    %esi,%eax
  a4d283:	0f af c5             	imul   %ebp,%eax
  a4d286:	01 c8                	add    %ecx,%eax
  a4d288:	83 c1 01             	add    $0x1,%ecx
  a4d28b:	01 c0                	add    %eax,%eax
  a4d28d:	48 98                	cltq   
  a4d28f:	88 14 07             	mov    %dl,(%rdi,%rax,1)
  a4d292:	39 ce                	cmp    %ecx,%esi
  a4d294:	7f ce                	jg     a4d264 <__putstr+0xc4>
  a4d296:	8d 45 01             	lea    0x1(%rbp),%eax
  a4d299:	3b 05 95 de 01 00    	cmp    0x1de95(%rip),%eax        # a6b134 <lines>
  a4d29f:	7c bf                	jl     a4d260 <__putstr+0xc0>
  a4d2a1:	e8 7a d3 ff ff       	callq  a4a620 <scroll>
  a4d2a6:	0f b6 13             	movzbl (%rbx),%edx
  a4d2a9:	48 83 c3 01          	add    $0x1,%rbx
  a4d2ad:	31 c9                	xor    %ecx,%ecx
  a4d2af:	84 d2                	test   %dl,%dl
  a4d2b1:	75 bc                	jne    a4d26f <__putstr+0xcf>
  a4d2b3:	48 8b 35 56 ce 01 00 	mov    0x1ce56(%rip),%rsi        # a6a110 <boot_params>
  a4d2ba:	8b 05 70 de 01 00    	mov    0x1de70(%rip),%eax        # a6b130 <cols>
  a4d2c0:	41 89 c8             	mov    %ecx,%r8d
  a4d2c3:	89 ef                	mov    %ebp,%edi
  a4d2c5:	0f af e8             	imul   %eax,%ebp
  a4d2c8:	44 88 06             	mov    %r8b,(%rsi)
  a4d2cb:	8b 35 67 de 01 00    	mov    0x1de67(%rip),%esi        # a6b138 <vidport>
  a4d2d1:	b8 0e 00 00 00       	mov    $0xe,%eax
  a4d2d6:	48 8b 15 33 ce 01 00 	mov    0x1ce33(%rip),%rdx        # a6a110 <boot_params>
  a4d2dd:	01 e9                	add    %ebp,%ecx
  a4d2df:	40 88 7a 01          	mov    %dil,0x1(%rdx)
  a4d2e3:	89 f2                	mov    %esi,%edx
  a4d2e5:	01 c9                	add    %ecx,%ecx
  a4d2e7:	ee                   	out    %al,(%dx)
  a4d2e8:	8d 7e 01             	lea    0x1(%rsi),%edi
  a4d2eb:	89 c8                	mov    %ecx,%eax
  a4d2ed:	c1 f8 09             	sar    $0x9,%eax
  a4d2f0:	89 fa                	mov    %edi,%edx
  a4d2f2:	ee                   	out    %al,(%dx)
  a4d2f3:	b8 0f 00 00 00       	mov    $0xf,%eax
  a4d2f8:	89 f2                	mov    %esi,%edx
  a4d2fa:	ee                   	out    %al,(%dx)
  a4d2fb:	89 c8                	mov    %ecx,%eax
  a4d2fd:	89 fa                	mov    %edi,%edx
  a4d2ff:	d1 f8                	sar    %eax
  a4d301:	ee                   	out    %al,(%dx)
  a4d302:	48 83 c4 08          	add    $0x8,%rsp
  a4d306:	5b                   	pop    %rbx
  a4d307:	5d                   	pop    %rbp
  a4d308:	c3                   	retq   
  a4d309:	c3                   	retq   
  a4d30a:	66 0f 1f 44 00 00    	nopw   0x0(%rax,%rax,1)
  a4d310:	89 fa                	mov    %edi,%edx
  a4d312:	ec                   	in     (%dx),%al
  a4d313:	a8 20                	test   $0x20,%al
  a4d315:	75 20                	jne    a4d337 <__putstr+0x197>
  a4d317:	b9 fe ff 00 00       	mov    $0xfffe,%ecx
  a4d31c:	eb 07                	jmp    a4d325 <__putstr+0x185>
  a4d31e:	66 90                	xchg   %ax,%ax
  a4d320:	83 e9 01             	sub    $0x1,%ecx
  a4d323:	74 12                	je     a4d337 <__putstr+0x197>
  a4d325:	f3 90                	pause  
  a4d327:	8b 35 af de 01 00    	mov    0x1deaf(%rip),%esi        # a6b1dc <early_serial_base>
  a4d32d:	8d 7e 05             	lea    0x5(%rsi),%edi
  a4d330:	89 fa                	mov    %edi,%edx
  a4d332:	ec                   	in     (%dx),%al
  a4d333:	a8 20                	test   $0x20,%al
  a4d335:	74 e9                	je     a4d320 <__putstr+0x180>
  a4d337:	44 89 d8             	mov    %r11d,%eax
  a4d33a:	89 f2                	mov    %esi,%edx
  a4d33c:	ee                   	out    %al,(%dx)
  a4d33d:	e9 91 fe ff ff       	jmpq   a4d1d3 <__putstr+0x33>
  a4d342:	66 66 2e 0f 1f 84 00 	data16 nopw %cs:0x0(%rax,%rax,1)
  a4d349:	00 00 00 00 
  a4d34d:	0f 1f 00             	nopl   (%rax)

0000000000a4d350 <__puthex>:
  a4d350:	f3 0f 1e fa          	endbr64 
  a4d354:	41 54                	push   %r12
  a4d356:	b8 30 00 00 00       	mov    $0x30,%eax
  a4d35b:	55                   	push   %rbp
  a4d35c:	48 89 fd             	mov    %rdi,%rbp
  a4d35f:	53                   	push   %rbx
  a4d360:	bb 3c 00 00 00       	mov    $0x3c,%ebx
  a4d365:	48 83 ec 10          	sub    $0x10,%rsp
  a4d369:	66 89 44 24 0e       	mov    %ax,0xe(%rsp)
  a4d36e:	4c 8d 64 24 0e       	lea    0xe(%rsp),%r12
  a4d373:	0f 1f 44 00 00       	nopl   0x0(%rax,%rax,1)
  a4d378:	89 d9                	mov    %ebx,%ecx
  a4d37a:	48 89 e8             	mov    %rbp,%rax
  a4d37d:	4c 89 e7             	mov    %r12,%rdi
  a4d380:	48 d3 e8             	shr    %cl,%rax
  a4d383:	83 e0 0f             	and    $0xf,%eax
  a4d386:	8d 48 30             	lea    0x30(%rax),%ecx
  a4d389:	48 83 f8 09          	cmp    $0x9,%rax
  a4d38d:	8d 50 57             	lea    0x57(%rax),%edx
  a4d390:	89 c8                	mov    %ecx,%eax
  a4d392:	0f 47 c2             	cmova  %edx,%eax
  a4d395:	83 eb 04             	sub    $0x4,%ebx
  a4d398:	88 44 24 0e          	mov    %al,0xe(%rsp)
  a4d39c:	e8 ff fd ff ff       	callq  a4d1a0 <__putstr>
  a4d3a1:	83 fb fc             	cmp    $0xfffffffc,%ebx
  a4d3a4:	75 d2                	jne    a4d378 <__puthex+0x28>
  a4d3a6:	48 83 c4 10          	add    $0x10,%rsp
  a4d3aa:	5b                   	pop    %rbx
  a4d3ab:	5d                   	pop    %rbp
  a4d3ac:	41 5c                	pop    %r12
  a4d3ae:	c3                   	retq   
  a4d3af:	90                   	nop

0000000000a4d3b0 <extract_kernel>:
  a4d3b0:	f3 0f 1e fa          	endbr64 
  a4d3b4:	41 57                	push   %r15
  a4d3b6:	49 89 ff             	mov    %rdi,%r15
  a4d3b9:	41 56                	push   %r14
  a4d3bb:	49 89 f6             	mov    %rsi,%r14
  a4d3be:	41 55                	push   %r13
  a4d3c0:	41 54                	push   %r12
  a4d3c2:	55                   	push   %rbp
  a4d3c3:	53                   	push   %rbx
  a4d3c4:	48 89 d3             	mov    %rdx,%rbx
  a4d3c7:	48 81 ec d8 00 00 00 	sub    $0xd8,%rsp
  a4d3ce:	80 a7 11 02 00 00 fd 	andb   $0xfd,0x211(%rdi)
  a4d3d5:	80 bf ef 01 00 00 00 	cmpb   $0x0,0x1ef(%rdi)
  a4d3dc:	48 89 4c 24 08       	mov    %rcx,0x8(%rsp)
  a4d3e1:	4c 89 44 24 18       	mov    %r8,0x18(%rsp)
  a4d3e6:	4c 89 4c 24 10       	mov    %r9,0x10(%rsp)
  a4d3eb:	48 c7 44 24 28 00 00 	movq   $0x1000000,0x28(%rsp)
  a4d3f2:	00 01 
  a4d3f4:	48 89 3d 15 cd 01 00 	mov    %rdi,0x1cd15(%rip)        # a6a110 <boot_params>
  a4d3fb:	0f 85 77 01 00 00    	jne    a4d578 <extract_kernel+0x1c8>
  a4d401:	41 80 7f 06 07       	cmpb   $0x7,0x6(%r15)
  a4d406:	0f 84 4c 01 00 00    	je     a4d558 <extract_kernel+0x1a8>
  a4d40c:	48 c7 05 29 dd 01 00 	movq   $0xb8000,0x1dd29(%rip)        # a6b140 <vidmem>
  a4d413:	00 80 0b 00 
  a4d417:	c7 05 17 dd 01 00 d4 	movl   $0x3d4,0x1dd17(%rip)        # a6b138 <vidport>
  a4d41e:	03 00 00 
  a4d421:	41 0f b6 47 0e       	movzbl 0xe(%r15),%eax
  a4d426:	89 05 08 dd 01 00    	mov    %eax,0x1dd08(%rip)        # a6b134 <lines>
  a4d42c:	41 0f b6 47 07       	movzbl 0x7(%r15),%eax
  a4d431:	89 05 f9 dc 01 00    	mov    %eax,0x1dcf9(%rip)        # a6b130 <cols>
  a4d437:	e8 34 0f 00 00       	callq  a4e370 <console_init>
  a4d43c:	48 8b 4c 24 10       	mov    0x10(%rsp),%rcx
  a4d441:	48 8b 74 24 08       	mov    0x8(%rsp),%rsi
  a4d446:	48 89 df             	mov    %rbx,%rdi
  a4d449:	49 8d 86 00 00 01 00 	lea    0x10000(%r14),%rax
  a4d450:	48 8d 54 24 18       	lea    0x18(%rsp),%rdx
  a4d455:	4c 89 35 ac cc 01 00 	mov    %r14,0x1ccac(%rip)        # a6a108 <free_mem_ptr>
  a4d45c:	48 81 f9 00 c0 02 02 	cmp    $0x202c000,%rcx
  a4d463:	48 89 05 96 cc 01 00 	mov    %rax,0x1cc96(%rip)        # a6a100 <free_mem_end_ptr>
  a4d46a:	b8 00 c0 02 02       	mov    $0x202c000,%eax
  a4d46f:	4c 8d 44 24 28       	lea    0x28(%rsp),%r8
  a4d474:	48 0f 43 c1          	cmovae %rcx,%rax
  a4d478:	48 89 c1             	mov    %rax,%rcx
  a4d47b:	49 89 c4             	mov    %rax,%r12
  a4d47e:	e8 bd 1a 00 00       	callq  a4ef40 <choose_random_location>
  a4d483:	4c 8b 6c 24 18       	mov    0x18(%rsp),%r13
  a4d488:	41 f7 c5 ff ff 1f 00 	test   $0x1fffff,%r13d
  a4d48f:	0f 85 2d 04 00 00    	jne    a4d8c2 <extract_kernel+0x512>
  a4d495:	48 8b 44 24 28       	mov    0x28(%rsp),%rax
  a4d49a:	a9 ff ff 1f 00       	test   $0x1fffff,%eax
  a4d49f:	0f 85 41 04 00 00    	jne    a4d8e6 <extract_kernel+0x536>
  a4d4a5:	48 ba ff ff ff ff ff 	movabs $0x3fffffffffff,%rdx
  a4d4ac:	3f 00 00 
  a4d4af:	49 39 d6             	cmp    %rdx,%r14
  a4d4b2:	0f 87 22 04 00 00    	ja     a4d8da <extract_kernel+0x52a>
  a4d4b8:	4c 01 e0             	add    %r12,%rax
  a4d4bb:	48 3d 00 00 00 40    	cmp    $0x40000000,%rax
  a4d4c1:	0f 87 07 04 00 00    	ja     a4d8ce <extract_kernel+0x51e>
  a4d4c7:	4d 85 ed             	test   %r13,%r13
  a4d4ca:	0f 84 50 01 00 00    	je     a4d620 <extract_kernel+0x270>
  a4d4d0:	48 85 db             	test   %rbx,%rbx
  a4d4d3:	0f 84 57 01 00 00    	je     a4d630 <extract_kernel+0x280>
  a4d4d9:	81 3b 02 21 4c 18    	cmpl   $0x184c2102,(%rbx)
  a4d4df:	0f 85 5b 01 00 00    	jne    a4d640 <extract_kernel+0x290>
  a4d4e5:	48 8b 44 24 08       	mov    0x8(%rsp),%rax
  a4d4ea:	48 83 c3 04          	add    $0x4,%rbx
  a4d4ee:	44 8b 74 03 f8       	mov    -0x8(%rbx,%rax,1),%r14d
  a4d4f3:	48 8d 68 f8          	lea    -0x8(%rax),%rbp
  a4d4f7:	66 0f 1f 84 00 00 00 	nopw   0x0(%rax,%rax,1)
  a4d4fe:	00 00 
  a4d500:	8b 03                	mov    (%rbx),%eax
  a4d502:	48 83 ed 04          	sub    $0x4,%rbp
  a4d506:	48 83 c3 04          	add    $0x4,%rbx
  a4d50a:	3d 02 21 4c 18       	cmp    $0x184c2102,%eax
  a4d50f:	74 ef                	je     a4d500 <extract_kernel+0x150>
  a4d511:	49 81 fe ff ff 7f 00 	cmp    $0x7fffff,%r14
  a4d518:	0f 87 32 01 00 00    	ja     a4d650 <extract_kernel+0x2a0>
  a4d51e:	44 89 f2             	mov    %r14d,%edx
  a4d521:	4d 89 f4             	mov    %r14,%r12
  a4d524:	4c 89 ee             	mov    %r13,%rsi
  a4d527:	48 89 df             	mov    %rbx,%rdi
  a4d52a:	e8 01 d7 ff ff       	callq  a4ac30 <LZ4_decompress_fast>
  a4d52f:	48 63 d0             	movslq %eax,%rdx
  a4d532:	85 c0                	test   %eax,%eax
  a4d534:	0f 88 2d 01 00 00    	js     a4d667 <extract_kernel+0x2b7>
  a4d53a:	4d 01 e5             	add    %r12,%r13
  a4d53d:	48 29 d5             	sub    %rdx,%rbp
  a4d540:	0f 84 2d 01 00 00    	je     a4d673 <extract_kernel+0x2c3>
  a4d546:	0f 88 5d 02 00 00    	js     a4d7a9 <extract_kernel+0x3f9>
  a4d54c:	48 01 d3             	add    %rdx,%rbx
  a4d54f:	eb af                	jmp    a4d500 <extract_kernel+0x150>
  a4d551:	0f 1f 80 00 00 00 00 	nopl   0x0(%rax)
  a4d558:	48 c7 05 dd db 01 00 	movq   $0xb0000,0x1dbdd(%rip)        # a6b140 <vidmem>
  a4d55f:	00 00 0b 00 
  a4d563:	c7 05 cb db 01 00 b4 	movl   $0x3b4,0x1dbcb(%rip)        # a6b138 <vidport>
  a4d56a:	03 00 00 
  a4d56d:	e9 af fe ff ff       	jmpq   a4d421 <extract_kernel+0x71>
  a4d572:	66 0f 1f 44 00 00    	nopw   0x0(%rax,%rax,1)
  a4d578:	b8 13 00 00 00       	mov    $0x13,%eax
  a4d57d:	48 8d 7c 24 30       	lea    0x30(%rsp),%rdi
  a4d582:	48 8d 35 77 69 00 00 	lea    0x6977(%rip),%rsi        # a53f00 <_rodata>
  a4d589:	48 89 c1             	mov    %rax,%rcx
  a4d58c:	4c 8d 25 8d cb 01 00 	lea    0x1cb8d(%rip),%r12        # a6a120 <scratch.0>
  a4d593:	48 8d 6c 24 30       	lea    0x30(%rsp),%rbp
  a4d598:	f3 48 a5             	rep movsq %ds:(%rsi),%es:(%rdi)
  a4d59b:	4c 89 e7             	mov    %r12,%rdi
  a4d59e:	4c 8d ac 24 c8 00 00 	lea    0xc8(%rsp),%r13
  a4d5a5:	00 
  a4d5a6:	48 89 c8             	mov    %rcx,%rax
  a4d5a9:	b9 00 02 00 00       	mov    $0x200,%ecx
  a4d5ae:	f3 48 ab             	rep stos %rax,%es:(%rdi)
  a4d5b1:	0f 1f 80 00 00 00 00 	nopl   0x0(%rax)
  a4d5b8:	8b 75 00             	mov    0x0(%rbp),%esi
  a4d5bb:	8b 55 04             	mov    0x4(%rbp),%edx
  a4d5be:	48 83 c5 08          	add    $0x8,%rbp
  a4d5c2:	49 8d 3c 34          	lea    (%r12,%rsi,1),%rdi
  a4d5c6:	4c 01 fe             	add    %r15,%rsi
  a4d5c9:	e8 f2 06 00 00       	callq  a4dcc0 <memcpy>
  a4d5ce:	49 39 ed             	cmp    %rbp,%r13
  a4d5d1:	75 e5                	jne    a4d5b8 <extract_kernel+0x208>
  a4d5d3:	49 8d 7f 08          	lea    0x8(%r15),%rdi
  a4d5d7:	49 8b 04 24          	mov    (%r12),%rax
  a4d5db:	4d 89 fa             	mov    %r15,%r10
  a4d5de:	4c 89 e6             	mov    %r12,%rsi
  a4d5e1:	48 83 e7 f8          	and    $0xfffffffffffffff8,%rdi
  a4d5e5:	49 29 fa             	sub    %rdi,%r10
  a4d5e8:	49 89 07             	mov    %rax,(%r15)
  a4d5eb:	48 8b 05 26 db 01 00 	mov    0x1db26(%rip),%rax        # a6b118 <scratch.0+0xff8>
  a4d5f2:	4c 29 d6             	sub    %r10,%rsi
  a4d5f5:	41 81 c2 00 10 00 00 	add    $0x1000,%r10d
  a4d5fc:	41 c1 ea 03          	shr    $0x3,%r10d
  a4d600:	49 89 87 f8 0f 00 00 	mov    %rax,0xff8(%r15)
  a4d607:	44 89 d1             	mov    %r10d,%ecx
  a4d60a:	f3 48 a5             	rep movsq %ds:(%rsi),%es:(%rdi)
  a4d60d:	4c 8b 3d fc ca 01 00 	mov    0x1cafc(%rip),%r15        # a6a110 <boot_params>
  a4d614:	e9 e8 fd ff ff       	jmpq   a4d401 <extract_kernel+0x51>
  a4d619:	0f 1f 80 00 00 00 00 	nopl   0x0(%rax)
  a4d620:	48 8d 3d e9 6d 00 00 	lea    0x6de9(%rip),%rdi        # a54410 <efi_MemoryOverWriteRequest_name+0xf0>
  a4d627:	e8 24 0b 00 00       	callq  a4e150 <error>
  a4d62c:	0f 1f 40 00          	nopl   0x0(%rax)
  a4d630:	48 8d 3d 11 6e 00 00 	lea    0x6e11(%rip),%rdi        # a54448 <efi_MemoryOverWriteRequest_name+0x128>
  a4d637:	e8 14 0b 00 00       	callq  a4e150 <error>
  a4d63c:	0f 1f 40 00          	nopl   0x0(%rax)
  a4d640:	48 8d 3d 1d 6f 00 00 	lea    0x6f1d(%rip),%rdi        # a54564 <efi_MemoryOverWriteRequest_name+0x244>
  a4d647:	e8 04 0b 00 00       	callq  a4e150 <error>
  a4d64c:	0f 1f 40 00          	nopl   0x0(%rax)
  a4d650:	49 81 ee 00 00 80 00 	sub    $0x800000,%r14
  a4d657:	ba 00 00 80 00       	mov    $0x800000,%edx
  a4d65c:	41 bc 00 00 80 00    	mov    $0x800000,%r12d
  a4d662:	e9 bd fe ff ff       	jmpq   a4d524 <extract_kernel+0x174>
  a4d667:	48 8d 3d 05 6f 00 00 	lea    0x6f05(%rip),%rdi        # a54573 <efi_MemoryOverWriteRequest_name+0x253>
  a4d66e:	e8 dd 0a 00 00       	callq  a4e150 <error>
  a4d673:	4c 8b 6c 24 18       	mov    0x18(%rsp),%r13
  a4d678:	49 8b 55 08          	mov    0x8(%r13),%rdx
  a4d67c:	49 8b 45 00          	mov    0x0(%r13),%rax
  a4d680:	48 89 54 24 38       	mov    %rdx,0x38(%rsp)
  a4d685:	49 8b 55 10          	mov    0x10(%r13),%rdx
  a4d689:	48 89 44 24 30       	mov    %rax,0x30(%rsp)
  a4d68e:	48 89 54 24 40       	mov    %rdx,0x40(%rsp)
  a4d693:	49 8b 55 18          	mov    0x18(%r13),%rdx
  a4d697:	48 89 54 24 48       	mov    %rdx,0x48(%rsp)
  a4d69c:	49 8b 55 20          	mov    0x20(%r13),%rdx
  a4d6a0:	48 89 54 24 50       	mov    %rdx,0x50(%rsp)
  a4d6a5:	49 8b 55 28          	mov    0x28(%r13),%rdx
  a4d6a9:	48 89 54 24 58       	mov    %rdx,0x58(%rsp)
  a4d6ae:	49 8b 55 30          	mov    0x30(%r13),%rdx
  a4d6b2:	48 89 54 24 60       	mov    %rdx,0x60(%rsp)
  a4d6b7:	49 8b 55 38          	mov    0x38(%r13),%rdx
  a4d6bb:	48 89 54 24 68       	mov    %rdx,0x68(%rsp)
  a4d6c0:	3d 7f 45 4c 46       	cmp    $0x464c457f,%eax
  a4d6c5:	0f 85 4b 02 00 00    	jne    a4d916 <extract_kernel+0x566>
  a4d6cb:	48 8b 05 56 da 01 00 	mov    0x1da56(%rip),%rax        # a6b128 <malloc_ptr>
  a4d6d2:	44 0f b7 74 24 68    	movzwl 0x68(%rsp),%r14d
  a4d6d8:	41 6b d6 38          	imul   $0x38,%r14d,%edx
  a4d6dc:	48 85 c0             	test   %rax,%rax
  a4d6df:	48 0f 44 05 21 ca 01 	cmove  0x1ca21(%rip),%rax        # a6a108 <free_mem_ptr>
  a4d6e6:	00 
  a4d6e7:	44 89 f5             	mov    %r14d,%ebp
  a4d6ea:	48 8d 58 03          	lea    0x3(%rax),%rbx
  a4d6ee:	48 83 e3 fc          	and    $0xfffffffffffffffc,%rbx
  a4d6f2:	89 d0                	mov    %edx,%eax
  a4d6f4:	48 8b 15 05 ca 01 00 	mov    0x1ca05(%rip),%rdx        # a6a100 <free_mem_end_ptr>
  a4d6fb:	48 01 d8             	add    %rbx,%rax
  a4d6fe:	48 89 05 23 da 01 00 	mov    %rax,0x1da23(%rip)        # a6b128 <malloc_ptr>
  a4d705:	48 85 d2             	test   %rdx,%rdx
  a4d708:	0f 85 a7 00 00 00    	jne    a4d7b5 <extract_kernel+0x405>
  a4d70e:	44 8b 25 0b da 01 00 	mov    0x1da0b(%rip),%r12d        # a6b120 <malloc_count>
  a4d715:	41 8d 44 24 01       	lea    0x1(%r12),%eax
  a4d71a:	89 05 00 da 01 00    	mov    %eax,0x1da00(%rip)        # a6b120 <malloc_count>
  a4d720:	48 85 db             	test   %rbx,%rbx
  a4d723:	0f 84 95 00 00 00    	je     a4d7be <extract_kernel+0x40e>
  a4d729:	0f b7 c5             	movzwl %bp,%eax
  a4d72c:	48 8b 74 24 50       	mov    0x50(%rsp),%rsi
  a4d731:	48 89 df             	mov    %rbx,%rdi
  a4d734:	48 8d 14 c5 00 00 00 	lea    0x0(,%rax,8),%rdx
  a4d73b:	00 
  a4d73c:	48 29 c2             	sub    %rax,%rdx
  a4d73f:	4c 01 ee             	add    %r13,%rsi
  a4d742:	48 c1 e2 03          	shl    $0x3,%rdx
  a4d746:	e8 75 05 00 00       	callq  a4dcc0 <memcpy>
  a4d74b:	66 85 ed             	test   %bp,%bp
  a4d74e:	0f 84 7c 00 00 00    	je     a4d7d0 <extract_kernel+0x420>
  a4d754:	41 8d 46 ff          	lea    -0x1(%r14),%eax
  a4d758:	48 83 c0 01          	add    $0x1,%rax
  a4d75c:	48 8d 14 c5 00 00 00 	lea    0x0(,%rax,8),%rdx
  a4d763:	00 
  a4d764:	48 29 c2             	sub    %rax,%rdx
  a4d767:	48 8d 2c d3          	lea    (%rbx,%rdx,8),%rbp
  a4d76b:	eb 0c                	jmp    a4d779 <extract_kernel+0x3c9>
  a4d76d:	0f 1f 00             	nopl   (%rax)
  a4d770:	48 83 c3 38          	add    $0x38,%rbx
  a4d774:	48 39 dd             	cmp    %rbx,%rbp
  a4d777:	74 57                	je     a4d7d0 <extract_kernel+0x420>
  a4d779:	83 3b 01             	cmpl   $0x1,(%rbx)
  a4d77c:	75 f2                	jne    a4d770 <extract_kernel+0x3c0>
  a4d77e:	f7 43 30 ff ff 1f 00 	testl  $0x1fffff,0x30(%rbx)
  a4d785:	0f 85 97 01 00 00    	jne    a4d922 <extract_kernel+0x572>
  a4d78b:	48 8b 73 08          	mov    0x8(%rbx),%rsi
  a4d78f:	48 8b 43 18          	mov    0x18(%rbx),%rax
  a4d793:	48 8b 53 20          	mov    0x20(%rbx),%rdx
  a4d797:	4c 01 ee             	add    %r13,%rsi
  a4d79a:	49 8d bc 05 00 00 00 	lea    -0x1000000(%r13,%rax,1),%rdi
  a4d7a1:	ff 
  a4d7a2:	e8 b9 04 00 00       	callq  a4dc60 <memmove>
  a4d7a7:	eb c7                	jmp    a4d770 <extract_kernel+0x3c0>
  a4d7a9:	48 8d 3d d3 6d 00 00 	lea    0x6dd3(%rip),%rdi        # a54583 <efi_MemoryOverWriteRequest_name+0x263>
  a4d7b0:	e8 9b 09 00 00       	callq  a4e150 <error>
  a4d7b5:	48 39 d0             	cmp    %rdx,%rax
  a4d7b8:	0f 82 50 ff ff ff    	jb     a4d70e <extract_kernel+0x35e>
  a4d7be:	48 8d 3d d3 6c 00 00 	lea    0x6cd3(%rip),%rdi        # a54498 <efi_MemoryOverWriteRequest_name+0x178>
  a4d7c5:	e8 86 09 00 00       	callq  a4e150 <error>
  a4d7ca:	66 0f 1f 44 00 00    	nopw   0x0(%rax,%rax,1)
  a4d7d0:	44 89 25 49 d9 01 00 	mov    %r12d,0x1d949(%rip)        # a6b120 <malloc_count>
  a4d7d7:	45 85 e4             	test   %r12d,%r12d
  a4d7da:	75 0e                	jne    a4d7ea <extract_kernel+0x43a>
  a4d7dc:	48 8b 05 25 c9 01 00 	mov    0x1c925(%rip),%rax        # a6a108 <free_mem_ptr>
  a4d7e3:	48 89 05 3e d9 01 00 	mov    %rax,0x1d93e(%rip)        # a6b128 <malloc_ptr>
  a4d7ea:	48 8b 54 24 28       	mov    0x28(%rsp),%rdx
  a4d7ef:	4c 8b 44 24 18       	mov    0x18(%rsp),%r8
  a4d7f4:	48 81 ea 00 00 00 01 	sub    $0x1000000,%rdx
  a4d7fb:	0f 84 a7 00 00 00    	je     a4d8a8 <extract_kernel+0x4f8>
  a4d801:	48 8b 44 24 10       	mov    0x10(%rsp),%rax
  a4d806:	49 8d b0 00 30 b3 01 	lea    0x1b33000(%r8),%rsi
  a4d80d:	49 8d b8 00 00 00 7f 	lea    0x7f000000(%r8),%rdi
  a4d814:	49 8d 4c 00 fc       	lea    -0x4(%r8,%rax,1),%rcx
  a4d819:	48 63 01             	movslq (%rcx),%rax
  a4d81c:	85 c0                	test   %eax,%eax
  a4d81e:	74 22                	je     a4d842 <extract_kernel+0x492>
  a4d820:	48 01 f8             	add    %rdi,%rax
  a4d823:	49 39 c0             	cmp    %rax,%r8
  a4d826:	0f 87 de 00 00 00    	ja     a4d90a <extract_kernel+0x55a>
  a4d82c:	48 39 c6             	cmp    %rax,%rsi
  a4d82f:	0f 82 d5 00 00 00    	jb     a4d90a <extract_kernel+0x55a>
  a4d835:	48 83 e9 04          	sub    $0x4,%rcx
  a4d839:	01 10                	add    %edx,(%rax)
  a4d83b:	48 63 01             	movslq (%rcx),%rax
  a4d83e:	85 c0                	test   %eax,%eax
  a4d840:	75 de                	jne    a4d820 <extract_kernel+0x470>
  a4d842:	48 63 41 fc          	movslq -0x4(%rcx),%rax
  a4d846:	4c 8d 49 fc          	lea    -0x4(%rcx),%r9
  a4d84a:	85 c0                	test   %eax,%eax
  a4d84c:	75 05                	jne    a4d853 <extract_kernel+0x4a3>
  a4d84e:	eb 6d                	jmp    a4d8bd <extract_kernel+0x50d>
  a4d850:	49 89 c9             	mov    %rcx,%r9
  a4d853:	48 01 f8             	add    %rdi,%rax
  a4d856:	49 39 c0             	cmp    %rax,%r8
  a4d859:	0f 87 93 00 00 00    	ja     a4d8f2 <extract_kernel+0x542>
  a4d85f:	48 39 c6             	cmp    %rax,%rsi
  a4d862:	0f 82 8a 00 00 00    	jb     a4d8f2 <extract_kernel+0x542>
  a4d868:	29 10                	sub    %edx,(%rax)
  a4d86a:	49 63 41 fc          	movslq -0x4(%r9),%rax
  a4d86e:	49 8d 49 fc          	lea    -0x4(%r9),%rcx
  a4d872:	85 c0                	test   %eax,%eax
  a4d874:	75 da                	jne    a4d850 <extract_kernel+0x4a0>
  a4d876:	49 63 41 f8          	movslq -0x8(%r9),%rax
  a4d87a:	49 8d 49 f8          	lea    -0x8(%r9),%rcx
  a4d87e:	85 c0                	test   %eax,%eax
  a4d880:	74 21                	je     a4d8a3 <extract_kernel+0x4f3>
  a4d882:	66 0f 1f 44 00 00    	nopw   0x0(%rax,%rax,1)
  a4d888:	48 01 f8             	add    %rdi,%rax
  a4d88b:	49 39 c0             	cmp    %rax,%r8
  a4d88e:	77 6e                	ja     a4d8fe <extract_kernel+0x54e>
  a4d890:	48 39 c6             	cmp    %rax,%rsi
  a4d893:	72 69                	jb     a4d8fe <extract_kernel+0x54e>
  a4d895:	48 83 e9 04          	sub    $0x4,%rcx
  a4d899:	48 01 10             	add    %rdx,(%rax)
  a4d89c:	48 63 01             	movslq (%rcx),%rax
  a4d89f:	85 c0                	test   %eax,%eax
  a4d8a1:	75 e5                	jne    a4d888 <extract_kernel+0x4d8>
  a4d8a3:	4c 8b 44 24 18       	mov    0x18(%rsp),%r8
  a4d8a8:	48 81 c4 d8 00 00 00 	add    $0xd8,%rsp
  a4d8af:	4c 89 c0             	mov    %r8,%rax
  a4d8b2:	5b                   	pop    %rbx
  a4d8b3:	5d                   	pop    %rbp
  a4d8b4:	41 5c                	pop    %r12
  a4d8b6:	41 5d                	pop    %r13
  a4d8b8:	41 5e                	pop    %r14
  a4d8ba:	41 5f                	pop    %r15
  a4d8bc:	c3                   	retq   
  a4d8bd:	49 89 c9             	mov    %rcx,%r9
  a4d8c0:	eb b4                	jmp    a4d876 <extract_kernel+0x4c6>
  a4d8c2:	48 8d 3d 97 6a 00 00 	lea    0x6a97(%rip),%rdi        # a54360 <efi_MemoryOverWriteRequest_name+0x40>
  a4d8c9:	e8 82 08 00 00       	callq  a4e150 <error>
  a4d8ce:	48 8d 3d fb 6a 00 00 	lea    0x6afb(%rip),%rdi        # a543d0 <efi_MemoryOverWriteRequest_name+0xb0>
  a4d8d5:	e8 76 08 00 00       	callq  a4e150 <error>
  a4d8da:	48 8d 3d 65 6c 00 00 	lea    0x6c65(%rip),%rdi        # a54546 <efi_MemoryOverWriteRequest_name+0x226>
  a4d8e1:	e8 6a 08 00 00       	callq  a4e150 <error>
  a4d8e6:	48 8d 3d ab 6a 00 00 	lea    0x6aab(%rip),%rdi        # a54398 <efi_MemoryOverWriteRequest_name+0x78>
  a4d8ed:	e8 5e 08 00 00       	callq  a4e150 <error>
  a4d8f2:	48 8d 3d f7 6b 00 00 	lea    0x6bf7(%rip),%rdi        # a544f0 <efi_MemoryOverWriteRequest_name+0x1d0>
  a4d8f9:	e8 52 08 00 00       	callq  a4e150 <error>
  a4d8fe:	48 8d 3d 1b 6c 00 00 	lea    0x6c1b(%rip),%rdi        # a54520 <efi_MemoryOverWriteRequest_name+0x200>
  a4d905:	e8 46 08 00 00       	callq  a4e150 <error>
  a4d90a:	48 8d 3d e7 6b 00 00 	lea    0x6be7(%rip),%rdi        # a544f8 <efi_MemoryOverWriteRequest_name+0x1d8>
  a4d911:	e8 3a 08 00 00       	callq  a4e150 <error>
  a4d916:	48 8d 3d 5b 6b 00 00 	lea    0x6b5b(%rip),%rdi        # a54478 <efi_MemoryOverWriteRequest_name+0x158>
  a4d91d:	e8 2e 08 00 00       	callq  a4e150 <error>
  a4d922:	48 8d 3d 97 6b 00 00 	lea    0x6b97(%rip),%rdi        # a544c0 <efi_MemoryOverWriteRequest_name+0x1a0>
  a4d929:	e8 22 08 00 00       	callq  a4e150 <error>
  a4d92e:	66 90                	xchg   %ax,%ax

0000000000a4d930 <memcmp>:
  a4d930:	f3 0f 1e fa          	endbr64 
  a4d934:	48 89 d1             	mov    %rdx,%rcx
  a4d937:	f3 a6                	repz cmpsb %es:(%rdi),%ds:(%rsi)
  a4d939:	0f 95 c0             	setne  %al
  a4d93c:	0f b6 c0             	movzbl %al,%eax
  a4d93f:	c3                   	retq   

0000000000a4d940 <bcmp>:
  a4d940:	f3 0f 1e fa          	endbr64 
  a4d944:	48 89 d1             	mov    %rdx,%rcx
  a4d947:	f3 a6                	repz cmpsb %es:(%rdi),%ds:(%rsi)
  a4d949:	0f 95 c0             	setne  %al
  a4d94c:	0f b6 c0             	movzbl %al,%eax
  a4d94f:	c3                   	retq   

0000000000a4d950 <strcmp>:
  a4d950:	f3 0f 1e fa          	endbr64 
  a4d954:	31 c9                	xor    %ecx,%ecx
  a4d956:	eb 10                	jmp    a4d968 <strcmp+0x18>
  a4d958:	0f 1f 84 00 00 00 00 	nopl   0x0(%rax,%rax,1)
  a4d95f:	00 
  a4d960:	48 83 c1 01          	add    $0x1,%rcx
  a4d964:	29 d0                	sub    %edx,%eax
  a4d966:	75 12                	jne    a4d97a <strcmp+0x2a>
  a4d968:	0f b6 04 0f          	movzbl (%rdi,%rcx,1),%eax
  a4d96c:	0f b6 14 0e          	movzbl (%rsi,%rcx,1),%edx
  a4d970:	41 89 c0             	mov    %eax,%r8d
  a4d973:	41 08 d0             	or     %dl,%r8b
  a4d976:	75 e8                	jne    a4d960 <strcmp+0x10>
  a4d978:	31 c0                	xor    %eax,%eax
  a4d97a:	c3                   	retq   
  a4d97b:	0f 1f 44 00 00       	nopl   0x0(%rax,%rax,1)

0000000000a4d980 <strncmp>:
  a4d980:	f3 0f 1e fa          	endbr64 
  a4d984:	48 89 d1             	mov    %rdx,%rcx
  a4d987:	48 85 d2             	test   %rdx,%rdx
  a4d98a:	74 24                	je     a4d9b0 <strncmp+0x30>
  a4d98c:	31 c0                	xor    %eax,%eax
  a4d98e:	eb 0d                	jmp    a4d99d <strncmp+0x1d>
  a4d990:	84 d2                	test   %dl,%dl
  a4d992:	74 1c                	je     a4d9b0 <strncmp+0x30>
  a4d994:	48 83 c0 01          	add    $0x1,%rax
  a4d998:	48 39 c8             	cmp    %rcx,%rax
  a4d99b:	74 13                	je     a4d9b0 <strncmp+0x30>
  a4d99d:	0f b6 14 07          	movzbl (%rdi,%rax,1),%edx
  a4d9a1:	3a 14 06             	cmp    (%rsi,%rax,1),%dl
  a4d9a4:	74 ea                	je     a4d990 <strncmp+0x10>
  a4d9a6:	19 c0                	sbb    %eax,%eax
  a4d9a8:	83 c8 01             	or     $0x1,%eax
  a4d9ab:	c3                   	retq   
  a4d9ac:	0f 1f 40 00          	nopl   0x0(%rax)
  a4d9b0:	31 c0                	xor    %eax,%eax
  a4d9b2:	c3                   	retq   
  a4d9b3:	66 66 2e 0f 1f 84 00 	data16 nopw %cs:0x0(%rax,%rax,1)
  a4d9ba:	00 00 00 00 
  a4d9be:	66 90                	xchg   %ax,%ax

0000000000a4d9c0 <strnlen>:
  a4d9c0:	f3 0f 1e fa          	endbr64 
  a4d9c4:	80 3f 00             	cmpb   $0x0,(%rdi)
  a4d9c7:	74 27                	je     a4d9f0 <strnlen+0x30>
  a4d9c9:	48 85 f6             	test   %rsi,%rsi
  a4d9cc:	74 22                	je     a4d9f0 <strnlen+0x30>
  a4d9ce:	48 89 f8             	mov    %rdi,%rax
  a4d9d1:	eb 0a                	jmp    a4d9dd <strnlen+0x1d>
  a4d9d3:	0f 1f 44 00 00       	nopl   0x0(%rax,%rax,1)
  a4d9d8:	80 38 00             	cmpb   $0x0,(%rax)
  a4d9db:	74 0f                	je     a4d9ec <strnlen+0x2c>
  a4d9dd:	48 83 c0 01          	add    $0x1,%rax
  a4d9e1:	48 89 f2             	mov    %rsi,%rdx
  a4d9e4:	48 29 c2             	sub    %rax,%rdx
  a4d9e7:	48 01 fa             	add    %rdi,%rdx
  a4d9ea:	75 ec                	jne    a4d9d8 <strnlen+0x18>
  a4d9ec:	48 29 f8             	sub    %rdi,%rax
  a4d9ef:	c3                   	retq   
  a4d9f0:	31 c0                	xor    %eax,%eax
  a4d9f2:	c3                   	retq   
  a4d9f3:	66 66 2e 0f 1f 84 00 	data16 nopw %cs:0x0(%rax,%rax,1)
  a4d9fa:	00 00 00 00 
  a4d9fe:	66 90                	xchg   %ax,%ax

0000000000a4da00 <atou>:
  a4da00:	f3 0f 1e fa          	endbr64 
  a4da04:	0f be 07             	movsbl (%rdi),%eax
  a4da07:	45 31 c0             	xor    %r8d,%r8d
  a4da0a:	8d 50 d0             	lea    -0x30(%rax),%edx
  a4da0d:	83 fa 09             	cmp    $0x9,%edx
  a4da10:	77 1e                	ja     a4da30 <atou+0x30>
  a4da12:	66 0f 1f 44 00 00    	nopw   0x0(%rax,%rax,1)
  a4da18:	43 8d 14 80          	lea    (%r8,%r8,4),%edx
  a4da1c:	48 83 c7 01          	add    $0x1,%rdi
  a4da20:	44 8d 44 50 d0       	lea    -0x30(%rax,%rdx,2),%r8d
  a4da25:	0f be 07             	movsbl (%rdi),%eax
  a4da28:	8d 50 d0             	lea    -0x30(%rax),%edx
  a4da2b:	83 fa 09             	cmp    $0x9,%edx
  a4da2e:	76 e8                	jbe    a4da18 <atou+0x18>
  a4da30:	44 89 c0             	mov    %r8d,%eax
  a4da33:	c3                   	retq   
  a4da34:	66 66 2e 0f 1f 84 00 	data16 nopw %cs:0x0(%rax,%rax,1)
  a4da3b:	00 00 00 00 
  a4da3f:	90                   	nop

0000000000a4da40 <simple_strtoull>:
  a4da40:	f3 0f 1e fa          	endbr64 
  a4da44:	89 d1                	mov    %edx,%ecx
  a4da46:	0f b6 17             	movzbl (%rdi),%edx
  a4da49:	85 c9                	test   %ecx,%ecx
  a4da4b:	75 53                	jne    a4daa0 <simple_strtoull+0x60>
  a4da4d:	b9 0a 00 00 00       	mov    $0xa,%ecx
  a4da52:	80 fa 30             	cmp    $0x30,%dl
  a4da55:	74 79                	je     a4dad0 <simple_strtoull+0x90>
  a4da57:	45 31 c0             	xor    %r8d,%r8d
  a4da5a:	41 89 c9             	mov    %ecx,%r9d
  a4da5d:	eb 10                	jmp    a4da6f <simple_strtoull+0x2f>
  a4da5f:	90                   	nop
  a4da60:	4d 0f af c1          	imul   %r9,%r8
  a4da64:	0f b6 57 01          	movzbl 0x1(%rdi),%edx
  a4da68:	48 83 c7 01          	add    $0x1,%rdi
  a4da6c:	49 01 c0             	add    %rax,%r8
  a4da6f:	0f be c2             	movsbl %dl,%eax
  a4da72:	83 e8 30             	sub    $0x30,%eax
  a4da75:	83 f8 09             	cmp    $0x9,%eax
  a4da78:	76 15                	jbe    a4da8f <simple_strtoull+0x4f>
  a4da7a:	89 d0                	mov    %edx,%eax
  a4da7c:	83 e0 df             	and    $0xffffffdf,%eax
  a4da7f:	83 e8 41             	sub    $0x41,%eax
  a4da82:	3c 05                	cmp    $0x5,%al
  a4da84:	77 0d                	ja     a4da93 <simple_strtoull+0x53>
  a4da86:	83 ca 20             	or     $0x20,%edx
  a4da89:	0f be d2             	movsbl %dl,%edx
  a4da8c:	8d 42 a9             	lea    -0x57(%rdx),%eax
  a4da8f:	39 c8                	cmp    %ecx,%eax
  a4da91:	72 cd                	jb     a4da60 <simple_strtoull+0x20>
  a4da93:	48 85 f6             	test   %rsi,%rsi
  a4da96:	74 03                	je     a4da9b <simple_strtoull+0x5b>
  a4da98:	48 89 3e             	mov    %rdi,(%rsi)
  a4da9b:	4c 89 c0             	mov    %r8,%rax
  a4da9e:	c3                   	retq   
  a4da9f:	90                   	nop
  a4daa0:	83 f9 10             	cmp    $0x10,%ecx
  a4daa3:	75 b2                	jne    a4da57 <simple_strtoull+0x17>
  a4daa5:	80 fa 30             	cmp    $0x30,%dl
  a4daa8:	75 ad                	jne    a4da57 <simple_strtoull+0x17>
  a4daaa:	0f b6 47 01          	movzbl 0x1(%rdi),%eax
  a4daae:	83 c8 20             	or     $0x20,%eax
  a4dab1:	3c 78                	cmp    $0x78,%al
  a4dab3:	75 a2                	jne    a4da57 <simple_strtoull+0x17>
  a4dab5:	44 0f b6 47 02       	movzbl 0x2(%rdi),%r8d
  a4daba:	44 89 c2             	mov    %r8d,%edx
  a4dabd:	48 83 c7 02          	add    $0x2,%rdi
  a4dac1:	b9 10 00 00 00       	mov    $0x10,%ecx
  a4dac6:	eb 8f                	jmp    a4da57 <simple_strtoull+0x17>
  a4dac8:	0f 1f 84 00 00 00 00 	nopl   0x0(%rax,%rax,1)
  a4dacf:	00 
  a4dad0:	0f b6 47 01          	movzbl 0x1(%rdi),%eax
  a4dad4:	b9 08 00 00 00       	mov    $0x8,%ecx
  a4dad9:	83 c8 20             	or     $0x20,%eax
  a4dadc:	3c 78                	cmp    $0x78,%al
  a4dade:	0f 85 73 ff ff ff    	jne    a4da57 <simple_strtoull+0x17>
  a4dae4:	0f be 47 02          	movsbl 0x2(%rdi),%eax
  a4dae8:	41 89 c0             	mov    %eax,%r8d
  a4daeb:	83 e8 30             	sub    $0x30,%eax
  a4daee:	83 f8 09             	cmp    $0x9,%eax
  a4daf1:	76 c7                	jbe    a4daba <simple_strtoull+0x7a>
  a4daf3:	44 89 c0             	mov    %r8d,%eax
  a4daf6:	83 e0 df             	and    $0xffffffdf,%eax
  a4daf9:	83 e8 41             	sub    $0x41,%eax
  a4dafc:	3c 05                	cmp    $0x5,%al
  a4dafe:	76 ba                	jbe    a4daba <simple_strtoull+0x7a>
  a4db00:	e9 52 ff ff ff       	jmpq   a4da57 <simple_strtoull+0x17>
  a4db05:	66 66 2e 0f 1f 84 00 	data16 nopw %cs:0x0(%rax,%rax,1)
  a4db0c:	00 00 00 00 

0000000000a4db10 <simple_strtol>:
  a4db10:	f3 0f 1e fa          	endbr64 
  a4db14:	80 3f 2d             	cmpb   $0x2d,(%rdi)
  a4db17:	74 07                	je     a4db20 <simple_strtol+0x10>
  a4db19:	e9 22 ff ff ff       	jmpq   a4da40 <simple_strtoull>
  a4db1e:	66 90                	xchg   %ax,%ax
  a4db20:	48 83 c7 01          	add    $0x1,%rdi
  a4db24:	e8 17 ff ff ff       	callq  a4da40 <simple_strtoull>
  a4db29:	48 f7 d8             	neg    %rax
  a4db2c:	c3                   	retq   
  a4db2d:	0f 1f 00             	nopl   (%rax)

0000000000a4db30 <strlen>:
  a4db30:	f3 0f 1e fa          	endbr64 
  a4db34:	80 3f 00             	cmpb   $0x0,(%rdi)
  a4db37:	74 17                	je     a4db50 <strlen+0x20>
  a4db39:	48 89 f8             	mov    %rdi,%rax
  a4db3c:	0f 1f 40 00          	nopl   0x0(%rax)
  a4db40:	48 83 c0 01          	add    $0x1,%rax
  a4db44:	80 38 00             	cmpb   $0x0,(%rax)
  a4db47:	75 f7                	jne    a4db40 <strlen+0x10>
  a4db49:	48 29 f8             	sub    %rdi,%rax
  a4db4c:	c3                   	retq   
  a4db4d:	0f 1f 00             	nopl   (%rax)
  a4db50:	31 c0                	xor    %eax,%eax
  a4db52:	c3                   	retq   
  a4db53:	66 66 2e 0f 1f 84 00 	data16 nopw %cs:0x0(%rax,%rax,1)
  a4db5a:	00 00 00 00 
  a4db5e:	66 90                	xchg   %ax,%ax

0000000000a4db60 <strstr>:
  a4db60:	f3 0f 1e fa          	endbr64 
  a4db64:	80 3e 00             	cmpb   $0x0,(%rsi)
  a4db67:	48 89 f8             	mov    %rdi,%rax
  a4db6a:	49 89 f2             	mov    %rsi,%r10
  a4db6d:	0f 84 85 00 00 00    	je     a4dbf8 <strstr+0x98>
  a4db73:	48 89 f2             	mov    %rsi,%rdx
  a4db76:	66 2e 0f 1f 84 00 00 	nopw   %cs:0x0(%rax,%rax,1)
  a4db7d:	00 00 00 
  a4db80:	48 83 c2 01          	add    $0x1,%rdx
  a4db84:	80 3a 00             	cmpb   $0x0,(%rdx)
  a4db87:	75 f7                	jne    a4db80 <strstr+0x20>
  a4db89:	49 89 c1             	mov    %rax,%r9
  a4db8c:	4c 29 d2             	sub    %r10,%rdx
  a4db8f:	74 60                	je     a4dbf1 <strstr+0x91>
  a4db91:	80 38 00             	cmpb   $0x0,(%rax)
  a4db94:	74 58                	je     a4dbee <strstr+0x8e>
  a4db96:	48 89 c1             	mov    %rax,%rcx
  a4db99:	0f 1f 80 00 00 00 00 	nopl   0x0(%rax)
  a4dba0:	48 83 c1 01          	add    $0x1,%rcx
  a4dba4:	80 39 00             	cmpb   $0x0,(%rcx)
  a4dba7:	75 f7                	jne    a4dba0 <strstr+0x40>
  a4dba9:	48 29 c1             	sub    %rax,%rcx
  a4dbac:	49 89 c8             	mov    %rcx,%r8
  a4dbaf:	48 39 ca             	cmp    %rcx,%rdx
  a4dbb2:	77 3a                	ja     a4dbee <strstr+0x8e>
  a4dbb4:	48 89 c7             	mov    %rax,%rdi
  a4dbb7:	4c 89 d6             	mov    %r10,%rsi
  a4dbba:	48 89 d1             	mov    %rdx,%rcx
  a4dbbd:	f3 a6                	repz cmpsb %es:(%rdi),%ds:(%rsi)
  a4dbbf:	74 37                	je     a4dbf8 <strstr+0x98>
  a4dbc1:	48 83 c0 01          	add    $0x1,%rax
  a4dbc5:	48 89 c1             	mov    %rax,%rcx
  a4dbc8:	48 29 d1             	sub    %rdx,%rcx
  a4dbcb:	49 01 c8             	add    %rcx,%r8
  a4dbce:	eb 16                	jmp    a4dbe6 <strstr+0x86>
  a4dbd0:	48 89 c7             	mov    %rax,%rdi
  a4dbd3:	4c 89 d6             	mov    %r10,%rsi
  a4dbd6:	48 89 d1             	mov    %rdx,%rcx
  a4dbd9:	f3 a6                	repz cmpsb %es:(%rdi),%ds:(%rsi)
  a4dbdb:	0f 95 c1             	setne  %cl
  a4dbde:	48 83 c0 01          	add    $0x1,%rax
  a4dbe2:	84 c9                	test   %cl,%cl
  a4dbe4:	74 0b                	je     a4dbf1 <strstr+0x91>
  a4dbe6:	49 89 c1             	mov    %rax,%r9
  a4dbe9:	4c 39 c0             	cmp    %r8,%rax
  a4dbec:	75 e2                	jne    a4dbd0 <strstr+0x70>
  a4dbee:	45 31 c9             	xor    %r9d,%r9d
  a4dbf1:	4c 89 c8             	mov    %r9,%rax
  a4dbf4:	c3                   	retq   
  a4dbf5:	0f 1f 00             	nopl   (%rax)
  a4dbf8:	49 89 c1             	mov    %rax,%r9
  a4dbfb:	4c 89 c8             	mov    %r9,%rax
  a4dbfe:	c3                   	retq   
  a4dbff:	90                   	nop

0000000000a4dc00 <strchr>:
  a4dc00:	f3 0f 1e fa          	endbr64 
  a4dc04:	48 89 f8             	mov    %rdi,%rax
  a4dc07:	eb 0f                	jmp    a4dc18 <strchr+0x18>
  a4dc09:	0f 1f 80 00 00 00 00 	nopl   0x0(%rax)
  a4dc10:	48 83 c0 01          	add    $0x1,%rax
  a4dc14:	84 d2                	test   %dl,%dl
  a4dc16:	74 10                	je     a4dc28 <strchr+0x28>
  a4dc18:	0f b6 10             	movzbl (%rax),%edx
  a4dc1b:	40 38 f2             	cmp    %sil,%dl
  a4dc1e:	75 f0                	jne    a4dc10 <strchr+0x10>
  a4dc20:	c3                   	retq   
  a4dc21:	0f 1f 80 00 00 00 00 	nopl   0x0(%rax)
  a4dc28:	31 c0                	xor    %eax,%eax
  a4dc2a:	c3                   	retq   
  a4dc2b:	0f 1f 44 00 00       	nopl   0x0(%rax,%rax,1)

0000000000a4dc30 <memset>:
  a4dc30:	f3 0f 1e fa          	endbr64 
  a4dc34:	48 89 d1             	mov    %rdx,%rcx
  a4dc37:	49 89 f8             	mov    %rdi,%r8
  a4dc3a:	48 89 f8             	mov    %rdi,%rax
  a4dc3d:	48 01 fa             	add    %rdi,%rdx
  a4dc40:	48 85 c9             	test   %rcx,%rcx
  a4dc43:	74 0f                	je     a4dc54 <memset+0x24>
  a4dc45:	0f 1f 00             	nopl   (%rax)
  a4dc48:	40 88 30             	mov    %sil,(%rax)
  a4dc4b:	48 83 c0 01          	add    $0x1,%rax
  a4dc4f:	48 39 c2             	cmp    %rax,%rdx
  a4dc52:	75 f4                	jne    a4dc48 <memset+0x18>
  a4dc54:	4c 89 c0             	mov    %r8,%rax
  a4dc57:	c3                   	retq   
  a4dc58:	0f 1f 84 00 00 00 00 	nopl   0x0(%rax,%rax,1)
  a4dc5f:	00 

0000000000a4dc60 <memmove>:
  a4dc60:	f3 0f 1e fa          	endbr64 
  a4dc64:	49 89 f8             	mov    %rdi,%r8
  a4dc67:	48 39 f7             	cmp    %rsi,%rdi
  a4dc6a:	76 2c                	jbe    a4dc98 <memmove+0x38>
  a4dc6c:	48 89 f8             	mov    %rdi,%rax
  a4dc6f:	48 29 f0             	sub    %rsi,%rax
  a4dc72:	48 39 d0             	cmp    %rdx,%rax
  a4dc75:	73 21                	jae    a4dc98 <memmove+0x38>
  a4dc77:	48 8d 42 ff          	lea    -0x1(%rdx),%rax
  a4dc7b:	48 85 d2             	test   %rdx,%rdx
  a4dc7e:	74 2d                	je     a4dcad <memmove+0x4d>
  a4dc80:	0f b6 14 06          	movzbl (%rsi,%rax,1),%edx
  a4dc84:	41 88 14 00          	mov    %dl,(%r8,%rax,1)
  a4dc88:	48 83 e8 01          	sub    $0x1,%rax
  a4dc8c:	73 f2                	jae    a4dc80 <memmove+0x20>
  a4dc8e:	4c 89 c0             	mov    %r8,%rax
  a4dc91:	c3                   	retq   
  a4dc92:	66 0f 1f 44 00 00    	nopw   0x0(%rax,%rax,1)
  a4dc98:	48 89 d1             	mov    %rdx,%rcx
  a4dc9b:	4c 89 c7             	mov    %r8,%rdi
  a4dc9e:	83 e2 07             	and    $0x7,%edx
  a4dca1:	48 c1 e9 03          	shr    $0x3,%rcx
  a4dca5:	f3 48 a5             	rep movsq %ds:(%rsi),%es:(%rdi)
  a4dca8:	48 89 d1             	mov    %rdx,%rcx
  a4dcab:	f3 a4                	rep movsb %ds:(%rsi),%es:(%rdi)
  a4dcad:	4c 89 c0             	mov    %r8,%rax
  a4dcb0:	c3                   	retq   
  a4dcb1:	66 66 2e 0f 1f 84 00 	data16 nopw %cs:0x0(%rax,%rax,1)
  a4dcb8:	00 00 00 00 
  a4dcbc:	0f 1f 40 00          	nopl   0x0(%rax)

0000000000a4dcc0 <memcpy>:
  a4dcc0:	f3 0f 1e fa          	endbr64 
  a4dcc4:	48 89 f8             	mov    %rdi,%rax
  a4dcc7:	48 39 f7             	cmp    %rsi,%rdi
  a4dcca:	76 0b                	jbe    a4dcd7 <memcpy+0x17>
  a4dccc:	48 89 f9             	mov    %rdi,%rcx
  a4dccf:	48 29 f1             	sub    %rsi,%rcx
  a4dcd2:	48 39 d1             	cmp    %rdx,%rcx
  a4dcd5:	72 19                	jb     a4dcf0 <memcpy+0x30>
  a4dcd7:	48 89 d1             	mov    %rdx,%rcx
  a4dcda:	48 89 c7             	mov    %rax,%rdi
  a4dcdd:	83 e2 07             	and    $0x7,%edx
  a4dce0:	48 c1 e9 03          	shr    $0x3,%rcx
  a4dce4:	f3 48 a5             	rep movsq %ds:(%rsi),%es:(%rdi)
  a4dce7:	48 89 d1             	mov    %rdx,%rcx
  a4dcea:	f3 a4                	rep movsb %ds:(%rsi),%es:(%rdi)
  a4dcec:	c3                   	retq   
  a4dced:	0f 1f 00             	nopl   (%rax)
  a4dcf0:	48 83 ec 28          	sub    $0x28,%rsp
  a4dcf4:	48 89 7c 24 08       	mov    %rdi,0x8(%rsp)
  a4dcf9:	48 8d 3d b0 68 00 00 	lea    0x68b0(%rip),%rdi        # a545b0 <efi_MemoryOverWriteRequest_name+0x290>
  a4dd00:	48 89 54 24 18       	mov    %rdx,0x18(%rsp)
  a4dd05:	48 89 74 24 10       	mov    %rsi,0x10(%rsp)
  a4dd0a:	e8 11 04 00 00       	callq  a4e120 <warn>
  a4dd0f:	48 8b 44 24 08       	mov    0x8(%rsp),%rax
  a4dd14:	48 8b 54 24 18       	mov    0x18(%rsp),%rdx
  a4dd19:	48 8b 74 24 10       	mov    0x10(%rsp),%rsi
  a4dd1e:	48 83 c4 28          	add    $0x28,%rsp
  a4dd22:	48 89 c7             	mov    %rax,%rdi
  a4dd25:	e9 36 ff ff ff       	jmpq   a4dc60 <memmove>
  a4dd2a:	66 0f 1f 44 00 00    	nopw   0x0(%rax,%rax,1)

0000000000a4dd30 <__cmdline_find_option>:
  a4dd30:	f3 0f 1e fa          	endbr64 
  a4dd34:	48 85 ff             	test   %rdi,%rdi
  a4dd37:	0f 84 00 02 00 00    	je     a4df3d <__cmdline_find_option+0x20d>
  a4dd3d:	41 55                	push   %r13
  a4dd3f:	49 89 d2             	mov    %rdx,%r10
  a4dd42:	48 89 fa             	mov    %rdi,%rdx
  a4dd45:	49 89 f1             	mov    %rsi,%r9
  a4dd48:	41 54                	push   %r12
  a4dd4a:	89 ce                	mov    %ecx,%esi
  a4dd4c:	83 e2 0f             	and    $0xf,%edx
  a4dd4f:	48 89 f9             	mov    %rdi,%rcx
  a4dd52:	55                   	push   %rbp
  a4dd53:	48 83 e1 f0          	and    $0xfffffffffffffff0,%rcx
  a4dd57:	48 83 c2 01          	add    $0x1,%rdx
  a4dd5b:	4d 89 d3             	mov    %r10,%r11
  a4dd5e:	53                   	push   %rbx
  a4dd5f:	0f b6 07             	movzbl (%rdi),%eax
  a4dd62:	41 b8 ff ff ff ff    	mov    $0xffffffff,%r8d
  a4dd68:	bd 01 00 01 00       	mov    $0x10001,%ebp
  a4dd6d:	8d 5e ff             	lea    -0x1(%rsi),%ebx
  a4dd70:	84 c0                	test   %al,%al
  a4dd72:	74 6c                	je     a4dde0 <__cmdline_find_option+0xb0>
  a4dd74:	3c 20                	cmp    $0x20,%al
  a4dd76:	77 1c                	ja     a4dd94 <__cmdline_find_option+0x64>
  a4dd78:	48 81 fa ff ff 00 00 	cmp    $0xffff,%rdx
  a4dd7f:	77 5f                	ja     a4dde0 <__cmdline_find_option+0xb0>
  a4dd81:	0f b6 04 11          	movzbl (%rcx,%rdx,1),%eax
  a4dd85:	48 8d 7a 01          	lea    0x1(%rdx),%rdi
  a4dd89:	84 c0                	test   %al,%al
  a4dd8b:	74 53                	je     a4dde0 <__cmdline_find_option+0xb0>
  a4dd8d:	48 89 fa             	mov    %rdi,%rdx
  a4dd90:	3c 20                	cmp    $0x20,%al
  a4dd92:	76 e4                	jbe    a4dd78 <__cmdline_find_option+0x48>
  a4dd94:	45 0f b6 21          	movzbl (%r9),%r12d
  a4dd98:	4d 89 cd             	mov    %r9,%r13
  a4dd9b:	3c 3d                	cmp    $0x3d,%al
  a4dd9d:	0f 84 2d 01 00 00    	je     a4ded0 <__cmdline_find_option+0x1a0>
  a4dda3:	41 38 c4             	cmp    %al,%r12b
  a4dda6:	74 70                	je     a4de18 <__cmdline_find_option+0xe8>
  a4dda8:	48 81 fa ff ff 00 00 	cmp    $0xffff,%rdx
  a4ddaf:	77 2f                	ja     a4dde0 <__cmdline_find_option+0xb0>
  a4ddb1:	48 8d 42 01          	lea    0x1(%rdx),%rax
  a4ddb5:	0f b6 14 11          	movzbl (%rcx,%rdx,1),%edx
  a4ddb9:	84 d2                	test   %dl,%dl
  a4ddbb:	74 23                	je     a4dde0 <__cmdline_find_option+0xb0>
  a4ddbd:	80 fa 20             	cmp    $0x20,%dl
  a4ddc0:	76 36                	jbe    a4ddf8 <__cmdline_find_option+0xc8>
  a4ddc2:	48 3d 00 00 01 00    	cmp    $0x10000,%rax
  a4ddc8:	74 16                	je     a4dde0 <__cmdline_find_option+0xb0>
  a4ddca:	48 83 c0 01          	add    $0x1,%rax
  a4ddce:	0f b6 54 01 ff       	movzbl -0x1(%rcx,%rax,1),%edx
  a4ddd3:	84 d2                	test   %dl,%dl
  a4ddd5:	75 e6                	jne    a4ddbd <__cmdline_find_option+0x8d>
  a4ddd7:	66 0f 1f 84 00 00 00 	nopw   0x0(%rax,%rax,1)
  a4ddde:	00 00 
  a4dde0:	85 f6                	test   %esi,%esi
  a4dde2:	74 04                	je     a4dde8 <__cmdline_find_option+0xb8>
  a4dde4:	41 c6 03 00          	movb   $0x0,(%r11)
  a4dde8:	5b                   	pop    %rbx
  a4dde9:	44 89 c0             	mov    %r8d,%eax
  a4ddec:	5d                   	pop    %rbp
  a4dded:	41 5c                	pop    %r12
  a4ddef:	41 5d                	pop    %r13
  a4ddf1:	c3                   	retq   
  a4ddf2:	66 0f 1f 44 00 00    	nopw   0x0(%rax,%rax,1)
  a4ddf8:	48 3d 00 00 01 00    	cmp    $0x10000,%rax
  a4ddfe:	74 e0                	je     a4dde0 <__cmdline_find_option+0xb0>
  a4de00:	48 8d 50 01          	lea    0x1(%rax),%rdx
  a4de04:	0f b6 04 01          	movzbl (%rcx,%rax,1),%eax
  a4de08:	84 c0                	test   %al,%al
  a4de0a:	0f 85 64 ff ff ff    	jne    a4dd74 <__cmdline_find_option+0x44>
  a4de10:	eb ce                	jmp    a4dde0 <__cmdline_find_option+0xb0>
  a4de12:	66 0f 1f 44 00 00    	nopw   0x0(%rax,%rax,1)
  a4de18:	48 81 fa ff ff 00 00 	cmp    $0xffff,%rdx
  a4de1f:	77 bf                	ja     a4dde0 <__cmdline_find_option+0xb0>
  a4de21:	0f b6 04 11          	movzbl (%rcx,%rdx,1),%eax
  a4de25:	48 8d 7a 01          	lea    0x1(%rdx),%rdi
  a4de29:	84 c0                	test   %al,%al
  a4de2b:	74 b3                	je     a4dde0 <__cmdline_find_option+0xb0>
  a4de2d:	49 83 c5 01          	add    $0x1,%r13
  a4de31:	3c 3d                	cmp    $0x3d,%al
  a4de33:	74 2b                	je     a4de60 <__cmdline_find_option+0x130>
  a4de35:	3c 20                	cmp    $0x20,%al
  a4de37:	0f 87 f3 00 00 00    	ja     a4df30 <__cmdline_find_option+0x200>
  a4de3d:	48 81 ff 00 00 01 00 	cmp    $0x10000,%rdi
  a4de44:	74 9a                	je     a4dde0 <__cmdline_find_option+0xb0>
  a4de46:	0f b6 04 39          	movzbl (%rcx,%rdi,1),%eax
  a4de4a:	48 8d 57 01          	lea    0x1(%rdi),%rdx
  a4de4e:	84 c0                	test   %al,%al
  a4de50:	0f 85 1e ff ff ff    	jne    a4dd74 <__cmdline_find_option+0x44>
  a4de56:	eb 88                	jmp    a4dde0 <__cmdline_find_option+0xb0>
  a4de58:	0f 1f 84 00 00 00 00 	nopl   0x0(%rax,%rax,1)
  a4de5f:	00 
  a4de60:	45 0f b6 65 00       	movzbl 0x0(%r13),%r12d
  a4de65:	45 84 e4             	test   %r12b,%r12b
  a4de68:	75 56                	jne    a4dec0 <__cmdline_find_option+0x190>
  a4de6a:	48 81 ff 00 00 01 00 	cmp    $0x10000,%rdi
  a4de71:	74 77                	je     a4deea <__cmdline_find_option+0x1ba>
  a4de73:	0f b6 14 39          	movzbl (%rcx,%rdi,1),%edx
  a4de77:	48 8d 47 01          	lea    0x1(%rdi),%rax
  a4de7b:	84 d2                	test   %dl,%dl
  a4de7d:	74 6b                	je     a4deea <__cmdline_find_option+0x1ba>
  a4de7f:	89 ef                	mov    %ebp,%edi
  a4de81:	4d 89 d3             	mov    %r10,%r11
  a4de84:	45 31 c0             	xor    %r8d,%r8d
  a4de87:	29 c7                	sub    %eax,%edi
  a4de89:	80 fa 20             	cmp    $0x20,%dl
  a4de8c:	0f 86 66 ff ff ff    	jbe    a4ddf8 <__cmdline_find_option+0xc8>
  a4de92:	44 39 c3             	cmp    %r8d,%ebx
  a4de95:	7e 07                	jle    a4de9e <__cmdline_find_option+0x16e>
  a4de97:	41 88 13             	mov    %dl,(%r11)
  a4de9a:	49 83 c3 01          	add    $0x1,%r11
  a4de9e:	41 83 c0 01          	add    $0x1,%r8d
  a4dea2:	41 39 f8             	cmp    %edi,%r8d
  a4dea5:	0f 84 35 ff ff ff    	je     a4dde0 <__cmdline_find_option+0xb0>
  a4deab:	48 83 c0 01          	add    $0x1,%rax
  a4deaf:	0f b6 54 01 ff       	movzbl -0x1(%rcx,%rax,1),%edx
  a4deb4:	84 d2                	test   %dl,%dl
  a4deb6:	75 d1                	jne    a4de89 <__cmdline_find_option+0x159>
  a4deb8:	e9 23 ff ff ff       	jmpq   a4dde0 <__cmdline_find_option+0xb0>
  a4debd:	0f 1f 00             	nopl   (%rax)
  a4dec0:	48 89 fa             	mov    %rdi,%rdx
  a4dec3:	e9 db fe ff ff       	jmpq   a4dda3 <__cmdline_find_option+0x73>
  a4dec8:	0f 1f 84 00 00 00 00 	nopl   0x0(%rax,%rax,1)
  a4decf:	00 
  a4ded0:	45 84 e4             	test   %r12b,%r12b
  a4ded3:	75 23                	jne    a4def8 <__cmdline_find_option+0x1c8>
  a4ded5:	48 81 fa ff ff 00 00 	cmp    $0xffff,%rdx
  a4dedc:	77 0c                	ja     a4deea <__cmdline_find_option+0x1ba>
  a4dede:	48 8d 42 01          	lea    0x1(%rdx),%rax
  a4dee2:	0f b6 14 11          	movzbl (%rcx,%rdx,1),%edx
  a4dee6:	84 d2                	test   %dl,%dl
  a4dee8:	75 95                	jne    a4de7f <__cmdline_find_option+0x14f>
  a4deea:	4d 89 d3             	mov    %r10,%r11
  a4deed:	45 31 c0             	xor    %r8d,%r8d
  a4def0:	e9 eb fe ff ff       	jmpq   a4dde0 <__cmdline_find_option+0xb0>
  a4def5:	0f 1f 00             	nopl   (%rax)
  a4def8:	41 80 fc 3d          	cmp    $0x3d,%r12b
  a4defc:	0f 85 a6 fe ff ff    	jne    a4dda8 <__cmdline_find_option+0x78>
  a4df02:	48 81 fa ff ff 00 00 	cmp    $0xffff,%rdx
  a4df09:	0f 87 d1 fe ff ff    	ja     a4dde0 <__cmdline_find_option+0xb0>
  a4df0f:	0f b6 04 11          	movzbl (%rcx,%rdx,1),%eax
  a4df13:	48 8d 7a 01          	lea    0x1(%rdx),%rdi
  a4df17:	84 c0                	test   %al,%al
  a4df19:	0f 84 c1 fe ff ff    	je     a4dde0 <__cmdline_find_option+0xb0>
  a4df1f:	4d 8d 69 01          	lea    0x1(%r9),%r13
  a4df23:	e9 09 ff ff ff       	jmpq   a4de31 <__cmdline_find_option+0x101>
  a4df28:	0f 1f 84 00 00 00 00 	nopl   0x0(%rax,%rax,1)
  a4df2f:	00 
  a4df30:	45 0f b6 65 00       	movzbl 0x0(%r13),%r12d
  a4df35:	48 89 fa             	mov    %rdi,%rdx
  a4df38:	e9 66 fe ff ff       	jmpq   a4dda3 <__cmdline_find_option+0x73>
  a4df3d:	41 b8 ff ff ff ff    	mov    $0xffffffff,%r8d
  a4df43:	44 89 c0             	mov    %r8d,%eax
  a4df46:	c3                   	retq   
  a4df47:	66 0f 1f 84 00 00 00 	nopw   0x0(%rax,%rax,1)
  a4df4e:	00 00 

0000000000a4df50 <__cmdline_find_option_bool>:
  a4df50:	f3 0f 1e fa          	endbr64 
  a4df54:	49 89 f1             	mov    %rsi,%r9
  a4df57:	48 85 ff             	test   %rdi,%rdi
  a4df5a:	0f 84 2b 01 00 00    	je     a4e08b <__cmdline_find_option_bool+0x13b>
  a4df60:	48 89 fe             	mov    %rdi,%rsi
  a4df63:	49 89 f8             	mov    %rdi,%r8
  a4df66:	0f b6 3f             	movzbl (%rdi),%edi
  a4df69:	b8 01 00 00 00       	mov    $0x1,%eax
  a4df6e:	83 e6 0f             	and    $0xf,%esi
  a4df71:	49 83 e0 f0          	and    $0xfffffffffffffff0,%r8
  a4df75:	48 83 c6 01          	add    $0x1,%rsi
  a4df79:	40 84 ff             	test   %dil,%dil
  a4df7c:	74 62                	je     a4dfe0 <__cmdline_find_option_bool+0x90>
  a4df7e:	40 80 ff 20          	cmp    $0x20,%dil
  a4df82:	76 7c                	jbe    a4e000 <__cmdline_find_option_bool+0xb0>
  a4df84:	45 0f b6 11          	movzbl (%r9),%r10d
  a4df88:	89 c2                	mov    %eax,%edx
  a4df8a:	48 89 f1             	mov    %rsi,%rcx
  a4df8d:	45 84 d2             	test   %r10b,%r10b
  a4df90:	74 0e                	je     a4dfa0 <__cmdline_find_option_bool+0x50>
  a4df92:	41 38 fa             	cmp    %dil,%r10b
  a4df95:	0f 84 85 00 00 00    	je     a4e020 <__cmdline_find_option_bool+0xd0>
  a4df9b:	0f 1f 44 00 00       	nopl   0x0(%rax,%rax,1)
  a4dfa0:	48 81 f9 ff ff 00 00 	cmp    $0xffff,%rcx
  a4dfa7:	77 37                	ja     a4dfe0 <__cmdline_find_option_bool+0x90>
  a4dfa9:	48 8d 41 01          	lea    0x1(%rcx),%rax
  a4dfad:	83 c2 01             	add    $0x1,%edx
  a4dfb0:	41 0f b6 34 08       	movzbl (%r8,%rcx,1),%esi
  a4dfb5:	29 c2                	sub    %eax,%edx
  a4dfb7:	8d 0c 02             	lea    (%rdx,%rax,1),%ecx
  a4dfba:	40 84 f6             	test   %sil,%sil
  a4dfbd:	74 21                	je     a4dfe0 <__cmdline_find_option_bool+0x90>
  a4dfbf:	40 80 fe 20          	cmp    $0x20,%sil
  a4dfc3:	77 23                	ja     a4dfe8 <__cmdline_find_option_bool+0x98>
  a4dfc5:	48 3d 00 00 01 00    	cmp    $0x10000,%rax
  a4dfcb:	74 13                	je     a4dfe0 <__cmdline_find_option_bool+0x90>
  a4dfcd:	41 0f b6 3c 00       	movzbl (%r8,%rax,1),%edi
  a4dfd2:	48 8d 70 01          	lea    0x1(%rax),%rsi
  a4dfd6:	8d 41 01             	lea    0x1(%rcx),%eax
  a4dfd9:	40 84 ff             	test   %dil,%dil
  a4dfdc:	75 a0                	jne    a4df7e <__cmdline_find_option_bool+0x2e>
  a4dfde:	66 90                	xchg   %ax,%ax
  a4dfe0:	31 c0                	xor    %eax,%eax
  a4dfe2:	c3                   	retq   
  a4dfe3:	0f 1f 44 00 00       	nopl   0x0(%rax,%rax,1)
  a4dfe8:	48 3d 00 00 01 00    	cmp    $0x10000,%rax
  a4dfee:	74 f0                	je     a4dfe0 <__cmdline_find_option_bool+0x90>
  a4dff0:	48 83 c0 01          	add    $0x1,%rax
  a4dff4:	41 0f b6 74 00 ff    	movzbl -0x1(%r8,%rax,1),%esi
  a4dffa:	eb bb                	jmp    a4dfb7 <__cmdline_find_option_bool+0x67>
  a4dffc:	0f 1f 40 00          	nopl   0x0(%rax)
  a4e000:	48 81 fe ff ff 00 00 	cmp    $0xffff,%rsi
  a4e007:	77 d7                	ja     a4dfe0 <__cmdline_find_option_bool+0x90>
  a4e009:	41 0f b6 3c 30       	movzbl (%r8,%rsi,1),%edi
  a4e00e:	83 c0 01             	add    $0x1,%eax
  a4e011:	48 83 c6 01          	add    $0x1,%rsi
  a4e015:	e9 5f ff ff ff       	jmpq   a4df79 <__cmdline_find_option_bool+0x29>
  a4e01a:	66 0f 1f 44 00 00    	nopw   0x0(%rax,%rax,1)
  a4e020:	48 81 fe ff ff 00 00 	cmp    $0xffff,%rsi
  a4e027:	77 b7                	ja     a4dfe0 <__cmdline_find_option_bool+0x90>
  a4e029:	48 83 c1 01          	add    $0x1,%rcx
  a4e02d:	44 8d 50 01          	lea    0x1(%rax),%r10d
  a4e031:	4d 89 cb             	mov    %r9,%r11
  a4e034:	41 0f b6 3c 30       	movzbl (%r8,%rsi,1),%edi
  a4e039:	41 29 ca             	sub    %ecx,%r10d
  a4e03c:	49 29 f3             	sub    %rsi,%r11
  a4e03f:	41 0f b6 34 0b       	movzbl (%r11,%rcx,1),%esi
  a4e044:	41 8d 14 0a          	lea    (%r10,%rcx,1),%edx
  a4e048:	40 84 f6             	test   %sil,%sil
  a4e04b:	75 13                	jne    a4e060 <__cmdline_find_option_bool+0x110>
  a4e04d:	40 84 ff             	test   %dil,%dil
  a4e050:	74 90                	je     a4dfe2 <__cmdline_find_option_bool+0x92>
  a4e052:	40 80 ff 20          	cmp    $0x20,%dil
  a4e056:	0f 87 44 ff ff ff    	ja     a4dfa0 <__cmdline_find_option_bool+0x50>
  a4e05c:	c3                   	retq   
  a4e05d:	0f 1f 00             	nopl   (%rax)
  a4e060:	40 84 ff             	test   %dil,%dil
  a4e063:	0f 84 77 ff ff ff    	je     a4dfe0 <__cmdline_find_option_bool+0x90>
  a4e069:	40 38 fe             	cmp    %dil,%sil
  a4e06c:	0f 85 2e ff ff ff    	jne    a4dfa0 <__cmdline_find_option_bool+0x50>
  a4e072:	48 81 f9 00 00 01 00 	cmp    $0x10000,%rcx
  a4e079:	0f 84 61 ff ff ff    	je     a4dfe0 <__cmdline_find_option_bool+0x90>
  a4e07f:	48 83 c1 01          	add    $0x1,%rcx
  a4e083:	41 0f b6 7c 08 ff    	movzbl -0x1(%r8,%rcx,1),%edi
  a4e089:	eb b4                	jmp    a4e03f <__cmdline_find_option_bool+0xef>
  a4e08b:	b8 ff ff ff ff       	mov    $0xffffffff,%eax
  a4e090:	c3                   	retq   
  a4e091:	66 66 2e 0f 1f 84 00 	data16 nopw %cs:0x0(%rax,%rax,1)
  a4e098:	00 00 00 00 
  a4e09c:	0f 1f 40 00          	nopl   0x0(%rax)

0000000000a4e0a0 <get_cmd_line_ptr>:
  a4e0a0:	f3 0f 1e fa          	endbr64 
  a4e0a4:	48 8b 15 65 c0 01 00 	mov    0x1c065(%rip),%rdx        # a6a110 <boot_params>
  a4e0ab:	8b 82 c8 00 00 00    	mov    0xc8(%rdx),%eax
  a4e0b1:	8b 8a 28 02 00 00    	mov    0x228(%rdx),%ecx
  a4e0b7:	48 c1 e0 20          	shl    $0x20,%rax
  a4e0bb:	48 09 c8             	or     %rcx,%rax
  a4e0be:	c3                   	retq   
  a4e0bf:	90                   	nop

0000000000a4e0c0 <cmdline_find_option>:
  a4e0c0:	f3 0f 1e fa          	endbr64 
  a4e0c4:	48 8b 05 45 c0 01 00 	mov    0x1c045(%rip),%rax        # a6a110 <boot_params>
  a4e0cb:	49 89 f8             	mov    %rdi,%r8
  a4e0ce:	89 d1                	mov    %edx,%ecx
  a4e0d0:	8b b8 c8 00 00 00    	mov    0xc8(%rax),%edi
  a4e0d6:	8b 90 28 02 00 00    	mov    0x228(%rax),%edx
  a4e0dc:	48 c1 e7 20          	shl    $0x20,%rdi
  a4e0e0:	48 09 d7             	or     %rdx,%rdi
  a4e0e3:	48 89 f2             	mov    %rsi,%rdx
  a4e0e6:	4c 89 c6             	mov    %r8,%rsi
  a4e0e9:	e9 42 fc ff ff       	jmpq   a4dd30 <__cmdline_find_option>
  a4e0ee:	66 90                	xchg   %ax,%ax

0000000000a4e0f0 <cmdline_find_option_bool>:
  a4e0f0:	f3 0f 1e fa          	endbr64 
  a4e0f4:	48 8b 05 15 c0 01 00 	mov    0x1c015(%rip),%rax        # a6a110 <boot_params>
  a4e0fb:	48 89 fe             	mov    %rdi,%rsi
  a4e0fe:	8b b8 c8 00 00 00    	mov    0xc8(%rax),%edi
  a4e104:	8b 90 28 02 00 00    	mov    0x228(%rax),%edx
  a4e10a:	48 c1 e7 20          	shl    $0x20,%rdi
  a4e10e:	48 09 d7             	or     %rdx,%rdi
  a4e111:	e9 3a fe ff ff       	jmpq   a4df50 <__cmdline_find_option_bool>
  a4e116:	66 2e 0f 1f 84 00 00 	nopw   %cs:0x0(%rax,%rax,1)
  a4e11d:	00 00 00 

0000000000a4e120 <warn>:
  a4e120:	f3 0f 1e fa          	endbr64 
  a4e124:	55                   	push   %rbp
  a4e125:	48 89 fd             	mov    %rdi,%rbp
  a4e128:	48 8d 3d b3 64 00 00 	lea    0x64b3(%rip),%rdi        # a545e2 <efi_MemoryOverWriteRequest_name+0x2c2>
  a4e12f:	e8 6c f0 ff ff       	callq  a4d1a0 <__putstr>
  a4e134:	48 89 ef             	mov    %rbp,%rdi
  a4e137:	e8 64 f0 ff ff       	callq  a4d1a0 <__putstr>
  a4e13c:	48 8d 3d 9f 64 00 00 	lea    0x649f(%rip),%rdi        # a545e2 <efi_MemoryOverWriteRequest_name+0x2c2>
  a4e143:	5d                   	pop    %rbp
  a4e144:	e9 57 f0 ff ff       	jmpq   a4d1a0 <__putstr>
  a4e149:	0f 1f 80 00 00 00 00 	nopl   0x0(%rax)

0000000000a4e150 <error>:
  a4e150:	f3 0f 1e fa          	endbr64 
  a4e154:	50                   	push   %rax
  a4e155:	58                   	pop    %rax
  a4e156:	48 83 ec 08          	sub    $0x8,%rsp
  a4e15a:	e8 c1 ff ff ff       	callq  a4e120 <warn>
  a4e15f:	48 8d 3d 7f 64 00 00 	lea    0x647f(%rip),%rdi        # a545e5 <efi_MemoryOverWriteRequest_name+0x2c5>
  a4e166:	e8 35 f0 ff ff       	callq  a4d1a0 <__putstr>
  a4e16b:	0f 1f 44 00 00       	nopl   0x0(%rax,%rax,1)
  a4e170:	f4                   	hlt    
  a4e171:	eb fd                	jmp    a4e170 <error+0x20>
  a4e173:	66 2e 0f 1f 84 00 00 	nopw   %cs:0x0(%rax,%rax,1)
  a4e17a:	00 00 00 
  a4e17d:	0f 1f 00             	nopl   (%rax)

0000000000a4e180 <has_eflag>:
  a4e180:	f3 0f 1e fa          	endbr64 
  a4e184:	9c                   	pushfq 
  a4e185:	9c                   	pushfq 
  a4e186:	58                   	pop    %rax
  a4e187:	48 89 c2             	mov    %rax,%rdx
  a4e18a:	48 31 fa             	xor    %rdi,%rdx
  a4e18d:	52                   	push   %rdx
  a4e18e:	9d                   	popfq  
  a4e18f:	9c                   	pushfq 
  a4e190:	5a                   	pop    %rdx
  a4e191:	9d                   	popfq  
  a4e192:	48 31 d0             	xor    %rdx,%rax
  a4e195:	48 85 f8             	test   %rdi,%rax
