
vmlinux:     file format elf64-x86-64


Disassembly of section .head.text:

0000000000000000 <startup_32>:
   0:	fc                   	cld    
   1:	f6 86 11 02 00 00 40 	testb  $0x40,0x211(%esi)
   8:	75 0c                	jne    16 <startup_32+0x16>
   a:	fa                   	cli    
   b:	b8 18 00 00 00       	mov    $0x18,%eax
  10:	8e d8                	mov    %eax,%ds
  12:	8e c0                	mov    %eax,%es
  14:	8e d0                	mov    %eax,%ss
  16:	8d a6 e8 01 00 00    	lea    0x1e8(%esi),%esp
  1c:	e8 00 00 00 00       	call   21 <startup_32+0x21>
  21:	5d                   	pop    %ebp
  22:	81 ed 21 00 00 00    	sub    $0x21,%ebp
  28:	b8 00 a1 a6 00       	mov    $0xa6a100,%eax
  2d:	01 e8                	add    %ebp,%eax
  2f:	89 c4                	mov    %eax,%esp
  31:	e8 ea a4 a4 00       	call   a4a520 <verify_cpu>
  36:	85 c0                	test   %eax,%eax
  38:	0f 85 d2 a4 a4 00    	jne    a4a510 <no_longmode>
  3e:	89 eb                	mov    %ebp,%ebx
  40:	8b 86 30 02 00 00    	mov    0x230(%esi),%eax
  46:	48                   	dec    %eax
  47:	01 c3                	add    %eax,%ebx
  49:	f7 d0                	not    %eax
  4b:	21 c3                	and    %eax,%ebx
  4d:	81 fb 00 00 00 01    	cmp    $0x1000000,%ebx
  53:	73 05                	jae    5a <startup_32+0x5a>
  55:	bb 00 00 00 01       	mov    $0x1000000,%ebx
  5a:	8b 86 60 02 00 00    	mov    0x260(%esi),%eax
  60:	2d 00 00 a8 00       	sub    $0xa80000,%eax
  65:	01 c3                	add    %eax,%ebx
  67:	01 ad 72 5e a5 00    	add    %ebp,0xa55e72(%ebp)
  6d:	0f 01 95 70 5e a5 00 	lgdtl  0xa55e70(%ebp)
  74:	0f 20 e0             	mov    %cr4,%eax
  77:	83 c8 20             	or     $0x20,%eax
  7a:	0f 22 e0             	mov    %eax,%cr4
  7d:	e8 ce fc a4 00       	call   a4fd50 <get_sev_encryption_bit>
  82:	31 d2                	xor    %edx,%edx
  84:	85 c0                	test   %eax,%eax
  86:	74 06                	je     8e <startup_32+0x8e>
  88:	83 e8 20             	sub    $0x20,%eax
  8b:	0f ab c2             	bts    %eax,%edx
  8e:	8d bb 00 e0 a6 00    	lea    0xa6e000(%ebx),%edi
  94:	31 c0                	xor    %eax,%eax
  96:	b9 00 18 00 00       	mov    $0x1800,%ecx
  9b:	f3 ab                	rep stos %eax,%es:(%edi)
  9d:	8d bb 00 e0 a6 00    	lea    0xa6e000(%ebx),%edi
  a3:	8d 87 07 10 00 00    	lea    0x1007(%edi),%eax
  a9:	89 07                	mov    %eax,(%edi)
  ab:	01 57 04             	add    %edx,0x4(%edi)
  ae:	8d bb 00 f0 a6 00    	lea    0xa6f000(%ebx),%edi
  b4:	8d 87 07 10 00 00    	lea    0x1007(%edi),%eax
  ba:	b9 04 00 00 00       	mov    $0x4,%ecx
  bf:	89 07                	mov    %eax,(%edi)
  c1:	01 57 04             	add    %edx,0x4(%edi)
  c4:	05 00 10 00 00       	add    $0x1000,%eax
  c9:	83 c7 08             	add    $0x8,%edi
  cc:	49                   	dec    %ecx
  cd:	75 f0                	jne    bf <startup_32+0xbf>
  cf:	8d bb 00 00 a7 00    	lea    0xa70000(%ebx),%edi
  d5:	b8 83 01 00 00       	mov    $0x183,%eax
  da:	b9 00 08 00 00       	mov    $0x800,%ecx
  df:	89 07                	mov    %eax,(%edi)
  e1:	01 57 04             	add    %edx,0x4(%edi)
  e4:	05 00 00 20 00       	add    $0x200000,%eax
  e9:	83 c7 08             	add    $0x8,%edi
  ec:	49                   	dec    %ecx
  ed:	75 f0                	jne    df <startup_32+0xdf>
  ef:	8d 83 00 e0 a6 00    	lea    0xa6e000(%ebx),%eax
  f5:	0f 22 d8             	mov    %eax,%cr3
  f8:	b9 80 00 00 c0       	mov    $0xc0000080,%ecx
  fd:	0f 32                	rdmsr  
  ff:	0f ba e8 08          	bts    $0x8,%eax
 103:	0f 30                	wrmsr  
 105:	31 c0                	xor    %eax,%eax
 107:	0f 00 d0             	lldt   %ax
 10a:	b8 20 00 00 00       	mov    $0x20,%eax
 10f:	0f 00 d8             	ltr    %ax
 112:	6a 10                	push   $0x10
 114:	8d 85 00 02 00 00    	lea    0x200(%ebp),%eax
 11a:	8b 9d a8 5e a5 00    	mov    0xa55ea8(%ebp),%ebx
 120:	83 fb 00             	cmp    $0x0,%ebx
 123:	74 06                	je     12b <startup_32+0x12b>
 125:	8d 85 40 03 00 00    	lea    0x340(%ebp),%eax
 12b:	50                   	push   %eax
 12c:	b8 01 00 00 80       	mov    $0x80000001,%eax
 131:	0f 22 c0             	mov    %eax,%cr0
 134:	cb                   	lret   
	...

0000000000000190 <efi32_stub_entry>:
 190:	83 c4 04             	add    $0x4,%esp
 193:	59                   	pop    %ecx
 194:	5a                   	pop    %edx
 195:	5e                   	pop    %esi
 196:	8d a6 e8 01 00 00    	lea    0x1e8(%esi),%esp
 19c:	e8 00 00 00 00       	call   1a1 <efi32_stub_entry+0x11>
 1a1:	5d                   	pop    %ebp
 1a2:	81 ed a1 01 00 00    	sub    $0x1a1,%ebp
 1a8:	89 8d a8 5e a5 00    	mov    %ecx,0xa55ea8(%ebp)
 1ae:	89 95 b0 5e a5 00    	mov    %edx,0xa55eb0(%ebp)
 1b4:	0f 01 85 48 5f a5 00 	sgdtl  0xa55f48(%ebp)
 1bb:	8d 85 a8 5e a5 00    	lea    0xa55ea8(%ebp),%eax
 1c1:	89 85 a0 5e a5 00    	mov    %eax,0xa55ea0(%ebp)
 1c7:	0f 20 c0             	mov    %cr0,%eax
 1ca:	0f ba f0 1f          	btr    $0x1f,%eax
 1ce:	0f 22 c0             	mov    %eax,%cr0
 1d1:	e9 2a fe ff ff       	jmp    0 <startup_32>
	...

0000000000000200 <startup_64>:
 200:	31 c0                	xor    %eax,%eax
 202:	8e d8                	mov    %eax,%ds
 204:	8e c0                	mov    %eax,%es
 206:	8e d0                	mov    %eax,%ss
 208:	8e e0                	mov    %eax,%fs
 20a:	8e e8                	mov    %eax,%gs
 20c:	48                   	dec    %eax
 20d:	8d 2d ed fd ff ff    	lea    0xfffffded,%ebp
 213:	8b 86 30 02 00 00    	mov    0x230(%esi),%eax
 219:	ff c8                	dec    %eax
 21b:	48                   	dec    %eax
 21c:	01 c5                	add    %eax,%ebp
 21e:	48                   	dec    %eax
 21f:	f7 d0                	not    %eax
 221:	48                   	dec    %eax
 222:	21 c5                	and    %eax,%ebp
 224:	48                   	dec    %eax
 225:	81 fd 00 00 00 01    	cmp    $0x1000000,%ebp
 22b:	73 07                	jae    234 <startup_64+0x34>
 22d:	48                   	dec    %eax
 22e:	c7 c5 00 00 00 01    	mov    $0x1000000,%ebp
 234:	8b 9e 60 02 00 00    	mov    0x260(%esi),%ebx
 23a:	81 eb 00 00 a8 00    	sub    $0xa80000,%ebx
 240:	48                   	dec    %eax
 241:	01 eb                	add    %ebp,%ebx
 243:	48                   	dec    %eax
 244:	8d a3 00 a1 a6 00    	lea    0xa6a100(%ebx),%esp
 24a:	48                   	dec    %eax
 24b:	31 c0                	xor    %eax,%eax
 24d:	e8 00 00 00 00       	call   252 <startup_64+0x52>
 252:	5f                   	pop    %edi
 253:	48                   	dec    %eax
 254:	81 ef 52 02 00 00    	sub    $0x252,%edi
 25a:	e8 14 a2 a4 00       	call   a4a473 <adjust_got>
 25f:	48                   	dec    %eax
 260:	8d 05 0a 5c a5 00    	lea    0xa55c0a,%eax
 266:	48                   	dec    %eax
 267:	89 05 f5 5b a5 00    	mov    %eax,0xa55bf5
 26d:	0f 01 15 ec 5b a5 00 	lgdtl  0xa55bec
 274:	56                   	push   %esi
 275:	48                   	dec    %eax
 276:	89 f7                	mov    %esi,%edi
 278:	e8 43 fb a4 00       	call   a4fdc0 <paging_prepare>
 27d:	5e                   	pop    %esi
 27e:	48                   	dec    %eax
 27f:	89 c1                	mov    %eax,%ecx
 281:	48                   	dec    %eax
 282:	8d 3d 0c 00 00 00    	lea    0xc,%edi
 288:	6a 08                	push   $0x8
 28a:	48                   	dec    %eax
 28b:	8d 80 00 10 00 00    	lea    0x1000(%eax),%eax
 291:	50                   	push   %eax
 292:	48                   	dec    %eax
 293:	cb                   	lret   

0000000000000294 <trampoline_return>:
 294:	48                   	dec    %eax
 295:	8d a3 00 a1 a6 00    	lea    0xa6a100(%ebx),%esp
 29b:	56                   	push   %esi
 29c:	48                   	dec    %eax
 29d:	8d bb 00 f0 a7 00    	lea    0xa7f000(%ebx),%edi
 2a3:	e8 f8 fd a4 00       	call   a500a0 <cleanup_trampoline>
 2a8:	5e                   	pop    %esi
 2a9:	6a 00                	push   $0x0
 2ab:	9d                   	popf   
 2ac:	e8 00 00 00 00       	call   2b1 <trampoline_return+0x1d>
 2b1:	58                   	pop    %eax
 2b2:	48                   	dec    %eax
 2b3:	2d b1 02 00 00       	sub    $0x2b1,%eax
 2b8:	48                   	dec    %eax
 2b9:	89 df                	mov    %ebx,%edi
 2bb:	e8 b3 a1 a4 00       	call   a4a473 <adjust_got>
 2c0:	56                   	push   %esi
 2c1:	48                   	dec    %eax
 2c2:	8d 35 30 5e a5 00    	lea    0xa55e30,%esi
 2c8:	48                   	dec    %eax
 2c9:	8d bb f8 60 a5 00    	lea    0xa560f8(%ebx),%edi
 2cf:	48                   	dec    %eax
 2d0:	c7 c1 00 61 a5 00    	mov    $0xa56100,%ecx
 2d6:	48                   	dec    %eax
 2d7:	c1 e9 03             	shr    $0x3,%ecx
 2da:	fd                   	std    
 2db:	f3 48                	repz dec %eax
 2dd:	a5                   	movsl  %ds:(%esi),%es:(%edi)
 2de:	fc                   	cld    
 2df:	5e                   	pop    %esi
 2e0:	48                   	dec    %eax
 2e1:	8d 83 30 a4 a4 00    	lea    0xa4a430(%ebx),%eax
 2e7:	ff e0                	jmp    *%eax
 2e9:	0f 1f 80 00 00 00 00 	nopl   0x0(%eax)

00000000000002f0 <efi_pe_entry>:
 2f0:	48                   	dec    %eax
 2f1:	89 0d e2 5b a5 00    	mov    %ecx,0xa55be2
 2f7:	48                   	dec    %eax
 2f8:	89 15 e3 5b a5 00    	mov    %edx,0xa55be3
 2fe:	48                   	dec    %eax
 2ff:	8d 05 d4 5b a5 00    	lea    0xa55bd4,%eax
 305:	48                   	dec    %eax
 306:	89 05 94 5b a5 00    	mov    %eax,0xa55b94
 30c:	e8 00 00 00 00       	call   311 <efi_pe_entry+0x21>
 311:	5d                   	pop    %ebp
 312:	48                   	dec    %eax
 313:	81 ed 11 03 00 00    	sub    $0x311,%ebp
 319:	48                   	dec    %eax
 31a:	01 2d e1 5b a5 00    	add    %ebp,0xa55be1
 320:	48                   	dec    %eax
 321:	89 c7                	mov    %eax,%edi
 323:	e8 98 03 a5 00       	call   a506c0 <make_boot_params>
 328:	48                   	dec    %eax
 329:	83 f8 00             	cmp    $0x0,%eax
 32c:	74 3f                	je     36d <fail>
 32e:	48                   	dec    %eax
 32f:	89 c6                	mov    %eax,%esi
 331:	48                   	dec    %eax
 332:	8d 05 c8 fc ff ff    	lea    0xfffffcc8,%eax
 338:	89 86 14 02 00 00    	mov    %eax,0x214(%esi)
 33e:	eb 18                	jmp    358 <handover_entry+0x18>

0000000000000340 <handover_entry>:
 340:	e8 00 00 00 00       	call   345 <handover_entry+0x5>
 345:	5d                   	pop    %ebp
 346:	48                   	dec    %eax
 347:	81 ed 45 03 00 00    	sub    $0x345,%ebp
 34d:	48                   	dec    %eax
 34e:	8b 05 4c 5b a5 00    	mov    0xa55b4c,%eax
 354:	48                   	dec    %eax
 355:	01 68 28             	add    %ebp,0x28(%eax)
 358:	48                   	dec    %eax
 359:	8b 3d 41 5b a5 00    	mov    0xa55b41,%edi
 35f:	e8 bc 06 a5 00       	call   a50a20 <efi_main>
 364:	48                   	dec    %eax
 365:	89 c6                	mov    %eax,%esi
 367:	48                   	dec    %eax
 368:	83 f8 00             	cmp    $0x0,%eax
 36b:	75 03                	jne    370 <fail+0x3>

000000000000036d <fail>:
 36d:	f4                   	hlt    
 36e:	eb fd                	jmp    36d <fail>
 370:	67 8b 86 14 02       	mov    0x214(%bp),%eax
 375:	00 00                	add    %al,(%eax)
 377:	48                   	dec    %eax
 378:	8d 80 00 02 00 00    	lea    0x200(%eax),%eax
 37e:	ff e0                	jmp    *%eax
	...

0000000000000390 <efi64_stub_entry>:
 390:	48                   	dec    %eax
 391:	89 3d 42 5b a5 00    	mov    %edi,0xa55b42
 397:	48                   	dec    %eax
 398:	89 35 43 5b a5 00    	mov    %esi,0xa55b43
 39e:	48                   	dec    %eax
 39f:	8d 05 34 5b a5 00    	lea    0xa55b34,%eax
 3a5:	48                   	dec    %eax
 3a6:	89 05 f4 5a a5 00    	mov    %eax,0xa55af4
 3ac:	48                   	dec    %eax
 3ad:	89 d6                	mov    %edx,%esi
 3af:	eb 8f                	jmp    340 <handover_entry>

Disassembly of section .text:

0000000000a4a430 <_text>:
  a4a430:	31 c0                	xor    %eax,%eax
  a4a432:	48                   	dec    %eax
  a4a433:	8d 3d c7 bc 00 00    	lea    0xbcc7,%edi
  a4a439:	48                   	dec    %eax
  a4a43a:	8d 0d 50 35 02 00    	lea    0x23550,%ecx
  a4a440:	48                   	dec    %eax
  a4a441:	29 f9                	sub    %edi,%ecx
  a4a443:	48                   	dec    %eax
  a4a444:	c1 e9 03             	shr    $0x3,%ecx
  a4a447:	f3 48                	repz dec %eax
  a4a449:	ab                   	stos   %eax,%es:(%edi)
  a4a44a:	56                   	push   %esi
  a4a44b:	48                   	dec    %eax
  a4a44c:	89 f7                	mov    %esi,%edi
  a4a44e:	48                   	dec    %eax
  a4a44f:	8d 35 ab bc 00 00    	lea    0xbcab,%esi
  a4a455:	48                   	dec    %eax
  a4a456:	8d 15 55 5f 5b ff    	lea    0xff5b5f55,%edx
  a4a45c:	b9 77 a0 a4 00       	mov    $0xa4a077,%ecx
  a4a461:	49                   	dec    %ecx
  a4a462:	89 e8                	mov    %ebp,%eax
  a4a464:	49                   	dec    %ecx
  a4a465:	c7 c1 78 ba 02 02    	mov    $0x202ba78,%ecx
  a4a46b:	e8 40 2f 00 00       	call   a4d3b0 <extract_kernel>
  a4a470:	5e                   	pop    %esi
  a4a471:	ff e0                	jmp    *%eax

0000000000a4a473 <adjust_got>:
  a4a473:	48                   	dec    %eax
  a4a474:	8d 15 e6 b9 00 00    	lea    0xb9e6,%edx
  a4a47a:	48                   	dec    %eax
  a4a47b:	8d 0d df b9 00 00    	lea    0xb9df,%ecx
  a4a481:	48                   	dec    %eax
  a4a482:	39 ca                	cmp    %ecx,%edx
  a4a484:	73 0c                	jae    a4a492 <adjust_got+0x1f>
  a4a486:	48                   	dec    %eax
  a4a487:	29 02                	sub    %eax,(%edx)
  a4a489:	48                   	dec    %eax
  a4a48a:	01 3a                	add    %edi,(%edx)
  a4a48c:	48                   	dec    %eax
  a4a48d:	83 c2 08             	add    $0x8,%edx
  a4a490:	eb ef                	jmp    a4a481 <adjust_got+0xe>
  a4a492:	c3                   	ret    
  a4a493:	66 66 2e 0f 1f 84 00 	data16 nopw %cs:0x0(%eax,%eax,1)
  a4a49a:	00 00 00 00 
  a4a49e:	66 90                	xchg   %ax,%ax

0000000000a4a4a0 <trampoline_32bit_src>:
  a4a4a0:	b8 18 00 00 00       	mov    $0x18,%eax
  a4a4a5:	8e d8                	mov    %eax,%ds
  a4a4a7:	8e d0                	mov    %eax,%ss
  a4a4a9:	8d a1 00 20 00 00    	lea    0x2000(%ecx),%esp
  a4a4af:	0f 20 c0             	mov    %cr0,%eax
  a4a4b2:	0f ba f0 1f          	btr    $0x1f,%eax
  a4a4b6:	0f 22 c0             	mov    %eax,%cr0
  a4a4b9:	83 fa 00             	cmp    $0x0,%edx
  a4a4bc:	74 0c                	je     a4a4ca <trampoline_32bit_src+0x2a>
  a4a4be:	0f 20 e0             	mov    %cr4,%eax
  a4a4c1:	a9 00 10 00 00       	test   $0x1000,%eax
  a4a4c6:	75 11                	jne    a4a4d9 <trampoline_32bit_src+0x39>
  a4a4c8:	eb 0a                	jmp    a4a4d4 <trampoline_32bit_src+0x34>
  a4a4ca:	0f 20 e0             	mov    %cr4,%eax
  a4a4cd:	a9 00 10 00 00       	test   $0x1000,%eax
  a4a4d2:	74 05                	je     a4a4d9 <trampoline_32bit_src+0x39>
  a4a4d4:	8d 01                	lea    (%ecx),%eax
  a4a4d6:	0f 22 d8             	mov    %eax,%cr3
  a4a4d9:	51                   	push   %ecx
  a4a4da:	52                   	push   %edx
  a4a4db:	b9 80 00 00 c0       	mov    $0xc0000080,%ecx
  a4a4e0:	0f 32                	rdmsr  
  a4a4e2:	0f ba e8 08          	bts    $0x8,%eax
  a4a4e6:	0f 30                	wrmsr  
  a4a4e8:	5a                   	pop    %edx
  a4a4e9:	59                   	pop    %ecx
  a4a4ea:	b8 20 00 00 00       	mov    $0x20,%eax
  a4a4ef:	83 fa 00             	cmp    $0x0,%edx
  a4a4f2:	74 05                	je     a4a4f9 <trampoline_32bit_src+0x59>
  a4a4f4:	0d 00 10 00 00       	or     $0x1000,%eax
  a4a4f9:	0f 22 e0             	mov    %eax,%cr4
  a4a4fc:	8d 81 6e 10 00 00    	lea    0x106e(%ecx),%eax
  a4a502:	6a 10                	push   $0x10
  a4a504:	50                   	push   %eax
  a4a505:	b8 01 00 00 80       	mov    $0x80000001,%eax
  a4a50a:	0f 22 c0             	mov    %eax,%cr0
  a4a50d:	cb                   	lret   

0000000000a4a50e <paging_enabled>:
  a4a50e:	ff e7                	jmp    *%edi

0000000000a4a510 <no_longmode>:
  a4a510:	f4                   	hlt    
  a4a511:	eb fd                	jmp    a4a510 <no_longmode>
  a4a513:	66 66 2e 0f 1f 84 00 	data16 nopw %cs:0x0(%eax,%eax,1)
  a4a51a:	00 00 00 00 
  a4a51e:	66 90                	xchg   %ax,%ax

0000000000a4a520 <verify_cpu>:
  a4a520:	9c                   	pushf  
  a4a521:	6a 00                	push   $0x0
  a4a523:	9d                   	popf   
  a4a524:	b8 00 00 00 00       	mov    $0x0,%eax
  a4a529:	0f a2                	cpuid  
  a4a52b:	83 f8 01             	cmp    $0x1,%eax
  a4a52e:	0f 82 d2 00 00 00    	jb     a4a606 <verify_cpu+0xe6>
  a4a534:	66 31 ff             	xor    %di,%di
  a4a537:	81 fb 41 75 74 68    	cmp    $0x68747541,%ebx
  a4a53d:	75 16                	jne    a4a555 <verify_cpu+0x35>
  a4a53f:	81 fa 65 6e 74 69    	cmp    $0x69746e65,%edx
  a4a545:	75 0e                	jne    a4a555 <verify_cpu+0x35>
  a4a547:	81 f9 63 41 4d 44    	cmp    $0x444d4163,%ecx
  a4a54d:	75 06                	jne    a4a555 <verify_cpu+0x35>
  a4a54f:	66 bf 01 00          	mov    $0x1,%di
  a4a553:	eb 4d                	jmp    a4a5a2 <verify_cpu+0x82>
  a4a555:	81 fb 47 65 6e 75    	cmp    $0x756e6547,%ebx
  a4a55b:	75 45                	jne    a4a5a2 <verify_cpu+0x82>
  a4a55d:	81 fa 69 6e 65 49    	cmp    $0x49656e69,%edx
  a4a563:	75 3d                	jne    a4a5a2 <verify_cpu+0x82>
  a4a565:	81 f9 6e 74 65 6c    	cmp    $0x6c65746e,%ecx
  a4a56b:	75 35                	jne    a4a5a2 <verify_cpu+0x82>
  a4a56d:	b8 01 00 00 00       	mov    $0x1,%eax
  a4a572:	0f a2                	cpuid  
  a4a574:	89 c1                	mov    %eax,%ecx
  a4a576:	25 00 0f f0 0f       	and    $0xff00f00,%eax
  a4a57b:	c1 e8 08             	shr    $0x8,%eax
  a4a57e:	83 f8 06             	cmp    $0x6,%eax
  a4a581:	77 10                	ja     a4a593 <verify_cpu+0x73>
  a4a583:	72 1d                	jb     a4a5a2 <verify_cpu+0x82>
  a4a585:	81 e1 f0 00 0f 00    	and    $0xf00f0,%ecx
  a4a58b:	c1 e9 04             	shr    $0x4,%ecx
  a4a58e:	83 f9 0d             	cmp    $0xd,%ecx
  a4a591:	72 0f                	jb     a4a5a2 <verify_cpu+0x82>
  a4a593:	b9 a0 01 00 00       	mov    $0x1a0,%ecx
  a4a598:	0f 32                	rdmsr  
  a4a59a:	0f ba f2 02          	btr    $0x2,%edx
  a4a59e:	73 02                	jae    a4a5a2 <verify_cpu+0x82>
  a4a5a0:	0f 30                	wrmsr  
  a4a5a2:	b8 01 00 00 00       	mov    $0x1,%eax
  a4a5a7:	0f a2                	cpuid  
  a4a5a9:	81 e2 61 81 00 07    	and    $0x7008161,%edx
  a4a5af:	81 f2 61 81 00 07    	xor    $0x7008161,%edx
  a4a5b5:	75 4f                	jne    a4a606 <verify_cpu+0xe6>
  a4a5b7:	b8 00 00 00 80       	mov    $0x80000000,%eax
  a4a5bc:	0f a2                	cpuid  
  a4a5be:	3d 01 00 00 80       	cmp    $0x80000001,%eax
  a4a5c3:	72 41                	jb     a4a606 <verify_cpu+0xe6>
  a4a5c5:	b8 01 00 00 80       	mov    $0x80000001,%eax
  a4a5ca:	0f a2                	cpuid  
  a4a5cc:	81 e2 00 00 00 20    	and    $0x20000000,%edx
  a4a5d2:	81 f2 00 00 00 20    	xor    $0x20000000,%edx
  a4a5d8:	75 2c                	jne    a4a606 <verify_cpu+0xe6>
  a4a5da:	b8 01 00 00 00       	mov    $0x1,%eax
  a4a5df:	0f a2                	cpuid  
  a4a5e1:	81 e2 00 00 00 06    	and    $0x6000000,%edx
  a4a5e7:	81 fa 00 00 00 06    	cmp    $0x6000000,%edx
  a4a5ed:	74 1e                	je     a4a60d <verify_cpu+0xed>
  a4a5ef:	66 85 ff             	test   %di,%di
  a4a5f2:	74 12                	je     a4a606 <verify_cpu+0xe6>
  a4a5f4:	b9 15 00 01 c0       	mov    $0xc0010015,%ecx
  a4a5f9:	0f 32                	rdmsr  
  a4a5fb:	0f ba f0 0f          	btr    $0xf,%eax
  a4a5ff:	0f 30                	wrmsr  
  a4a601:	66 31 ff             	xor    %di,%di
  a4a604:	eb d4                	jmp    a4a5da <verify_cpu+0xba>
  a4a606:	9d                   	popf   
  a4a607:	b8 01 00 00 00       	mov    $0x1,%eax
  a4a60c:	c3                   	ret    
  a4a60d:	9d                   	popf   
  a4a60e:	31 c0                	xor    %eax,%eax
  a4a610:	c3                   	ret    
  a4a611:	66 2e 0f 1f 84 00 00 	nopw   %cs:0x0(%eax,%eax,1)
  a4a618:	00 00 00 
  a4a61b:	0f 1f 44 00 00       	nopl   0x0(%eax,%eax,1)

0000000000a4a620 <scroll>:
  a4a620:	8b 05 0e 0b 02 00    	mov    0x20b0e,%eax
  a4a626:	48                   	dec    %eax
  a4a627:	8b 0d 13 0b 02 00    	mov    0x20b13,%ecx
  a4a62d:	41                   	inc    %ecx
  a4a62e:	54                   	push   %esp
  a4a62f:	44                   	inc    %esp
  a4a630:	8b 25 fa 0a 02 00    	mov    0x20afa,%esp
  a4a636:	55                   	push   %ebp
  a4a637:	8d 68 ff             	lea    -0x1(%eax),%ebp
  a4a63a:	53                   	push   %ebx
  a4a63b:	48                   	dec    %eax
  a4a63c:	89 cf                	mov    %ecx,%edi
  a4a63e:	41                   	inc    %ecx
  a4a63f:	0f af ec             	imul   %esp,%ebp
  a4a642:	43                   	inc    %ebx
  a4a643:	8d 34 24             	lea    (%esp),%esi
  a4a646:	48                   	dec    %eax
  a4a647:	63 f6                	arpl   %si,%si
  a4a649:	48                   	dec    %eax
  a4a64a:	01 ce                	add    %ecx,%esi
  a4a64c:	8d 5c 2d 00          	lea    0x0(%ebp,%ebp,1),%ebx
  a4a650:	41                   	inc    %ecx
  a4a651:	01 ec                	add    %ebp,%esp
  a4a653:	48                   	dec    %eax
  a4a654:	63 db                	arpl   %bx,%bx
  a4a656:	48                   	dec    %eax
  a4a657:	89 da                	mov    %ebx,%edx
  a4a659:	e8 02 36 00 00       	call   a4dc60 <memmove>
  a4a65e:	44                   	inc    %esp
  a4a65f:	39 e5                	cmp    %esp,%ebp
  a4a661:	7d 19                	jge    a4a67c <scroll+0x5c>
  a4a663:	48                   	dec    %eax
  a4a664:	89 c1                	mov    %eax,%ecx
  a4a666:	43                   	inc    %ebx
  a4a667:	8d 04 24             	lea    (%esp),%eax
  a4a66a:	66 0f 1f 44 00 00    	nopw   0x0(%eax,%eax,1)
  a4a670:	c6 04 19 20          	movb   $0x20,(%ecx,%ebx,1)
  a4a674:	48                   	dec    %eax
  a4a675:	83 c3 02             	add    $0x2,%ebx
  a4a678:	39 d8                	cmp    %ebx,%eax
  a4a67a:	7f f4                	jg     a4a670 <scroll+0x50>
  a4a67c:	5b                   	pop    %ebx
  a4a67d:	5d                   	pop    %ebp
  a4a67e:	41                   	inc    %ecx
  a4a67f:	5c                   	pop    %esp
  a4a680:	c3                   	ret    
  a4a681:	66 66 2e 0f 1f 84 00 	data16 nopw %cs:0x0(%eax,%eax,1)
  a4a688:	00 00 00 00 
  a4a68c:	0f 1f 40 00          	nopl   0x0(%eax)

0000000000a4a690 <LZ4_decompress_safe>:
  a4a690:	f3 0f 1e fa          	endbr64 
  a4a694:	4c                   	dec    %esp
  a4a695:	63 d2                	arpl   %dx,%dx
  a4a697:	4c                   	dec    %esp
  a4a698:	63 d9                	arpl   %bx,%cx
  a4a69a:	49                   	dec    %ecx
  a4a69b:	89 f8                	mov    %edi,%eax
  a4a69d:	49                   	dec    %ecx
  a4a69e:	01 fa                	add    %edi,%edx
  a4a6a0:	49                   	dec    %ecx
  a4a6a1:	01 f3                	add    %esi,%ebx
  a4a6a3:	85 c9                	test   %ecx,%ecx
  a4a6a5:	0f 84 49 02 00 00    	je     a4a8f4 <LZ4_decompress_safe+0x264>
  a4a6ab:	41                   	inc    %ecx
  a4a6ac:	57                   	push   %edi
  a4a6ad:	49                   	dec    %ecx
  a4a6ae:	8d 43 fb             	lea    -0x5(%ebx),%eax
  a4a6b1:	48                   	dec    %eax
  a4a6b2:	89 f7                	mov    %esi,%edi
  a4a6b4:	4d                   	dec    %ebp
  a4a6b5:	8d 4a f1             	lea    -0xf(%edx),%ecx
  a4a6b8:	41                   	inc    %ecx
  a4a6b9:	56                   	push   %esi
  a4a6ba:	49                   	dec    %ecx
  a4a6bb:	8d 4b f4             	lea    -0xc(%ebx),%ecx
  a4a6be:	4d                   	dec    %ebp
  a4a6bf:	8d 73 f9             	lea    -0x7(%ebx),%esi
  a4a6c2:	41                   	inc    %ecx
  a4a6c3:	55                   	push   %ebp
  a4a6c4:	4d                   	dec    %ebp
  a4a6c5:	8d 6a f8             	lea    -0x8(%edx),%ebp
  a4a6c8:	41                   	inc    %ecx
  a4a6c9:	54                   	push   %esp
  a4a6ca:	4d                   	dec    %ebp
  a4a6cb:	8d 62 fc             	lea    -0x4(%edx),%esp
  a4a6ce:	55                   	push   %ebp
  a4a6cf:	48                   	dec    %eax
  a4a6d0:	89 f5                	mov    %esi,%ebp
  a4a6d2:	53                   	push   %ebx
  a4a6d3:	48                   	dec    %eax
  a4a6d4:	83 ec 18             	sub    $0x18,%esp
  a4a6d7:	48                   	dec    %eax
  a4a6d8:	89 44 24 08          	mov    %eax,0x8(%esp)
  a4a6dc:	49                   	dec    %ecx
  a4a6dd:	8d 70 01             	lea    0x1(%eax),%esi
  a4a6e0:	45                   	inc    %ebp
  a4a6e1:	0f b6 00             	movzbl (%eax),%eax
  a4a6e4:	44                   	inc    %esp
  a4a6e5:	89 c2                	mov    %eax,%edx
  a4a6e7:	41                   	inc    %ecx
  a4a6e8:	c1 e8 04             	shr    $0x4,%eax
  a4a6eb:	44                   	inc    %esp
  a4a6ec:	89 c0                	mov    %eax,%eax
  a4a6ee:	41                   	inc    %ecx
  a4a6ef:	83 f8 0f             	cmp    $0xf,%eax
  a4a6f2:	0f 84 00 01 00 00    	je     a4a7f8 <LZ4_decompress_safe+0x168>
  a4a6f8:	48                   	dec    %eax
  a4a6f9:	8d 1c 07             	lea    (%edi,%eax,1),%ebx
  a4a6fc:	4c                   	dec    %esp
  a4a6fd:	8d 04 06             	lea    (%esi,%eax,1),%eax
  a4a700:	48                   	dec    %eax
  a4a701:	39 d9                	cmp    %ebx,%ecx
  a4a703:	0f 82 be 01 00 00    	jb     a4a8c7 <LZ4_decompress_safe+0x237>
  a4a709:	4d                   	dec    %ebp
  a4a70a:	39 e8                	cmp    %ebp,%eax
  a4a70c:	0f 87 b5 01 00 00    	ja     a4a8c7 <LZ4_decompress_safe+0x237>
  a4a712:	66 0f 1f 44 00 00    	nopw   0x0(%eax,%eax,1)
  a4a718:	48                   	dec    %eax
  a4a719:	8b 06                	mov    (%esi),%eax
  a4a71b:	48                   	dec    %eax
  a4a71c:	83 c7 08             	add    $0x8,%edi
  a4a71f:	48                   	dec    %eax
  a4a720:	83 c6 08             	add    $0x8,%esi
  a4a723:	48                   	dec    %eax
  a4a724:	89 47 f8             	mov    %eax,-0x8(%edi)
  a4a727:	48                   	dec    %eax
  a4a728:	39 df                	cmp    %ebx,%edi
  a4a72a:	72 ec                	jb     a4a718 <LZ4_decompress_safe+0x88>
  a4a72c:	41                   	inc    %ecx
  a4a72d:	0f b7 30             	movzwl (%eax),%esi
  a4a730:	48                   	dec    %eax
  a4a731:	89 d8                	mov    %ebx,%eax
  a4a733:	49                   	dec    %ecx
  a4a734:	83 c0 02             	add    $0x2,%eax
  a4a737:	48                   	dec    %eax
  a4a738:	29 f0                	sub    %esi,%eax
  a4a73a:	48                   	dec    %eax
  a4a73b:	39 c5                	cmp    %eax,%ebp
  a4a73d:	0f 87 9c 00 00 00    	ja     a4a7df <LZ4_decompress_safe+0x14f>
  a4a743:	89 d7                	mov    %edx,%edi
  a4a745:	89 33                	mov    %esi,(%ebx)
  a4a747:	83 e2 0f             	and    $0xf,%edx
  a4a74a:	83 e7 0f             	and    $0xf,%edi
  a4a74d:	40                   	inc    %eax
  a4a74e:	80 ff 0f             	cmp    $0xf,%bh
  a4a751:	74 65                	je     a4a7b8 <LZ4_decompress_safe+0x128>
  a4a753:	48                   	dec    %eax
  a4a754:	83 c2 04             	add    $0x4,%edx
  a4a757:	48                   	dec    %eax
  a4a758:	8d 3c 13             	lea    (%ebx,%edx,1),%edi
  a4a75b:	48                   	dec    %eax
  a4a75c:	83 fe 07             	cmp    $0x7,%esi
  a4a75f:	0f 86 c5 00 00 00    	jbe    a4a82a <LZ4_decompress_safe+0x19a>
  a4a765:	48                   	dec    %eax
  a4a766:	8b 30                	mov    (%eax),%esi
  a4a768:	48                   	dec    %eax
  a4a769:	83 c0 08             	add    $0x8,%eax
  a4a76c:	48                   	dec    %eax
  a4a76d:	89 33                	mov    %esi,(%ebx)
  a4a76f:	48                   	dec    %eax
  a4a770:	39 f9                	cmp    %edi,%ecx
  a4a772:	0f 82 00 01 00 00    	jb     a4a878 <LZ4_decompress_safe+0x1e8>
  a4a778:	48                   	dec    %eax
  a4a779:	8b 30                	mov    (%eax),%esi
  a4a77b:	48                   	dec    %eax
  a4a77c:	89 73 08             	mov    %esi,0x8(%ebx)
  a4a77f:	48                   	dec    %eax
  a4a780:	83 fa 10             	cmp    $0x10,%edx
  a4a783:	0f 86 53 ff ff ff    	jbe    a4a6dc <LZ4_decompress_safe+0x4c>
  a4a789:	48                   	dec    %eax
  a4a78a:	83 c0 08             	add    $0x8,%eax
  a4a78d:	48                   	dec    %eax
  a4a78e:	83 c3 10             	add    $0x10,%ebx
  a4a791:	0f 1f 80 00 00 00 00 	nopl   0x0(%eax)
  a4a798:	48                   	dec    %eax
  a4a799:	8b 10                	mov    (%eax),%edx
  a4a79b:	48                   	dec    %eax
  a4a79c:	83 c3 08             	add    $0x8,%ebx
  a4a79f:	48                   	dec    %eax
  a4a7a0:	83 c0 08             	add    $0x8,%eax
  a4a7a3:	48                   	dec    %eax
  a4a7a4:	89 53 f8             	mov    %edx,-0x8(%ebx)
  a4a7a7:	48                   	dec    %eax
  a4a7a8:	39 df                	cmp    %ebx,%edi
  a4a7aa:	77 ec                	ja     a4a798 <LZ4_decompress_safe+0x108>
  a4a7ac:	e9 2b ff ff ff       	jmp    a4a6dc <LZ4_decompress_safe+0x4c>
  a4a7b1:	0f 1f 80 00 00 00 00 	nopl   0x0(%eax)
  a4a7b8:	ba 0f 00 00 00       	mov    $0xf,%edx
  a4a7bd:	eb 12                	jmp    a4a7d1 <LZ4_decompress_safe+0x141>
  a4a7bf:	90                   	nop
  a4a7c0:	44                   	inc    %esp
  a4a7c1:	0f b6 ff             	movzbl %bh,%edi
  a4a7c4:	4c                   	dec    %esp
  a4a7c5:	01 fa                	add    %edi,%edx
  a4a7c7:	40                   	inc    %eax
  a4a7c8:	80 ff ff             	cmp    $0xff,%bh
  a4a7cb:	0f 85 e5 00 00 00    	jne    a4a8b6 <LZ4_decompress_safe+0x226>
  a4a7d1:	49                   	dec    %ecx
  a4a7d2:	83 c0 01             	add    $0x1,%eax
  a4a7d5:	41                   	inc    %ecx
  a4a7d6:	0f b6 78 ff          	movzbl -0x1(%eax),%edi
  a4a7da:	4d                   	dec    %ebp
  a4a7db:	39 c4                	cmp    %eax,%esp
  a4a7dd:	75 e1                	jne    a4a7c0 <LZ4_decompress_safe+0x130>
  a4a7df:	48                   	dec    %eax
  a4a7e0:	83 c4 18             	add    $0x18,%esp
  a4a7e3:	b8 ff ff ff ff       	mov    $0xffffffff,%eax
  a4a7e8:	5b                   	pop    %ebx
  a4a7e9:	5d                   	pop    %ebp
  a4a7ea:	41                   	inc    %ecx
  a4a7eb:	5c                   	pop    %esp
  a4a7ec:	41                   	inc    %ecx
  a4a7ed:	5d                   	pop    %ebp
  a4a7ee:	41                   	inc    %ecx
  a4a7ef:	5e                   	pop    %esi
  a4a7f0:	41                   	inc    %ecx
  a4a7f1:	5f                   	pop    %edi
  a4a7f2:	c3                   	ret    
  a4a7f3:	0f 1f 44 00 00       	nopl   0x0(%eax,%eax,1)
  a4a7f8:	b8 0f 00 00 00       	mov    $0xf,%eax
  a4a7fd:	eb 06                	jmp    a4a805 <LZ4_decompress_safe+0x175>
  a4a7ff:	90                   	nop
  a4a800:	80 fb ff             	cmp    $0xff,%bl
  a4a803:	75 0f                	jne    a4a814 <LZ4_decompress_safe+0x184>
  a4a805:	0f b6 1e             	movzbl (%esi),%ebx
  a4a808:	48                   	dec    %eax
  a4a809:	83 c6 01             	add    $0x1,%esi
  a4a80c:	48                   	dec    %eax
  a4a80d:	01 d8                	add    %ebx,%eax
  a4a80f:	4c                   	dec    %esp
  a4a810:	39 ce                	cmp    %ecx,%esi
  a4a812:	72 ec                	jb     a4a800 <LZ4_decompress_safe+0x170>
  a4a814:	48                   	dec    %eax
  a4a815:	89 fb                	mov    %edi,%ebx
  a4a817:	48                   	dec    %eax
  a4a818:	01 c3                	add    %eax,%ebx
  a4a81a:	72 c3                	jb     a4a7df <LZ4_decompress_safe+0x14f>
  a4a81c:	49                   	dec    %ecx
  a4a81d:	89 f0                	mov    %esi,%eax
  a4a81f:	49                   	dec    %ecx
  a4a820:	01 c0                	add    %eax,%eax
  a4a822:	0f 83 d8 fe ff ff    	jae    a4a700 <LZ4_decompress_safe+0x70>
  a4a828:	eb b5                	jmp    a4a7df <LZ4_decompress_safe+0x14f>
  a4a82a:	44                   	inc    %esp
  a4a82b:	0f b6 38             	movzbl (%eax),%edi
  a4a82e:	44                   	inc    %esp
  a4a82f:	88 3b                	mov    %bh,(%ebx)
  a4a831:	44                   	inc    %esp
  a4a832:	0f b6 78 01          	movzbl 0x1(%eax),%edi
  a4a836:	44                   	inc    %esp
  a4a837:	88 7b 01             	mov    %bh,0x1(%ebx)
  a4a83a:	44                   	inc    %esp
  a4a83b:	0f b6 78 02          	movzbl 0x2(%eax),%edi
  a4a83f:	44                   	inc    %esp
  a4a840:	88 7b 02             	mov    %bh,0x2(%ebx)
  a4a843:	44                   	inc    %esp
  a4a844:	0f b6 78 03          	movzbl 0x3(%eax),%edi
  a4a848:	44                   	inc    %esp
  a4a849:	88 7b 03             	mov    %bh,0x3(%ebx)
  a4a84c:	4c                   	dec    %esp
  a4a84d:	8d 3d 4d 97 00 00    	lea    0x974d,%edi
  a4a853:	45                   	inc    %ebp
  a4a854:	8b 3c b7             	mov    (%edi,%esi,4),%edi
  a4a857:	4c                   	dec    %esp
  a4a858:	01 f8                	add    %edi,%eax
  a4a85a:	44                   	inc    %esp
  a4a85b:	8b 38                	mov    (%eax),%edi
  a4a85d:	44                   	inc    %esp
  a4a85e:	89 7b 04             	mov    %edi,0x4(%ebx)
  a4a861:	4c                   	dec    %esp
  a4a862:	8d 3d 58 97 00 00    	lea    0x9758,%edi
  a4a868:	49                   	dec    %ecx
  a4a869:	63 34 b7             	arpl   %si,(%edi,%esi,4)
  a4a86c:	48                   	dec    %eax
  a4a86d:	29 f0                	sub    %esi,%eax
  a4a86f:	48                   	dec    %eax
  a4a870:	39 f9                	cmp    %edi,%ecx
  a4a872:	0f 83 00 ff ff ff    	jae    a4a778 <LZ4_decompress_safe+0xe8>
  a4a878:	48                   	dec    %eax
  a4a879:	3b 7c 24 08          	cmp    0x8(%esp),%edi
  a4a87d:	0f 87 5c ff ff ff    	ja     a4a7df <LZ4_decompress_safe+0x14f>
  a4a883:	48                   	dec    %eax
  a4a884:	83 c3 08             	add    $0x8,%ebx
  a4a887:	4c                   	dec    %esp
  a4a888:	39 f3                	cmp    %esi,%ebx
  a4a88a:	72 73                	jb     a4a8ff <LZ4_decompress_safe+0x26f>
  a4a88c:	48                   	dec    %eax
  a4a88d:	39 df                	cmp    %ebx,%edi
  a4a88f:	0f 86 47 fe ff ff    	jbe    a4a6dc <LZ4_decompress_safe+0x4c>
  a4a895:	49                   	dec    %ecx
  a4a896:	89 ff                	mov    %edi,%edi
  a4a898:	31 d2                	xor    %edx,%edx
  a4a89a:	49                   	dec    %ecx
  a4a89b:	29 df                	sub    %ebx,%edi
  a4a89d:	0f 1f 00             	nopl   (%eax)
  a4a8a0:	0f b6 34 10          	movzbl (%eax,%edx,1),%esi
  a4a8a4:	40                   	inc    %eax
  a4a8a5:	88 34 13             	mov    %dh,(%ebx,%edx,1)
  a4a8a8:	48                   	dec    %eax
  a4a8a9:	83 c2 01             	add    $0x1,%edx
  a4a8ac:	49                   	dec    %ecx
  a4a8ad:	39 d7                	cmp    %edx,%edi
  a4a8af:	75 ef                	jne    a4a8a0 <LZ4_decompress_safe+0x210>
  a4a8b1:	e9 26 fe ff ff       	jmp    a4a6dc <LZ4_decompress_safe+0x4c>
  a4a8b6:	48                   	dec    %eax
  a4a8b7:	89 df                	mov    %ebx,%edi
  a4a8b9:	48                   	dec    %eax
  a4a8ba:	01 d7                	add    %edx,%edi
  a4a8bc:	0f 83 91 fe ff ff    	jae    a4a753 <LZ4_decompress_safe+0xc3>
  a4a8c2:	e9 18 ff ff ff       	jmp    a4a7df <LZ4_decompress_safe+0x14f>
  a4a8c7:	48                   	dec    %eax
  a4a8c8:	89 c2                	mov    %eax,%edx
  a4a8ca:	49                   	dec    %ecx
  a4a8cb:	39 db                	cmp    %ebx,%ebx
  a4a8cd:	0f 82 0c ff ff ff    	jb     a4a7df <LZ4_decompress_safe+0x14f>
  a4a8d3:	4d                   	dec    %ebp
  a4a8d4:	39 c2                	cmp    %eax,%edx
  a4a8d6:	0f 85 03 ff ff ff    	jne    a4a7df <LZ4_decompress_safe+0x14f>
  a4a8dc:	e8 df 33 00 00       	call   a4dcc0 <memcpy>
  a4a8e1:	89 d8                	mov    %ebx,%eax
  a4a8e3:	48                   	dec    %eax
  a4a8e4:	83 c4 18             	add    $0x18,%esp
  a4a8e7:	29 e8                	sub    %ebp,%eax
  a4a8e9:	5b                   	pop    %ebx
  a4a8ea:	5d                   	pop    %ebp
  a4a8eb:	41                   	inc    %ecx
  a4a8ec:	5c                   	pop    %esp
  a4a8ed:	41                   	inc    %ecx
  a4a8ee:	5d                   	pop    %ebp
  a4a8ef:	41                   	inc    %ecx
  a4a8f0:	5e                   	pop    %esi
  a4a8f1:	41                   	inc    %ecx
  a4a8f2:	5f                   	pop    %edi
  a4a8f3:	c3                   	ret    
  a4a8f4:	83 fa 01             	cmp    $0x1,%edx
  a4a8f7:	74 34                	je     a4a92d <LZ4_decompress_safe+0x29d>
  a4a8f9:	b8 ff ff ff ff       	mov    $0xffffffff,%eax
  a4a8fe:	c3                   	ret    
  a4a8ff:	48                   	dec    %eax
  a4a900:	89 c6                	mov    %eax,%esi
  a4a902:	48                   	dec    %eax
  a4a903:	89 da                	mov    %ebx,%edx
  a4a905:	0f 1f 00             	nopl   (%eax)
  a4a908:	4c                   	dec    %esp
  a4a909:	8b 3e                	mov    (%esi),%edi
  a4a90b:	48                   	dec    %eax
  a4a90c:	83 c2 08             	add    $0x8,%edx
  a4a90f:	48                   	dec    %eax
  a4a910:	83 c6 08             	add    $0x8,%esi
  a4a913:	4c                   	dec    %esp
  a4a914:	89 7a f8             	mov    %edi,-0x8(%edx)
  a4a917:	49                   	dec    %ecx
  a4a918:	39 d6                	cmp    %edx,%esi
  a4a91a:	77 ec                	ja     a4a908 <LZ4_decompress_safe+0x278>
  a4a91c:	4c                   	dec    %esp
  a4a91d:	89 f2                	mov    %esi,%edx
  a4a91f:	48                   	dec    %eax
  a4a920:	29 da                	sub    %ebx,%edx
  a4a922:	4c                   	dec    %esp
  a4a923:	89 f3                	mov    %esi,%ebx
  a4a925:	48                   	dec    %eax
  a4a926:	01 d0                	add    %edx,%eax
  a4a928:	e9 5f ff ff ff       	jmp    a4a88c <LZ4_decompress_safe+0x1fc>
  a4a92d:	31 c0                	xor    %eax,%eax
  a4a92f:	80 3f 00             	cmpb   $0x0,(%edi)
  a4a932:	75 c5                	jne    a4a8f9 <LZ4_decompress_safe+0x269>
  a4a934:	c3                   	ret    
  a4a935:	66 66 2e 0f 1f 84 00 	data16 nopw %cs:0x0(%eax,%eax,1)
  a4a93c:	00 00 00 00 

0000000000a4a940 <LZ4_decompress_safe_partial>:
  a4a940:	f3 0f 1e fa          	endbr64 
  a4a944:	41                   	inc    %ecx
  a4a945:	57                   	push   %edi
  a4a946:	4d                   	dec    %ebp
  a4a947:	63 d0                	arpl   %dx,%ax
  a4a949:	48                   	dec    %eax
  a4a94a:	63 c9                	arpl   %cx,%cx
  a4a94c:	49                   	dec    %ecx
  a4a94d:	89 f9                	mov    %edi,%ecx
  a4a94f:	41                   	inc    %ecx
  a4a950:	56                   	push   %esi
  a4a951:	49                   	dec    %ecx
  a4a952:	01 f2                	add    %esi,%edx
  a4a954:	48                   	dec    %eax
  a4a955:	01 f1                	add    %esi,%ecx
  a4a957:	41                   	inc    %ecx
  a4a958:	55                   	push   %ebp
  a4a959:	4d                   	dec    %ebp
  a4a95a:	8d 5a f4             	lea    -0xc(%edx),%ebx
  a4a95d:	41                   	inc    %ecx
  a4a95e:	54                   	push   %esp
  a4a95f:	4c                   	dec    %esp
  a4a960:	63 e2                	arpl   %sp,%dx
  a4a962:	55                   	push   %ebp
  a4a963:	49                   	dec    %ecx
  a4a964:	01 fc                	add    %edi,%esp
  a4a966:	53                   	push   %ebx
  a4a967:	48                   	dec    %eax
  a4a968:	83 ec 28             	sub    $0x28,%esp
  a4a96b:	49                   	dec    %ecx
  a4a96c:	39 cb                	cmp    %ecx,%ebx
  a4a96e:	49                   	dec    %ecx
  a4a96f:	0f 42 cb             	cmovb  %ebx,%ecx
  a4a972:	45                   	inc    %ebp
  a4a973:	85 c0                	test   %eax,%eax
  a4a975:	0f 84 54 02 00 00    	je     a4abcf <LZ4_decompress_safe_partial+0x28f>
  a4a97b:	49                   	dec    %ecx
  a4a97c:	8d 42 f9             	lea    -0x7(%edx),%eax
  a4a97f:	48                   	dec    %eax
  a4a980:	89 f5                	mov    %esi,%ebp
  a4a982:	48                   	dec    %eax
  a4a983:	89 f7                	mov    %esi,%edi
  a4a985:	48                   	dec    %eax
  a4a986:	89 44 24 08          	mov    %eax,0x8(%esp)
  a4a98a:	49                   	dec    %ecx
  a4a98b:	8d 42 fb             	lea    -0x5(%edx),%eax
  a4a98e:	4d                   	dec    %ebp
  a4a98f:	8d 44 24 f1          	lea    -0xf(%esp),%eax
  a4a993:	48                   	dec    %eax
  a4a994:	89 44 24 10          	mov    %eax,0x10(%esp)
  a4a998:	4d                   	dec    %ebp
  a4a999:	8d 74 24 f8          	lea    -0x8(%esp),%esi
  a4a99d:	4d                   	dec    %ebp
  a4a99e:	8d 6c 24 fc          	lea    -0x4(%esp),%ebp
  a4a9a2:	49                   	dec    %ecx
  a4a9a3:	8d 71 01             	lea    0x1(%ecx),%esi
  a4a9a6:	45                   	inc    %ebp
  a4a9a7:	0f b6 09             	movzbl (%ecx),%ecx
  a4a9aa:	44                   	inc    %esp
  a4a9ab:	89 ca                	mov    %ecx,%edx
  a4a9ad:	41                   	inc    %ecx
  a4a9ae:	c1 e9 04             	shr    $0x4,%ecx
  a4a9b1:	44                   	inc    %esp
  a4a9b2:	89 c8                	mov    %ecx,%eax
  a4a9b4:	41                   	inc    %ecx
  a4a9b5:	83 f9 0f             	cmp    $0xf,%ecx
  a4a9b8:	0f 84 0a 01 00 00    	je     a4aac8 <LZ4_decompress_safe_partial+0x188>
  a4a9be:	48                   	dec    %eax
  a4a9bf:	8d 1c 07             	lea    (%edi,%eax,1),%ebx
  a4a9c2:	48                   	dec    %eax
  a4a9c3:	39 d9                	cmp    %ebx,%ecx
  a4a9c5:	0f 82 d4 01 00 00    	jb     a4ab9f <LZ4_decompress_safe_partial+0x25f>
  a4a9cb:	4c                   	dec    %esp
  a4a9cc:	8d 0c 06             	lea    (%esi,%eax,1),%ecx
  a4a9cf:	4d                   	dec    %ebp
  a4a9d0:	39 f1                	cmp    %esi,%ecx
  a4a9d2:	0f 87 c7 01 00 00    	ja     a4ab9f <LZ4_decompress_safe_partial+0x25f>
  a4a9d8:	0f 1f 84 00 00 00 00 	nopl   0x0(%eax,%eax,1)
  a4a9df:	00 
  a4a9e0:	48                   	dec    %eax
  a4a9e1:	8b 06                	mov    (%esi),%eax
  a4a9e3:	48                   	dec    %eax
  a4a9e4:	83 c7 08             	add    $0x8,%edi
  a4a9e7:	48                   	dec    %eax
  a4a9e8:	83 c6 08             	add    $0x8,%esi
  a4a9eb:	48                   	dec    %eax
  a4a9ec:	89 47 f8             	mov    %eax,-0x8(%edi)
  a4a9ef:	48                   	dec    %eax
  a4a9f0:	39 df                	cmp    %ebx,%edi
  a4a9f2:	72 ec                	jb     a4a9e0 <LZ4_decompress_safe_partial+0xa0>
  a4a9f4:	41                   	inc    %ecx
  a4a9f5:	0f b7 31             	movzwl (%ecx),%esi
  a4a9f8:	48                   	dec    %eax
  a4a9f9:	89 d8                	mov    %ebx,%eax
  a4a9fb:	49                   	dec    %ecx
  a4a9fc:	83 c1 02             	add    $0x2,%ecx
  a4a9ff:	48                   	dec    %eax
  a4aa00:	29 f0                	sub    %esi,%eax
  a4aa02:	48                   	dec    %eax
  a4aa03:	39 c5                	cmp    %eax,%ebp
  a4aa05:	0f 87 a4 00 00 00    	ja     a4aaaf <LZ4_decompress_safe_partial+0x16f>
  a4aa0b:	89 d7                	mov    %edx,%edi
  a4aa0d:	89 33                	mov    %esi,(%ebx)
  a4aa0f:	83 e2 0f             	and    $0xf,%edx
  a4aa12:	83 e7 0f             	and    $0xf,%edi
  a4aa15:	40                   	inc    %eax
  a4aa16:	80 ff 0f             	cmp    $0xf,%bh
  a4aa19:	74 65                	je     a4aa80 <LZ4_decompress_safe_partial+0x140>
  a4aa1b:	48                   	dec    %eax
  a4aa1c:	83 c2 04             	add    $0x4,%edx
  a4aa1f:	48                   	dec    %eax
  a4aa20:	8d 3c 13             	lea    (%ebx,%edx,1),%edi
  a4aa23:	48                   	dec    %eax
  a4aa24:	83 fe 07             	cmp    $0x7,%esi
  a4aa27:	0f 86 cd 00 00 00    	jbe    a4aafa <LZ4_decompress_safe_partial+0x1ba>
  a4aa2d:	48                   	dec    %eax
  a4aa2e:	8b 30                	mov    (%eax),%esi
  a4aa30:	48                   	dec    %eax
  a4aa31:	83 c0 08             	add    $0x8,%eax
  a4aa34:	48                   	dec    %eax
  a4aa35:	89 33                	mov    %esi,(%ebx)
  a4aa37:	49                   	dec    %ecx
  a4aa38:	39 fb                	cmp    %edi,%ebx
  a4aa3a:	0f 82 08 01 00 00    	jb     a4ab48 <LZ4_decompress_safe_partial+0x208>
  a4aa40:	48                   	dec    %eax
  a4aa41:	8b 30                	mov    (%eax),%esi
  a4aa43:	48                   	dec    %eax
  a4aa44:	89 73 08             	mov    %esi,0x8(%ebx)
  a4aa47:	48                   	dec    %eax
  a4aa48:	83 fa 10             	cmp    $0x10,%edx
  a4aa4b:	0f 86 51 ff ff ff    	jbe    a4a9a2 <LZ4_decompress_safe_partial+0x62>
  a4aa51:	48                   	dec    %eax
  a4aa52:	83 c0 08             	add    $0x8,%eax
  a4aa55:	48                   	dec    %eax
  a4aa56:	83 c3 10             	add    $0x10,%ebx
  a4aa59:	0f 1f 80 00 00 00 00 	nopl   0x0(%eax)
  a4aa60:	48                   	dec    %eax
  a4aa61:	8b 10                	mov    (%eax),%edx
  a4aa63:	48                   	dec    %eax
  a4aa64:	83 c3 08             	add    $0x8,%ebx
  a4aa67:	48                   	dec    %eax
  a4aa68:	83 c0 08             	add    $0x8,%eax
  a4aa6b:	48                   	dec    %eax
  a4aa6c:	89 53 f8             	mov    %edx,-0x8(%ebx)
  a4aa6f:	48                   	dec    %eax
  a4aa70:	39 df                	cmp    %ebx,%edi
  a4aa72:	77 ec                	ja     a4aa60 <LZ4_decompress_safe_partial+0x120>
  a4aa74:	e9 29 ff ff ff       	jmp    a4a9a2 <LZ4_decompress_safe_partial+0x62>
  a4aa79:	0f 1f 80 00 00 00 00 	nopl   0x0(%eax)
  a4aa80:	ba 0f 00 00 00       	mov    $0xf,%edx
  a4aa85:	eb 1a                	jmp    a4aaa1 <LZ4_decompress_safe_partial+0x161>
  a4aa87:	66 0f 1f 84 00 00 00 	nopw   0x0(%eax,%eax,1)
  a4aa8e:	00 00 
  a4aa90:	44                   	inc    %esp
  a4aa91:	0f b6 ff             	movzbl %bh,%edi
  a4aa94:	4c                   	dec    %esp
  a4aa95:	01 fa                	add    %edi,%edx
  a4aa97:	40                   	inc    %eax
  a4aa98:	80 ff ff             	cmp    $0xff,%bh
  a4aa9b:	0f 85 ed 00 00 00    	jne    a4ab8e <LZ4_decompress_safe_partial+0x24e>
  a4aaa1:	49                   	dec    %ecx
  a4aaa2:	83 c1 01             	add    $0x1,%ecx
  a4aaa5:	41                   	inc    %ecx
  a4aaa6:	0f b6 79 ff          	movzbl -0x1(%ecx),%edi
  a4aaaa:	4d                   	dec    %ebp
  a4aaab:	39 cd                	cmp    %ecx,%ebp
  a4aaad:	75 e1                	jne    a4aa90 <LZ4_decompress_safe_partial+0x150>
  a4aaaf:	b8 ff ff ff ff       	mov    $0xffffffff,%eax
  a4aab4:	48                   	dec    %eax
  a4aab5:	83 c4 28             	add    $0x28,%esp
  a4aab8:	5b                   	pop    %ebx
  a4aab9:	5d                   	pop    %ebp
  a4aaba:	41                   	inc    %ecx
  a4aabb:	5c                   	pop    %esp
  a4aabc:	41                   	inc    %ecx
  a4aabd:	5d                   	pop    %ebp
  a4aabe:	41                   	inc    %ecx
  a4aabf:	5e                   	pop    %esi
  a4aac0:	41                   	inc    %ecx
  a4aac1:	5f                   	pop    %edi
  a4aac2:	c3                   	ret    
  a4aac3:	0f 1f 44 00 00       	nopl   0x0(%eax,%eax,1)
  a4aac8:	b8 0f 00 00 00       	mov    $0xf,%eax
  a4aacd:	eb 06                	jmp    a4aad5 <LZ4_decompress_safe_partial+0x195>
  a4aacf:	90                   	nop
  a4aad0:	80 fb ff             	cmp    $0xff,%bl
  a4aad3:	75 0f                	jne    a4aae4 <LZ4_decompress_safe_partial+0x1a4>
  a4aad5:	0f b6 1e             	movzbl (%esi),%ebx
  a4aad8:	48                   	dec    %eax
  a4aad9:	83 c6 01             	add    $0x1,%esi
  a4aadc:	48                   	dec    %eax
  a4aadd:	01 d8                	add    %ebx,%eax
  a4aadf:	4c                   	dec    %esp
  a4aae0:	39 c6                	cmp    %eax,%esi
  a4aae2:	72 ec                	jb     a4aad0 <LZ4_decompress_safe_partial+0x190>
  a4aae4:	48                   	dec    %eax
  a4aae5:	89 fb                	mov    %edi,%ebx
  a4aae7:	48                   	dec    %eax
  a4aae8:	01 c3                	add    %eax,%ebx
  a4aaea:	72 c3                	jb     a4aaaf <LZ4_decompress_safe_partial+0x16f>
  a4aaec:	49                   	dec    %ecx
  a4aaed:	89 f7                	mov    %esi,%edi
  a4aaef:	49                   	dec    %ecx
  a4aaf0:	01 c7                	add    %eax,%edi
  a4aaf2:	0f 83 ca fe ff ff    	jae    a4a9c2 <LZ4_decompress_safe_partial+0x82>
  a4aaf8:	eb b5                	jmp    a4aaaf <LZ4_decompress_safe_partial+0x16f>
  a4aafa:	44                   	inc    %esp
  a4aafb:	0f b6 38             	movzbl (%eax),%edi
  a4aafe:	44                   	inc    %esp
  a4aaff:	88 3b                	mov    %bh,(%ebx)
  a4ab01:	44                   	inc    %esp
  a4ab02:	0f b6 78 01          	movzbl 0x1(%eax),%edi
  a4ab06:	44                   	inc    %esp
  a4ab07:	88 7b 01             	mov    %bh,0x1(%ebx)
  a4ab0a:	44                   	inc    %esp
  a4ab0b:	0f b6 78 02          	movzbl 0x2(%eax),%edi
  a4ab0f:	44                   	inc    %esp
  a4ab10:	88 7b 02             	mov    %bh,0x2(%ebx)
  a4ab13:	44                   	inc    %esp
  a4ab14:	0f b6 78 03          	movzbl 0x3(%eax),%edi
  a4ab18:	44                   	inc    %esp
  a4ab19:	88 7b 03             	mov    %bh,0x3(%ebx)
  a4ab1c:	4c                   	dec    %esp
  a4ab1d:	8d 3d 7d 94 00 00    	lea    0x947d,%edi
  a4ab23:	45                   	inc    %ebp
  a4ab24:	8b 3c b7             	mov    (%edi,%esi,4),%edi
  a4ab27:	4c                   	dec    %esp
  a4ab28:	01 f8                	add    %edi,%eax
  a4ab2a:	44                   	inc    %esp
  a4ab2b:	8b 38                	mov    (%eax),%edi
  a4ab2d:	44                   	inc    %esp
  a4ab2e:	89 7b 04             	mov    %edi,0x4(%ebx)
  a4ab31:	4c                   	dec    %esp
  a4ab32:	8d 3d 88 94 00 00    	lea    0x9488,%edi
  a4ab38:	49                   	dec    %ecx
  a4ab39:	63 34 b7             	arpl   %si,(%edi,%esi,4)
  a4ab3c:	48                   	dec    %eax
  a4ab3d:	29 f0                	sub    %esi,%eax
  a4ab3f:	49                   	dec    %ecx
  a4ab40:	39 fb                	cmp    %edi,%ebx
  a4ab42:	0f 83 f8 fe ff ff    	jae    a4aa40 <LZ4_decompress_safe_partial+0x100>
  a4ab48:	48                   	dec    %eax
  a4ab49:	3b 7c 24 10          	cmp    0x10(%esp),%edi
  a4ab4d:	0f 87 5c ff ff ff    	ja     a4aaaf <LZ4_decompress_safe_partial+0x16f>
  a4ab53:	48                   	dec    %eax
  a4ab54:	83 c3 08             	add    $0x8,%ebx
  a4ab57:	48                   	dec    %eax
  a4ab58:	3b 5c 24 08          	cmp    0x8(%esp),%ebx
  a4ab5c:	0f 82 86 00 00 00    	jb     a4abe8 <LZ4_decompress_safe_partial+0x2a8>
  a4ab62:	48                   	dec    %eax
  a4ab63:	39 df                	cmp    %ebx,%edi
  a4ab65:	0f 86 37 fe ff ff    	jbe    a4a9a2 <LZ4_decompress_safe_partial+0x62>
  a4ab6b:	49                   	dec    %ecx
  a4ab6c:	89 ff                	mov    %edi,%edi
  a4ab6e:	31 d2                	xor    %edx,%edx
  a4ab70:	49                   	dec    %ecx
  a4ab71:	29 df                	sub    %ebx,%edi
  a4ab73:	0f 1f 44 00 00       	nopl   0x0(%eax,%eax,1)
  a4ab78:	0f b6 34 10          	movzbl (%eax,%edx,1),%esi
  a4ab7c:	40                   	inc    %eax
  a4ab7d:	88 34 13             	mov    %dh,(%ebx,%edx,1)
  a4ab80:	48                   	dec    %eax
  a4ab81:	83 c2 01             	add    $0x1,%edx
  a4ab84:	49                   	dec    %ecx
  a4ab85:	39 d7                	cmp    %edx,%edi
  a4ab87:	75 ef                	jne    a4ab78 <LZ4_decompress_safe_partial+0x238>
  a4ab89:	e9 14 fe ff ff       	jmp    a4a9a2 <LZ4_decompress_safe_partial+0x62>
  a4ab8e:	48                   	dec    %eax
  a4ab8f:	89 df                	mov    %ebx,%edi
  a4ab91:	48                   	dec    %eax
  a4ab92:	01 d7                	add    %edx,%edi
  a4ab94:	0f 83 81 fe ff ff    	jae    a4aa1b <LZ4_decompress_safe_partial+0xdb>
  a4ab9a:	e9 10 ff ff ff       	jmp    a4aaaf <LZ4_decompress_safe_partial+0x16f>
  a4ab9f:	48                   	dec    %eax
  a4aba0:	89 c2                	mov    %eax,%edx
  a4aba2:	49                   	dec    %ecx
  a4aba3:	39 da                	cmp    %ebx,%edx
  a4aba5:	0f 82 04 ff ff ff    	jb     a4aaaf <LZ4_decompress_safe_partial+0x16f>
  a4abab:	48                   	dec    %eax
  a4abac:	01 f0                	add    %esi,%eax
  a4abae:	49                   	dec    %ecx
  a4abaf:	39 c4                	cmp    %eax,%esp
  a4abb1:	0f 82 f8 fe ff ff    	jb     a4aaaf <LZ4_decompress_safe_partial+0x16f>
  a4abb7:	e8 04 31 00 00       	call   a4dcc0 <memcpy>
  a4abbc:	89 d8                	mov    %ebx,%eax
  a4abbe:	48                   	dec    %eax
  a4abbf:	83 c4 28             	add    $0x28,%esp
  a4abc2:	29 e8                	sub    %ebp,%eax
  a4abc4:	5b                   	pop    %ebx
  a4abc5:	5d                   	pop    %ebp
  a4abc6:	41                   	inc    %ecx
  a4abc7:	5c                   	pop    %esp
  a4abc8:	41                   	inc    %ecx
  a4abc9:	5d                   	pop    %ebp
  a4abca:	41                   	inc    %ecx
  a4abcb:	5e                   	pop    %esi
  a4abcc:	41                   	inc    %ecx
  a4abcd:	5f                   	pop    %edi
  a4abce:	c3                   	ret    
  a4abcf:	83 fa 01             	cmp    $0x1,%edx
  a4abd2:	0f 85 d7 fe ff ff    	jne    a4aaaf <LZ4_decompress_safe_partial+0x16f>
  a4abd8:	31 c0                	xor    %eax,%eax
  a4abda:	80 3f 00             	cmpb   $0x0,(%edi)
  a4abdd:	0f 84 d1 fe ff ff    	je     a4aab4 <LZ4_decompress_safe_partial+0x174>
  a4abe3:	e9 c7 fe ff ff       	jmp    a4aaaf <LZ4_decompress_safe_partial+0x16f>
  a4abe8:	48                   	dec    %eax
  a4abe9:	89 44 24 18          	mov    %eax,0x18(%esp)
  a4abed:	4c                   	dec    %esp
  a4abee:	8b 7c 24 08          	mov    0x8(%esp),%edi
  a4abf2:	48                   	dec    %eax
  a4abf3:	89 c6                	mov    %eax,%esi
  a4abf5:	48                   	dec    %eax
  a4abf6:	89 da                	mov    %ebx,%edx
  a4abf8:	0f 1f 84 00 00 00 00 	nopl   0x0(%eax,%eax,1)
  a4abff:	00 
  a4ac00:	48                   	dec    %eax
  a4ac01:	8b 06                	mov    (%esi),%eax
  a4ac03:	48                   	dec    %eax
  a4ac04:	83 c2 08             	add    $0x8,%edx
  a4ac07:	48                   	dec    %eax
  a4ac08:	83 c6 08             	add    $0x8,%esi
  a4ac0b:	48                   	dec    %eax
  a4ac0c:	89 42 f8             	mov    %eax,-0x8(%edx)
  a4ac0f:	49                   	dec    %ecx
  a4ac10:	39 d7                	cmp    %edx,%edi
  a4ac12:	77 ec                	ja     a4ac00 <LZ4_decompress_safe_partial+0x2c0>
  a4ac14:	48                   	dec    %eax
  a4ac15:	8b 74 24 08          	mov    0x8(%esp),%esi
  a4ac19:	48                   	dec    %eax
  a4ac1a:	8b 44 24 18          	mov    0x18(%esp),%eax
  a4ac1e:	48                   	dec    %eax
  a4ac1f:	89 f2                	mov    %esi,%edx
  a4ac21:	48                   	dec    %eax
  a4ac22:	29 da                	sub    %ebx,%edx
  a4ac24:	48                   	dec    %eax
  a4ac25:	89 f3                	mov    %esi,%ebx
  a4ac27:	48                   	dec    %eax
  a4ac28:	01 d0                	add    %edx,%eax
  a4ac2a:	e9 33 ff ff ff       	jmp    a4ab62 <LZ4_decompress_safe_partial+0x222>
  a4ac2f:	90                   	nop

0000000000a4ac30 <LZ4_decompress_fast>:
  a4ac30:	f3 0f 1e fa          	endbr64 
  a4ac34:	41                   	inc    %ecx
  a4ac35:	57                   	push   %edi
  a4ac36:	4c                   	dec    %esp
  a4ac37:	63 da                	arpl   %bx,%dx
  a4ac39:	41                   	inc    %ecx
  a4ac3a:	56                   	push   %esi
  a4ac3b:	49                   	dec    %ecx
  a4ac3c:	01 f3                	add    %esi,%ebx
  a4ac3e:	41                   	inc    %ecx
  a4ac3f:	55                   	push   %ebp
  a4ac40:	41                   	inc    %ecx
  a4ac41:	54                   	push   %esp
  a4ac42:	49                   	dec    %ecx
  a4ac43:	89 fc                	mov    %edi,%esp
  a4ac45:	48                   	dec    %eax
  a4ac46:	89 f7                	mov    %esi,%edi
  a4ac48:	55                   	push   %ebp
  a4ac49:	53                   	push   %ebx
  a4ac4a:	48                   	dec    %eax
  a4ac4b:	83 ec 08             	sub    $0x8,%esp
  a4ac4e:	41                   	inc    %ecx
  a4ac4f:	0f b6 34 24          	movzbl (%esp),%esi
  a4ac53:	85 d2                	test   %edx,%edx
  a4ac55:	0f 84 17 02 00 00    	je     a4ae72 <LZ4_decompress_fast+0x242>
  a4ac5b:	4d                   	dec    %ebp
  a4ac5c:	8d 43 f8             	lea    -0x8(%ebx),%eax
  a4ac5f:	4c                   	dec    %esp
  a4ac60:	89 e5                	mov    %esp,%ebp
  a4ac62:	4d                   	dec    %ebp
  a4ac63:	8d 4b f4             	lea    -0xc(%ebx),%ecx
  a4ac66:	4c                   	dec    %esp
  a4ac67:	8d 3d 53 93 00 00    	lea    0x9353,%edi
  a4ac6d:	4c                   	dec    %esp
  a4ac6e:	8d 35 2c 93 00 00    	lea    0x932c,%esi
  a4ac74:	4d                   	dec    %ebp
  a4ac75:	8d 53 f9             	lea    -0x7(%ebx),%edx
  a4ac78:	4d                   	dec    %ebp
  a4ac79:	8d 6b fb             	lea    -0x5(%ebx),%ebp
  a4ac7c:	0f 1f 40 00          	nopl   0x0(%eax)
  a4ac80:	40                   	inc    %eax
  a4ac81:	0f b6 c6             	movzbl %dh,%eax
  a4ac84:	48                   	dec    %eax
  a4ac85:	83 c5 01             	add    $0x1,%ebp
  a4ac88:	c1 e8 04             	shr    $0x4,%eax
  a4ac8b:	89 c3                	mov    %eax,%ebx
  a4ac8d:	83 f8 0f             	cmp    $0xf,%eax
  a4ac90:	0f 84 ba 00 00 00    	je     a4ad50 <LZ4_decompress_fast+0x120>
  a4ac96:	48                   	dec    %eax
  a4ac97:	8d 14 1f             	lea    (%edi,%ebx,1),%edx
  a4ac9a:	4c                   	dec    %esp
  a4ac9b:	39 c2                	cmp    %eax,%edx
  a4ac9d:	0f 87 d2 00 00 00    	ja     a4ad75 <LZ4_decompress_fast+0x145>
  a4aca3:	48                   	dec    %eax
  a4aca4:	89 e8                	mov    %ebp,%eax
  a4aca6:	66 2e 0f 1f 84 00 00 	nopw   %cs:0x0(%eax,%eax,1)
  a4acad:	00 00 00 
  a4acb0:	48                   	dec    %eax
  a4acb1:	8b 08                	mov    (%eax),%ecx
  a4acb3:	48                   	dec    %eax
  a4acb4:	83 c7 08             	add    $0x8,%edi
  a4acb7:	48                   	dec    %eax
  a4acb8:	83 c0 08             	add    $0x8,%eax
  a4acbb:	48                   	dec    %eax
  a4acbc:	89 4f f8             	mov    %ecx,-0x8(%edi)
  a4acbf:	48                   	dec    %eax
  a4acc0:	39 fa                	cmp    %edi,%edx
  a4acc2:	77 ec                	ja     a4acb0 <LZ4_decompress_fast+0x80>
  a4acc4:	48                   	dec    %eax
  a4acc5:	01 dd                	add    %ebx,%ebp
  a4acc7:	89 f7                	mov    %esi,%edi
  a4acc9:	48                   	dec    %eax
  a4acca:	89 d0                	mov    %edx,%eax
  a4accc:	83 e6 0f             	and    $0xf,%esi
  a4accf:	0f b7 4d 00          	movzwl 0x0(%ebp),%ecx
  a4acd3:	83 e7 0f             	and    $0xf,%edi
  a4acd6:	48                   	dec    %eax
  a4acd7:	83 c5 02             	add    $0x2,%ebp
  a4acda:	89 0a                	mov    %ecx,(%edx)
  a4acdc:	48                   	dec    %eax
  a4acdd:	29 c8                	sub    %ecx,%eax
  a4acdf:	40                   	inc    %eax
  a4ace0:	80 ff 0f             	cmp    $0xf,%bh
  a4ace3:	0f 84 b7 00 00 00    	je     a4ada0 <LZ4_decompress_fast+0x170>
  a4ace9:	48                   	dec    %eax
  a4acea:	83 c6 04             	add    $0x4,%esi
  a4aced:	48                   	dec    %eax
  a4acee:	8d 3c 32             	lea    (%edx,%esi,1),%edi
  a4acf1:	48                   	dec    %eax
  a4acf2:	83 f9 07             	cmp    $0x7,%ecx
  a4acf5:	0f 86 d5 00 00 00    	jbe    a4add0 <LZ4_decompress_fast+0x1a0>
  a4acfb:	48                   	dec    %eax
  a4acfc:	8b 08                	mov    (%eax),%ecx
  a4acfe:	48                   	dec    %eax
  a4acff:	83 c0 08             	add    $0x8,%eax
  a4ad02:	48                   	dec    %eax
  a4ad03:	89 0a                	mov    %ecx,(%edx)
  a4ad05:	4c                   	dec    %esp
  a4ad06:	39 cf                	cmp    %ecx,%edi
  a4ad08:	0f 87 02 01 00 00    	ja     a4ae10 <LZ4_decompress_fast+0x1e0>
  a4ad0e:	48                   	dec    %eax
  a4ad0f:	8b 08                	mov    (%eax),%ecx
  a4ad11:	48                   	dec    %eax
  a4ad12:	89 4a 08             	mov    %ecx,0x8(%edx)
  a4ad15:	48                   	dec    %eax
  a4ad16:	83 fe 10             	cmp    $0x10,%esi
  a4ad19:	77 0d                	ja     a4ad28 <LZ4_decompress_fast+0xf8>
  a4ad1b:	0f b6 75 00          	movzbl 0x0(%ebp),%esi
  a4ad1f:	e9 5c ff ff ff       	jmp    a4ac80 <LZ4_decompress_fast+0x50>
  a4ad24:	0f 1f 40 00          	nopl   0x0(%eax)
  a4ad28:	48                   	dec    %eax
  a4ad29:	83 c0 08             	add    $0x8,%eax
  a4ad2c:	48                   	dec    %eax
  a4ad2d:	83 c2 10             	add    $0x10,%edx
  a4ad30:	48                   	dec    %eax
  a4ad31:	8b 08                	mov    (%eax),%ecx
  a4ad33:	48                   	dec    %eax
  a4ad34:	83 c2 08             	add    $0x8,%edx
  a4ad37:	48                   	dec    %eax
  a4ad38:	83 c0 08             	add    $0x8,%eax
  a4ad3b:	48                   	dec    %eax
  a4ad3c:	89 4a f8             	mov    %ecx,-0x8(%edx)
  a4ad3f:	48                   	dec    %eax
  a4ad40:	39 d7                	cmp    %edx,%edi
  a4ad42:	77 ec                	ja     a4ad30 <LZ4_decompress_fast+0x100>
  a4ad44:	eb d5                	jmp    a4ad1b <LZ4_decompress_fast+0xeb>
  a4ad46:	66 2e 0f 1f 84 00 00 	nopw   %cs:0x0(%eax,%eax,1)
  a4ad4d:	00 00 00 
  a4ad50:	bb 0f 00 00 00       	mov    $0xf,%ebx
  a4ad55:	0f 1f 00             	nopl   (%eax)
  a4ad58:	0f b6 55 00          	movzbl 0x0(%ebp),%edx
  a4ad5c:	48                   	dec    %eax
  a4ad5d:	83 c5 01             	add    $0x1,%ebp
  a4ad60:	48                   	dec    %eax
  a4ad61:	01 d3                	add    %edx,%ebx
  a4ad63:	80 fa ff             	cmp    $0xff,%dl
  a4ad66:	74 f0                	je     a4ad58 <LZ4_decompress_fast+0x128>
  a4ad68:	48                   	dec    %eax
  a4ad69:	8d 14 1f             	lea    (%edi,%ebx,1),%edx
  a4ad6c:	4c                   	dec    %esp
  a4ad6d:	39 c2                	cmp    %eax,%edx
  a4ad6f:	0f 86 2e ff ff ff    	jbe    a4aca3 <LZ4_decompress_fast+0x73>
  a4ad75:	49                   	dec    %ecx
  a4ad76:	39 d3                	cmp    %edx,%ebx
  a4ad78:	0f 85 02 01 00 00    	jne    a4ae80 <LZ4_decompress_fast+0x250>
  a4ad7e:	48                   	dec    %eax
  a4ad7f:	89 da                	mov    %ebx,%edx
  a4ad81:	48                   	dec    %eax
  a4ad82:	89 ee                	mov    %ebp,%esi
  a4ad84:	e8 37 2f 00 00       	call   a4dcc0 <memcpy>
  a4ad89:	48                   	dec    %eax
  a4ad8a:	8d 44 1d 00          	lea    0x0(%ebp,%ebx,1),%eax
  a4ad8e:	44                   	inc    %esp
  a4ad8f:	29 e0                	sub    %esp,%eax
  a4ad91:	48                   	dec    %eax
  a4ad92:	83 c4 08             	add    $0x8,%esp
  a4ad95:	5b                   	pop    %ebx
  a4ad96:	5d                   	pop    %ebp
  a4ad97:	41                   	inc    %ecx
  a4ad98:	5c                   	pop    %esp
  a4ad99:	41                   	inc    %ecx
  a4ad9a:	5d                   	pop    %ebp
  a4ad9b:	41                   	inc    %ecx
  a4ad9c:	5e                   	pop    %esi
  a4ad9d:	41                   	inc    %ecx
  a4ad9e:	5f                   	pop    %edi
  a4ad9f:	c3                   	ret    
  a4ada0:	be 0f 00 00 00       	mov    $0xf,%esi
  a4ada5:	0f 1f 00             	nopl   (%eax)
  a4ada8:	0f b6 5d 00          	movzbl 0x0(%ebp),%ebx
  a4adac:	48                   	dec    %eax
  a4adad:	83 c5 01             	add    $0x1,%ebp
  a4adb0:	48                   	dec    %eax
  a4adb1:	01 de                	add    %ebx,%esi
  a4adb3:	80 fb ff             	cmp    $0xff,%bl
  a4adb6:	74 f0                	je     a4ada8 <LZ4_decompress_fast+0x178>
  a4adb8:	48                   	dec    %eax
  a4adb9:	83 c6 04             	add    $0x4,%esi
  a4adbc:	48                   	dec    %eax
  a4adbd:	8d 3c 32             	lea    (%edx,%esi,1),%edi
  a4adc0:	48                   	dec    %eax
  a4adc1:	83 f9 07             	cmp    $0x7,%ecx
  a4adc4:	0f 87 31 ff ff ff    	ja     a4acfb <LZ4_decompress_fast+0xcb>
  a4adca:	66 0f 1f 44 00 00    	nopw   0x0(%eax,%eax,1)
  a4add0:	0f b6 18             	movzbl (%eax),%ebx
  a4add3:	88 1a                	mov    %bl,(%edx)
  a4add5:	0f b6 58 01          	movzbl 0x1(%eax),%ebx
  a4add9:	88 5a 01             	mov    %bl,0x1(%edx)
  a4addc:	0f b6 58 02          	movzbl 0x2(%eax),%ebx
  a4ade0:	88 5a 02             	mov    %bl,0x2(%edx)
  a4ade3:	0f b6 58 03          	movzbl 0x3(%eax),%ebx
  a4ade7:	88 5a 03             	mov    %bl,0x3(%edx)
  a4adea:	41                   	inc    %ecx
  a4adeb:	8b 1c 8e             	mov    (%esi,%ecx,4),%ebx
  a4adee:	49                   	dec    %ecx
  a4adef:	63 0c 8f             	arpl   %cx,(%edi,%ecx,4)
  a4adf2:	48                   	dec    %eax
  a4adf3:	01 d8                	add    %ebx,%eax
  a4adf5:	8b 18                	mov    (%eax),%ebx
  a4adf7:	48                   	dec    %eax
  a4adf8:	29 c8                	sub    %ecx,%eax
  a4adfa:	89 5a 04             	mov    %ebx,0x4(%edx)
  a4adfd:	4c                   	dec    %esp
  a4adfe:	39 cf                	cmp    %ecx,%edi
  a4ae00:	0f 86 08 ff ff ff    	jbe    a4ad0e <LZ4_decompress_fast+0xde>
  a4ae06:	66 2e 0f 1f 84 00 00 	nopw   %cs:0x0(%eax,%eax,1)
  a4ae0d:	00 00 00 
  a4ae10:	4c                   	dec    %esp
  a4ae11:	39 ef                	cmp    %ebp,%edi
  a4ae13:	77 6b                	ja     a4ae80 <LZ4_decompress_fast+0x250>
  a4ae15:	48                   	dec    %eax
  a4ae16:	83 c2 08             	add    $0x8,%edx
  a4ae19:	4c                   	dec    %esp
  a4ae1a:	39 d2                	cmp    %edx,%edx
  a4ae1c:	72 28                	jb     a4ae46 <LZ4_decompress_fast+0x216>
  a4ae1e:	48                   	dec    %eax
  a4ae1f:	39 d7                	cmp    %edx,%edi
  a4ae21:	0f 86 f4 fe ff ff    	jbe    a4ad1b <LZ4_decompress_fast+0xeb>
  a4ae27:	48                   	dec    %eax
  a4ae28:	89 fb                	mov    %edi,%ebx
  a4ae2a:	31 c9                	xor    %ecx,%ecx
  a4ae2c:	48                   	dec    %eax
  a4ae2d:	29 d3                	sub    %edx,%ebx
  a4ae2f:	90                   	nop
  a4ae30:	0f b6 34 08          	movzbl (%eax,%ecx,1),%esi
  a4ae34:	40                   	inc    %eax
  a4ae35:	88 34 0a             	mov    %dh,(%edx,%ecx,1)
  a4ae38:	48                   	dec    %eax
  a4ae39:	83 c1 01             	add    $0x1,%ecx
  a4ae3c:	48                   	dec    %eax
  a4ae3d:	39 cb                	cmp    %ecx,%ebx
  a4ae3f:	75 ef                	jne    a4ae30 <LZ4_decompress_fast+0x200>
  a4ae41:	e9 d5 fe ff ff       	jmp    a4ad1b <LZ4_decompress_fast+0xeb>
  a4ae46:	48                   	dec    %eax
  a4ae47:	89 c6                	mov    %eax,%esi
  a4ae49:	48                   	dec    %eax
  a4ae4a:	89 d1                	mov    %edx,%ecx
  a4ae4c:	0f 1f 40 00          	nopl   0x0(%eax)
  a4ae50:	48                   	dec    %eax
  a4ae51:	8b 1e                	mov    (%esi),%ebx
  a4ae53:	48                   	dec    %eax
  a4ae54:	83 c1 08             	add    $0x8,%ecx
  a4ae57:	48                   	dec    %eax
  a4ae58:	83 c6 08             	add    $0x8,%esi
  a4ae5b:	48                   	dec    %eax
  a4ae5c:	89 59 f8             	mov    %ebx,-0x8(%ecx)
  a4ae5f:	49                   	dec    %ecx
  a4ae60:	39 ca                	cmp    %ecx,%edx
  a4ae62:	77 ec                	ja     a4ae50 <LZ4_decompress_fast+0x220>
  a4ae64:	4c                   	dec    %esp
  a4ae65:	89 d1                	mov    %edx,%ecx
  a4ae67:	48                   	dec    %eax
  a4ae68:	29 d1                	sub    %edx,%ecx
  a4ae6a:	4c                   	dec    %esp
  a4ae6b:	89 d2                	mov    %edx,%edx
  a4ae6d:	48                   	dec    %eax
  a4ae6e:	01 c8                	add    %ecx,%eax
  a4ae70:	eb ac                	jmp    a4ae1e <LZ4_decompress_fast+0x1ee>
  a4ae72:	b8 01 00 00 00       	mov    $0x1,%eax
  a4ae77:	40                   	inc    %eax
  a4ae78:	84 f6                	test   %dh,%dh
  a4ae7a:	0f 84 11 ff ff ff    	je     a4ad91 <LZ4_decompress_fast+0x161>
  a4ae80:	48                   	dec    %eax
  a4ae81:	83 c4 08             	add    $0x8,%esp
  a4ae84:	b8 ff ff ff ff       	mov    $0xffffffff,%eax
  a4ae89:	5b                   	pop    %ebx
  a4ae8a:	5d                   	pop    %ebp
  a4ae8b:	41                   	inc    %ecx
  a4ae8c:	5c                   	pop    %esp
  a4ae8d:	41                   	inc    %ecx
  a4ae8e:	5d                   	pop    %ebp
  a4ae8f:	41                   	inc    %ecx
  a4ae90:	5e                   	pop    %esi
  a4ae91:	41                   	inc    %ecx
  a4ae92:	5f                   	pop    %edi
  a4ae93:	c3                   	ret    
  a4ae94:	66 66 2e 0f 1f 84 00 	data16 nopw %cs:0x0(%eax,%eax,1)
  a4ae9b:	00 00 00 00 
  a4ae9f:	90                   	nop

0000000000a4aea0 <LZ4_setStreamDecode>:
  a4aea0:	f3 0f 1e fa          	endbr64 
  a4aea4:	48                   	dec    %eax
  a4aea5:	63 d2                	arpl   %dx,%dx
  a4aea7:	48                   	dec    %eax
  a4aea8:	c7 07 00 00 00 00    	movl   $0x0,(%edi)
  a4aeae:	b8 01 00 00 00       	mov    $0x1,%eax
  a4aeb3:	48                   	dec    %eax
  a4aeb4:	89 57 18             	mov    %edx,0x18(%edi)
  a4aeb7:	48                   	dec    %eax
  a4aeb8:	01 f2                	add    %esi,%edx
  a4aeba:	48                   	dec    %eax
  a4aebb:	89 57 10             	mov    %edx,0x10(%edi)
  a4aebe:	48                   	dec    %eax
  a4aebf:	c7 47 08 00 00 00 00 	movl   $0x0,0x8(%edi)
  a4aec6:	c3                   	ret    
  a4aec7:	66 0f 1f 84 00 00 00 	nopw   0x0(%eax,%eax,1)
  a4aece:	00 00 

0000000000a4aed0 <LZ4_decompress_safe_continue>:
  a4aed0:	f3 0f 1e fa          	endbr64 
  a4aed4:	41                   	inc    %ecx
  a4aed5:	57                   	push   %edi
  a4aed6:	49                   	dec    %ecx
  a4aed7:	89 d7                	mov    %edx,%edi
  a4aed9:	4c                   	dec    %esp
  a4aeda:	63 d1                	arpl   %dx,%cx
  a4aedc:	49                   	dec    %ecx
  a4aedd:	63 c8                	arpl   %cx,%ax
  a4aedf:	41                   	inc    %ecx
  a4aee0:	56                   	push   %esi
  a4aee1:	4d                   	dec    %ebp
  a4aee2:	89 f9                	mov    %edi,%ecx
  a4aee4:	4c                   	dec    %esp
  a4aee5:	89 d0                	mov    %edx,%eax
  a4aee7:	4c                   	dec    %esp
  a4aee8:	01 f9                	add    %edi,%ecx
  a4aeea:	41                   	inc    %ecx
  a4aeeb:	55                   	push   %ebp
  a4aeec:	49                   	dec    %ecx
  a4aeed:	01 f2                	add    %esi,%edx
  a4aeef:	41                   	inc    %ecx
  a4aef0:	54                   	push   %esp
  a4aef1:	55                   	push   %ebp
  a4aef2:	53                   	push   %ebx
  a4aef3:	48                   	dec    %eax
  a4aef4:	89 f3                	mov    %esi,%ebx
  a4aef6:	48                   	dec    %eax
  a4aef7:	83 ec 48             	sub    $0x48,%esp
  a4aefa:	4c                   	dec    %esp
  a4aefb:	8b 5f 18             	mov    0x18(%edi),%ebx
  a4aefe:	4c                   	dec    %esp
  a4aeff:	8b 6f 10             	mov    0x10(%edi),%ebp
  a4af02:	48                   	dec    %eax
  a4af03:	89 7c 24 08          	mov    %edi,0x8(%esp)
  a4af07:	4c                   	dec    %esp
  a4af08:	89 da                	mov    %ebx,%edx
  a4af0a:	4d                   	dec    %ebp
  a4af0b:	29 d9                	sub    %ebx,%ecx
  a4af0d:	48                   	dec    %eax
  a4af0e:	f7 da                	neg    %edx
  a4af10:	4d                   	dec    %ebp
  a4af11:	39 fd                	cmp    %edi,%ebp
  a4af13:	0f 84 87 02 00 00    	je     a4b1a0 <LZ4_decompress_safe_continue+0x2d0>
  a4af19:	48                   	dec    %eax
  a4af1a:	8b 74 24 08          	mov    0x8(%esp),%esi
  a4af1e:	4c                   	dec    %esp
  a4af1f:	01 ea                	add    %ebp,%edx
  a4af21:	4c                   	dec    %esp
  a4af22:	89 fd                	mov    %edi,%ebp
  a4af24:	48                   	dec    %eax
  a4af25:	89 16                	mov    %edx,(%esi)
  a4af27:	48                   	dec    %eax
  a4af28:	8d 51 f9             	lea    -0x7(%ecx),%edx
  a4af2b:	4c                   	dec    %esp
  a4af2c:	89 5e 08             	mov    %ebx,0x8(%esi)
  a4af2f:	48                   	dec    %eax
  a4af30:	89 54 24 30          	mov    %edx,0x30(%esp)
  a4af34:	45                   	inc    %ebp
  a4af35:	85 c0                	test   %eax,%eax
  a4af37:	0f 84 98 05 00 00    	je     a4b4d5 <LZ4_decompress_safe_continue+0x605>
  a4af3d:	49                   	dec    %ecx
  a4af3e:	89 cc                	mov    %ecx,%esp
  a4af40:	4d                   	dec    %ebp
  a4af41:	89 d6                	mov    %edx,%esi
  a4af43:	4c                   	dec    %esp
  a4af44:	89 e9                	mov    %ebp,%ecx
  a4af46:	4d                   	dec    %ebp
  a4af47:	89 dd                	mov    %ebx,%ebp
  a4af49:	0f b6 3b             	movzbl (%ebx),%edi
  a4af4c:	48                   	dec    %eax
  a4af4d:	8d 73 01             	lea    0x1(%ebx),%esi
  a4af50:	89 fa                	mov    %edi,%edx
  a4af52:	c1 ef 04             	shr    $0x4,%edi
  a4af55:	89 f8                	mov    %edi,%eax
  a4af57:	83 ff 0f             	cmp    $0xf,%edi
  a4af5a:	0f 84 d8 01 00 00    	je     a4b138 <LZ4_decompress_safe_continue+0x268>
  a4af60:	48                   	dec    %eax
  a4af61:	8d 7c 05 00          	lea    0x0(%ebp,%eax,1),%edi
  a4af65:	48                   	dec    %eax
  a4af66:	8d 1c 06             	lea    (%esi,%eax,1),%ebx
  a4af69:	4d                   	dec    %ebp
  a4af6a:	8d 54 24 f4          	lea    -0xc(%esp),%edx
  a4af6e:	49                   	dec    %ecx
  a4af6f:	39 fa                	cmp    %edi,%edx
  a4af71:	0f 82 03 05 00 00    	jb     a4b47a <LZ4_decompress_safe_continue+0x5aa>
  a4af77:	4d                   	dec    %ebp
  a4af78:	8d 46 f8             	lea    -0x8(%esi),%eax
  a4af7b:	4c                   	dec    %esp
  a4af7c:	39 c3                	cmp    %eax,%ebx
  a4af7e:	0f 87 f6 04 00 00    	ja     a4b47a <LZ4_decompress_safe_continue+0x5aa>
  a4af84:	0f 1f 40 00          	nopl   0x0(%eax)
  a4af88:	48                   	dec    %eax
  a4af89:	8b 06                	mov    (%esi),%eax
  a4af8b:	48                   	dec    %eax
  a4af8c:	83 c5 08             	add    $0x8,%ebp
  a4af8f:	48                   	dec    %eax
  a4af90:	83 c6 08             	add    $0x8,%esi
  a4af93:	48                   	dec    %eax
  a4af94:	89 45 f8             	mov    %eax,-0x8(%ebp)
  a4af97:	48                   	dec    %eax
  a4af98:	39 fd                	cmp    %edi,%ebp
  a4af9a:	72 ec                	jb     a4af88 <LZ4_decompress_safe_continue+0xb8>
  a4af9c:	0f b7 33             	movzwl (%ebx),%esi
  a4af9f:	49                   	dec    %ecx
  a4afa0:	89 fb                	mov    %edi,%ebx
  a4afa2:	48                   	dec    %eax
  a4afa3:	83 c3 02             	add    $0x2,%ebx
  a4afa6:	48                   	dec    %eax
  a4afa7:	89 f0                	mov    %esi,%eax
  a4afa9:	49                   	dec    %ecx
  a4afaa:	29 f3                	sub    %esi,%ebx
  a4afac:	49                   	dec    %ecx
  a4afad:	81 fd ff ff 00 00    	cmp    $0xffff,%ebp
  a4afb3:	77 09                	ja     a4afbe <LZ4_decompress_safe_continue+0xee>
  a4afb5:	4d                   	dec    %ebp
  a4afb6:	39 cb                	cmp    %ecx,%ebx
  a4afb8:	0f 82 3e 01 00 00    	jb     a4b0fc <LZ4_decompress_safe_continue+0x22c>
  a4afbe:	89 07                	mov    %eax,(%edi)
  a4afc0:	89 d0                	mov    %edx,%eax
  a4afc2:	83 e2 0f             	and    $0xf,%edx
  a4afc5:	83 e0 0f             	and    $0xf,%eax
  a4afc8:	3c 0f                	cmp    $0xf,%al
  a4afca:	0f 84 00 01 00 00    	je     a4b0d0 <LZ4_decompress_safe_continue+0x200>
  a4afd0:	48                   	dec    %eax
  a4afd1:	83 c2 04             	add    $0x4,%edx
  a4afd4:	48                   	dec    %eax
  a4afd5:	8d 2c 17             	lea    (%edi,%edx,1),%ebp
  a4afd8:	4d                   	dec    %ebp
  a4afd9:	39 df                	cmp    %ebx,%edi
  a4afdb:	0f 86 8f 00 00 00    	jbe    a4b070 <LZ4_decompress_safe_continue+0x1a0>
  a4afe1:	49                   	dec    %ecx
  a4afe2:	8d 44 24 fb          	lea    -0x5(%esp),%eax
  a4afe6:	48                   	dec    %eax
  a4afe7:	39 c5                	cmp    %eax,%ebp
  a4afe9:	0f 87 0d 01 00 00    	ja     a4b0fc <LZ4_decompress_safe_continue+0x22c>
  a4afef:	4d                   	dec    %ebp
  a4aff0:	89 fa                	mov    %edi,%edx
  a4aff2:	48                   	dec    %eax
  a4aff3:	89 ce                	mov    %ecx,%esi
  a4aff5:	4d                   	dec    %ebp
  a4aff6:	29 da                	sub    %ebx,%edx
  a4aff8:	4c                   	dec    %esp
  a4aff9:	29 d6                	sub    %edx,%esi
  a4affb:	4c                   	dec    %esp
  a4affc:	39 d2                	cmp    %edx,%edx
  a4affe:	0f 86 74 01 00 00    	jbe    a4b178 <LZ4_decompress_safe_continue+0x2a8>
  a4b004:	4c                   	dec    %esp
  a4b005:	29 d2                	sub    %edx,%edx
  a4b007:	4c                   	dec    %esp
  a4b008:	89 4c 24 28          	mov    %ecx,0x28(%esp)
  a4b00c:	48                   	dec    %eax
  a4b00d:	89 54 24 18          	mov    %edx,0x18(%esp)
  a4b011:	4c                   	dec    %esp
  a4b012:	89 d2                	mov    %edx,%edx
  a4b014:	48                   	dec    %eax
  a4b015:	89 4c 24 20          	mov    %ecx,0x20(%esp)
  a4b019:	4c                   	dec    %esp
  a4b01a:	89 54 24 10          	mov    %edx,0x10(%esp)
  a4b01e:	e8 9d 2c 00 00       	call   a4dcc0 <memcpy>
  a4b023:	4c                   	dec    %esp
  a4b024:	8b 54 24 10          	mov    0x10(%esp),%edx
  a4b028:	4c                   	dec    %esp
  a4b029:	8b 44 24 18          	mov    0x18(%esp),%eax
  a4b02d:	48                   	dec    %eax
  a4b02e:	89 c7                	mov    %eax,%edi
  a4b030:	48                   	dec    %eax
  a4b031:	8b 4c 24 20          	mov    0x20(%esp),%ecx
  a4b035:	4c                   	dec    %esp
  a4b036:	8b 4c 24 28          	mov    0x28(%esp),%ecx
  a4b03a:	4c                   	dec    %esp
  a4b03b:	01 d7                	add    %edx,%edi
  a4b03d:	48                   	dec    %eax
  a4b03e:	89 f8                	mov    %edi,%eax
  a4b040:	4c                   	dec    %esp
  a4b041:	29 f8                	sub    %edi,%eax
  a4b043:	49                   	dec    %ecx
  a4b044:	39 c0                	cmp    %eax,%eax
  a4b046:	0f 86 c4 00 00 00    	jbe    a4b110 <LZ4_decompress_safe_continue+0x240>
  a4b04c:	48                   	dec    %eax
  a4b04d:	39 fd                	cmp    %edi,%ebp
  a4b04f:	0f 86 20 05 00 00    	jbe    a4b575 <LZ4_decompress_safe_continue+0x6a5>
  a4b055:	31 c0                	xor    %eax,%eax
  a4b057:	41                   	inc    %ecx
  a4b058:	0f b6 14 07          	movzbl (%edi,%eax,1),%edx
  a4b05c:	88 14 07             	mov    %dl,(%edi,%eax,1)
  a4b05f:	48                   	dec    %eax
  a4b060:	83 c0 01             	add    $0x1,%eax
  a4b063:	4c                   	dec    %esp
  a4b064:	39 c0                	cmp    %eax,%eax
  a4b066:	75 ef                	jne    a4b057 <LZ4_decompress_safe_continue+0x187>
  a4b068:	e9 dc fe ff ff       	jmp    a4af49 <LZ4_decompress_safe_continue+0x79>
  a4b06d:	0f 1f 00             	nopl   (%eax)
  a4b070:	48                   	dec    %eax
  a4b071:	83 fe 07             	cmp    $0x7,%esi
  a4b074:	0f 86 bc 03 00 00    	jbe    a4b436 <LZ4_decompress_safe_continue+0x566>
  a4b07a:	49                   	dec    %ecx
  a4b07b:	8b 03                	mov    (%ebx),%eax
  a4b07d:	49                   	dec    %ecx
  a4b07e:	83 c3 08             	add    $0x8,%ebx
  a4b081:	48                   	dec    %eax
  a4b082:	89 07                	mov    %eax,(%edi)
  a4b084:	49                   	dec    %ecx
  a4b085:	39 ea                	cmp    %ebp,%edx
  a4b087:	0f 82 5e 03 00 00    	jb     a4b3eb <LZ4_decompress_safe_continue+0x51b>
  a4b08d:	49                   	dec    %ecx
  a4b08e:	8b 03                	mov    (%ebx),%eax
  a4b090:	48                   	dec    %eax
  a4b091:	89 47 08             	mov    %eax,0x8(%edi)
  a4b094:	48                   	dec    %eax
  a4b095:	83 fa 10             	cmp    $0x10,%edx
  a4b098:	0f 86 ab fe ff ff    	jbe    a4af49 <LZ4_decompress_safe_continue+0x79>
  a4b09e:	49                   	dec    %ecx
  a4b09f:	8d 43 08             	lea    0x8(%ebx),%eax
  a4b0a2:	48                   	dec    %eax
  a4b0a3:	83 c7 10             	add    $0x10,%edi
  a4b0a6:	66 2e 0f 1f 84 00 00 	nopw   %cs:0x0(%eax,%eax,1)
  a4b0ad:	00 00 00 
  a4b0b0:	48                   	dec    %eax
  a4b0b1:	8b 10                	mov    (%eax),%edx
  a4b0b3:	48                   	dec    %eax
  a4b0b4:	83 c7 08             	add    $0x8,%edi
  a4b0b7:	48                   	dec    %eax
  a4b0b8:	83 c0 08             	add    $0x8,%eax
  a4b0bb:	48                   	dec    %eax
  a4b0bc:	89 57 f8             	mov    %edx,-0x8(%edi)
  a4b0bf:	48                   	dec    %eax
  a4b0c0:	39 fd                	cmp    %edi,%ebp
  a4b0c2:	77 ec                	ja     a4b0b0 <LZ4_decompress_safe_continue+0x1e0>
  a4b0c4:	e9 80 fe ff ff       	jmp    a4af49 <LZ4_decompress_safe_continue+0x79>
  a4b0c9:	0f 1f 80 00 00 00 00 	nopl   0x0(%eax)
  a4b0d0:	49                   	dec    %ecx
  a4b0d1:	8d 6e fc             	lea    -0x4(%esi),%ebp
  a4b0d4:	ba 0f 00 00 00       	mov    $0xf,%edx
  a4b0d9:	eb 14                	jmp    a4b0ef <LZ4_decompress_safe_continue+0x21f>
  a4b0db:	0f 1f 44 00 00       	nopl   0x0(%eax,%eax,1)
  a4b0e0:	44                   	inc    %esp
  a4b0e1:	0f b6 c0             	movzbl %al,%eax
  a4b0e4:	4c                   	dec    %esp
  a4b0e5:	01 c2                	add    %eax,%edx
  a4b0e7:	3c ff                	cmp    $0xff,%al
  a4b0e9:	0f 85 b1 02 00 00    	jne    a4b3a0 <LZ4_decompress_safe_continue+0x4d0>
  a4b0ef:	48                   	dec    %eax
  a4b0f0:	83 c3 01             	add    $0x1,%ebx
  a4b0f3:	0f b6 43 ff          	movzbl -0x1(%ebx),%eax
  a4b0f7:	48                   	dec    %eax
  a4b0f8:	39 dd                	cmp    %ebx,%ebp
  a4b0fa:	75 e4                	jne    a4b0e0 <LZ4_decompress_safe_continue+0x210>
  a4b0fc:	b8 ff ff ff ff       	mov    $0xffffffff,%eax
  a4b101:	48                   	dec    %eax
  a4b102:	83 c4 48             	add    $0x48,%esp
  a4b105:	5b                   	pop    %ebx
  a4b106:	5d                   	pop    %ebp
  a4b107:	41                   	inc    %ecx
  a4b108:	5c                   	pop    %esp
  a4b109:	41                   	inc    %ecx
  a4b10a:	5d                   	pop    %ebp
  a4b10b:	41                   	inc    %ecx
  a4b10c:	5e                   	pop    %esi
  a4b10d:	41                   	inc    %ecx
  a4b10e:	5f                   	pop    %edi
  a4b10f:	c3                   	ret    
  a4b110:	4c                   	dec    %esp
  a4b111:	89 c2                	mov    %eax,%edx
  a4b113:	4c                   	dec    %esp
  a4b114:	89 fe                	mov    %edi,%esi
  a4b116:	4c                   	dec    %esp
  a4b117:	89 4c 24 18          	mov    %ecx,0x18(%esp)
  a4b11b:	48                   	dec    %eax
  a4b11c:	89 4c 24 10          	mov    %ecx,0x10(%esp)
  a4b120:	e8 9b 2b 00 00       	call   a4dcc0 <memcpy>
  a4b125:	48                   	dec    %eax
  a4b126:	8b 4c 24 10          	mov    0x10(%esp),%ecx
  a4b12a:	4c                   	dec    %esp
  a4b12b:	8b 4c 24 18          	mov    0x18(%esp),%ecx
  a4b12f:	e9 15 fe ff ff       	jmp    a4af49 <LZ4_decompress_safe_continue+0x79>
  a4b134:	0f 1f 40 00          	nopl   0x0(%eax)
  a4b138:	4d                   	dec    %ebp
  a4b139:	8d 56 f1             	lea    -0xf(%esi),%edx
  a4b13c:	b8 0f 00 00 00       	mov    $0xf,%eax
  a4b141:	eb 0b                	jmp    a4b14e <LZ4_decompress_safe_continue+0x27e>
  a4b143:	0f 1f 44 00 00       	nopl   0x0(%eax,%eax,1)
  a4b148:	41                   	inc    %ecx
  a4b149:	80 f8 ff             	cmp    $0xff,%al
  a4b14c:	75 10                	jne    a4b15e <LZ4_decompress_safe_continue+0x28e>
  a4b14e:	44                   	inc    %esp
  a4b14f:	0f b6 06             	movzbl (%esi),%eax
  a4b152:	48                   	dec    %eax
  a4b153:	83 c6 01             	add    $0x1,%esi
  a4b156:	4c                   	dec    %esp
  a4b157:	01 c0                	add    %eax,%eax
  a4b159:	4c                   	dec    %esp
  a4b15a:	39 d6                	cmp    %edx,%esi
  a4b15c:	72 ea                	jb     a4b148 <LZ4_decompress_safe_continue+0x278>
  a4b15e:	48                   	dec    %eax
  a4b15f:	89 ef                	mov    %ebp,%edi
  a4b161:	48                   	dec    %eax
  a4b162:	01 c7                	add    %eax,%edi
  a4b164:	72 96                	jb     a4b0fc <LZ4_decompress_safe_continue+0x22c>
  a4b166:	48                   	dec    %eax
  a4b167:	89 f3                	mov    %esi,%ebx
  a4b169:	48                   	dec    %eax
  a4b16a:	01 c3                	add    %eax,%ebx
  a4b16c:	0f 83 f7 fd ff ff    	jae    a4af69 <LZ4_decompress_safe_continue+0x99>
  a4b172:	eb 88                	jmp    a4b0fc <LZ4_decompress_safe_continue+0x22c>
  a4b174:	0f 1f 40 00          	nopl   0x0(%eax)
  a4b178:	4c                   	dec    %esp
  a4b179:	89 4c 24 18          	mov    %ecx,0x18(%esp)
  a4b17d:	48                   	dec    %eax
  a4b17e:	89 4c 24 10          	mov    %ecx,0x10(%esp)
  a4b182:	e8 d9 2a 00 00       	call   a4dc60 <memmove>
  a4b187:	48                   	dec    %eax
  a4b188:	8b 4c 24 10          	mov    0x10(%esp),%ecx
  a4b18c:	4c                   	dec    %esp
  a4b18d:	8b 4c 24 18          	mov    0x18(%esp),%ecx
  a4b191:	e9 b3 fd ff ff       	jmp    a4af49 <LZ4_decompress_safe_continue+0x79>
  a4b196:	66 2e 0f 1f 84 00 00 	nopw   %cs:0x0(%eax,%eax,1)
  a4b19d:	00 00 00 
  a4b1a0:	48                   	dec    %eax
  a4b1a1:	8b 17                	mov    (%edi),%edx
  a4b1a3:	4c                   	dec    %esp
  a4b1a4:	8b 67 08             	mov    0x8(%edi),%esp
  a4b1a7:	48                   	dec    %eax
  a4b1a8:	89 54 24 18          	mov    %edx,0x18(%esp)
  a4b1ac:	4c                   	dec    %esp
  a4b1ad:	89 ca                	mov    %ecx,%edx
  a4b1af:	4c                   	dec    %esp
  a4b1b0:	29 e2                	sub    %esp,%edx
  a4b1b2:	48                   	dec    %eax
  a4b1b3:	89 54 24 10          	mov    %edx,0x10(%esp)
  a4b1b7:	48                   	dec    %eax
  a4b1b8:	8d 51 f9             	lea    -0x7(%ecx),%edx
  a4b1bb:	48                   	dec    %eax
  a4b1bc:	89 54 24 30          	mov    %edx,0x30(%esp)
  a4b1c0:	45                   	inc    %ebp
  a4b1c1:	85 c0                	test   %eax,%eax
  a4b1c3:	0f 84 39 04 00 00    	je     a4b602 <LZ4_decompress_safe_continue+0x732>
  a4b1c9:	4c                   	dec    %esp
  a4b1ca:	89 7c 24 38          	mov    %edi,0x38(%esp)
  a4b1ce:	4c                   	dec    %esp
  a4b1cf:	89 cd                	mov    %ecx,%ebp
  a4b1d1:	49                   	dec    %ecx
  a4b1d2:	89 ce                	mov    %ecx,%esi
  a4b1d4:	4d                   	dec    %ebp
  a4b1d5:	89 d7                	mov    %edx,%edi
  a4b1d7:	0f b6 0b             	movzbl (%ebx),%ecx
  a4b1da:	48                   	dec    %eax
  a4b1db:	8d 73 01             	lea    0x1(%ebx),%esi
  a4b1de:	89 ca                	mov    %ecx,%edx
  a4b1e0:	c1 e9 04             	shr    $0x4,%ecx
  a4b1e3:	89 c8                	mov    %ecx,%eax
  a4b1e5:	83 f9 0f             	cmp    $0xf,%ecx
  a4b1e8:	0f 84 6b 01 00 00    	je     a4b359 <LZ4_decompress_safe_continue+0x489>
  a4b1ee:	49                   	dec    %ecx
  a4b1ef:	8d 7c 05 00          	lea    0x0(%ebp,%eax,1),%edi
  a4b1f3:	48                   	dec    %eax
  a4b1f4:	8d 1c 06             	lea    (%esi,%eax,1),%ebx
  a4b1f7:	49                   	dec    %ecx
  a4b1f8:	8d 4e f4             	lea    -0xc(%esi),%ecx
  a4b1fb:	48                   	dec    %eax
  a4b1fc:	39 f9                	cmp    %edi,%ecx
  a4b1fe:	0f 82 79 03 00 00    	jb     a4b57d <LZ4_decompress_safe_continue+0x6ad>
  a4b204:	4d                   	dec    %ebp
  a4b205:	8d 47 f8             	lea    -0x8(%edi),%eax
  a4b208:	4c                   	dec    %esp
  a4b209:	39 c3                	cmp    %eax,%ebx
  a4b20b:	0f 87 6c 03 00 00    	ja     a4b57d <LZ4_decompress_safe_continue+0x6ad>
  a4b211:	0f 1f 80 00 00 00 00 	nopl   0x0(%eax)
  a4b218:	48                   	dec    %eax
  a4b219:	8b 06                	mov    (%esi),%eax
  a4b21b:	49                   	dec    %ecx
  a4b21c:	83 c5 08             	add    $0x8,%ebp
  a4b21f:	48                   	dec    %eax
  a4b220:	83 c6 08             	add    $0x8,%esi
  a4b223:	49                   	dec    %ecx
  a4b224:	89 45 f8             	mov    %eax,-0x8(%ebp)
  a4b227:	49                   	dec    %ecx
  a4b228:	39 fd                	cmp    %edi,%ebp
  a4b22a:	72 ec                	jb     a4b218 <LZ4_decompress_safe_continue+0x348>
  a4b22c:	44                   	inc    %esp
  a4b22d:	0f b7 03             	movzwl (%ebx),%eax
  a4b230:	48                   	dec    %eax
  a4b231:	89 fe                	mov    %edi,%esi
  a4b233:	48                   	dec    %eax
  a4b234:	83 c3 02             	add    $0x2,%ebx
  a4b237:	4c                   	dec    %esp
  a4b238:	89 c0                	mov    %eax,%eax
  a4b23a:	4c                   	dec    %esp
  a4b23b:	29 c6                	sub    %eax,%esi
  a4b23d:	49                   	dec    %ecx
  a4b23e:	81 fc ff ff 00 00    	cmp    $0xffff,%esp
  a4b244:	77 0b                	ja     a4b251 <LZ4_decompress_safe_continue+0x381>
  a4b246:	48                   	dec    %eax
  a4b247:	39 74 24 10          	cmp    %esi,0x10(%esp)
  a4b24b:	0f 87 ab fe ff ff    	ja     a4b0fc <LZ4_decompress_safe_continue+0x22c>
  a4b251:	89 07                	mov    %eax,(%edi)
  a4b253:	89 d0                	mov    %edx,%eax
  a4b255:	83 e2 0f             	and    $0xf,%edx
  a4b258:	83 e0 0f             	and    $0xf,%eax
  a4b25b:	3c 0f                	cmp    $0xf,%al
  a4b25d:	0f 84 4e 01 00 00    	je     a4b3b1 <LZ4_decompress_safe_continue+0x4e1>
  a4b263:	48                   	dec    %eax
  a4b264:	83 c2 04             	add    $0x4,%edx
  a4b267:	4c                   	dec    %esp
  a4b268:	8d 2c 17             	lea    (%edi,%edx,1),%ebp
  a4b26b:	48                   	dec    %eax
  a4b26c:	39 ee                	cmp    %ebp,%esi
  a4b26e:	0f 83 8c 00 00 00    	jae    a4b300 <LZ4_decompress_safe_continue+0x430>
  a4b274:	49                   	dec    %ecx
  a4b275:	8d 46 fb             	lea    -0x5(%esi),%eax
  a4b278:	49                   	dec    %ecx
  a4b279:	39 c5                	cmp    %eax,%ebp
  a4b27b:	0f 87 7b fe ff ff    	ja     a4b0fc <LZ4_decompress_safe_continue+0x22c>
  a4b281:	48                   	dec    %eax
  a4b282:	89 e9                	mov    %ebp,%ecx
  a4b284:	48                   	dec    %eax
  a4b285:	29 f1                	sub    %esi,%ecx
  a4b287:	4c                   	dec    %esp
  a4b288:	89 e6                	mov    %esp,%esi
  a4b28a:	48                   	dec    %eax
  a4b28b:	29 ce                	sub    %ecx,%esi
  a4b28d:	48                   	dec    %eax
  a4b28e:	03 74 24 18          	add    0x18(%esp),%esi
  a4b292:	48                   	dec    %eax
  a4b293:	39 ca                	cmp    %ecx,%edx
  a4b295:	0f 86 46 01 00 00    	jbe    a4b3e1 <LZ4_decompress_safe_continue+0x511>
  a4b29b:	48                   	dec    %eax
  a4b29c:	29 ca                	sub    %ecx,%edx
  a4b29e:	48                   	dec    %eax
  a4b29f:	89 4c 24 20          	mov    %ecx,0x20(%esp)
  a4b2a3:	48                   	dec    %eax
  a4b2a4:	89 54 24 28          	mov    %edx,0x28(%esp)
  a4b2a8:	48                   	dec    %eax
  a4b2a9:	89 ca                	mov    %ecx,%edx
  a4b2ab:	e8 10 2a 00 00       	call   a4dcc0 <memcpy>
  a4b2b0:	48                   	dec    %eax
  a4b2b1:	8b 4c 24 20          	mov    0x20(%esp),%ecx
  a4b2b5:	4c                   	dec    %esp
  a4b2b6:	8b 44 24 28          	mov    0x28(%esp),%eax
  a4b2ba:	48                   	dec    %eax
  a4b2bb:	89 c7                	mov    %eax,%edi
  a4b2bd:	48                   	dec    %eax
  a4b2be:	01 cf                	add    %ecx,%edi
  a4b2c0:	48                   	dec    %eax
  a4b2c1:	89 f8                	mov    %edi,%eax
  a4b2c3:	48                   	dec    %eax
  a4b2c4:	29 e8                	sub    %ebp,%eax
  a4b2c6:	49                   	dec    %ecx
  a4b2c7:	39 c0                	cmp    %eax,%eax
  a4b2c9:	76 21                	jbe    a4b2ec <LZ4_decompress_safe_continue+0x41c>
  a4b2cb:	49                   	dec    %ecx
  a4b2cc:	39 fd                	cmp    %edi,%ebp
  a4b2ce:	0f 86 47 03 00 00    	jbe    a4b61b <LZ4_decompress_safe_continue+0x74b>
  a4b2d4:	31 c0                	xor    %eax,%eax
  a4b2d6:	0f b6 54 05 00       	movzbl 0x0(%ebp,%eax,1),%edx
  a4b2db:	88 14 07             	mov    %dl,(%edi,%eax,1)
  a4b2de:	48                   	dec    %eax
  a4b2df:	83 c0 01             	add    $0x1,%eax
  a4b2e2:	49                   	dec    %ecx
  a4b2e3:	39 c0                	cmp    %eax,%eax
  a4b2e5:	75 ef                	jne    a4b2d6 <LZ4_decompress_safe_continue+0x406>
  a4b2e7:	e9 eb fe ff ff       	jmp    a4b1d7 <LZ4_decompress_safe_continue+0x307>
  a4b2ec:	4c                   	dec    %esp
  a4b2ed:	89 c2                	mov    %eax,%edx
  a4b2ef:	48                   	dec    %eax
  a4b2f0:	89 ee                	mov    %ebp,%esi
  a4b2f2:	e8 c9 29 00 00       	call   a4dcc0 <memcpy>
  a4b2f7:	e9 db fe ff ff       	jmp    a4b1d7 <LZ4_decompress_safe_continue+0x307>
  a4b2fc:	0f 1f 40 00          	nopl   0x0(%eax)
  a4b300:	49                   	dec    %ecx
  a4b301:	83 f8 07             	cmp    $0x7,%eax
  a4b304:	0f 86 e3 01 00 00    	jbe    a4b4ed <LZ4_decompress_safe_continue+0x61d>
  a4b30a:	48                   	dec    %eax
  a4b30b:	8b 06                	mov    (%esi),%eax
  a4b30d:	48                   	dec    %eax
  a4b30e:	83 c6 08             	add    $0x8,%esi
  a4b311:	48                   	dec    %eax
  a4b312:	89 07                	mov    %eax,(%edi)
  a4b314:	4c                   	dec    %esp
  a4b315:	39 e9                	cmp    %ebp,%ecx
  a4b317:	0f 82 10 02 00 00    	jb     a4b52d <LZ4_decompress_safe_continue+0x65d>
  a4b31d:	48                   	dec    %eax
  a4b31e:	8b 06                	mov    (%esi),%eax
  a4b320:	48                   	dec    %eax
  a4b321:	89 47 08             	mov    %eax,0x8(%edi)
  a4b324:	48                   	dec    %eax
  a4b325:	83 fa 10             	cmp    $0x10,%edx
  a4b328:	0f 86 a9 fe ff ff    	jbe    a4b1d7 <LZ4_decompress_safe_continue+0x307>
  a4b32e:	48                   	dec    %eax
  a4b32f:	8d 46 08             	lea    0x8(%esi),%eax
  a4b332:	48                   	dec    %eax
  a4b333:	83 c7 10             	add    $0x10,%edi
  a4b336:	66 2e 0f 1f 84 00 00 	nopw   %cs:0x0(%eax,%eax,1)
  a4b33d:	00 00 00 
  a4b340:	48                   	dec    %eax
  a4b341:	8b 10                	mov    (%eax),%edx
  a4b343:	48                   	dec    %eax
  a4b344:	83 c7 08             	add    $0x8,%edi
  a4b347:	48                   	dec    %eax
  a4b348:	83 c0 08             	add    $0x8,%eax
  a4b34b:	48                   	dec    %eax
  a4b34c:	89 57 f8             	mov    %edx,-0x8(%edi)
  a4b34f:	4c                   	dec    %esp
  a4b350:	39 ef                	cmp    %ebp,%edi
  a4b352:	72 ec                	jb     a4b340 <LZ4_decompress_safe_continue+0x470>
  a4b354:	e9 7e fe ff ff       	jmp    a4b1d7 <LZ4_decompress_safe_continue+0x307>
  a4b359:	4d                   	dec    %ebp
  a4b35a:	8d 47 f1             	lea    -0xf(%edi),%eax
  a4b35d:	b8 0f 00 00 00       	mov    $0xf,%eax
  a4b362:	eb 0a                	jmp    a4b36e <LZ4_decompress_safe_continue+0x49e>
  a4b364:	0f 1f 40 00          	nopl   0x0(%eax)
  a4b368:	40                   	inc    %eax
  a4b369:	80 ff ff             	cmp    $0xff,%bh
  a4b36c:	75 0f                	jne    a4b37d <LZ4_decompress_safe_continue+0x4ad>
  a4b36e:	0f b6 3e             	movzbl (%esi),%edi
  a4b371:	48                   	dec    %eax
  a4b372:	83 c6 01             	add    $0x1,%esi
  a4b375:	48                   	dec    %eax
  a4b376:	01 f8                	add    %edi,%eax
  a4b378:	4c                   	dec    %esp
  a4b379:	39 c6                	cmp    %eax,%esi
  a4b37b:	72 eb                	jb     a4b368 <LZ4_decompress_safe_continue+0x498>
  a4b37d:	4c                   	dec    %esp
  a4b37e:	89 ef                	mov    %ebp,%edi
  a4b380:	48                   	dec    %eax
  a4b381:	01 c7                	add    %eax,%edi
  a4b383:	0f 82 73 fd ff ff    	jb     a4b0fc <LZ4_decompress_safe_continue+0x22c>
  a4b389:	48                   	dec    %eax
  a4b38a:	89 f3                	mov    %esi,%ebx
  a4b38c:	48                   	dec    %eax
  a4b38d:	01 c3                	add    %eax,%ebx
  a4b38f:	0f 83 62 fe ff ff    	jae    a4b1f7 <LZ4_decompress_safe_continue+0x327>
  a4b395:	e9 62 fd ff ff       	jmp    a4b0fc <LZ4_decompress_safe_continue+0x22c>
  a4b39a:	66 0f 1f 44 00 00    	nopw   0x0(%eax,%eax,1)
  a4b3a0:	48                   	dec    %eax
  a4b3a1:	89 f8                	mov    %edi,%eax
  a4b3a3:	48                   	dec    %eax
  a4b3a4:	01 d0                	add    %edx,%eax
  a4b3a6:	0f 83 24 fc ff ff    	jae    a4afd0 <LZ4_decompress_safe_continue+0x100>
  a4b3ac:	e9 4b fd ff ff       	jmp    a4b0fc <LZ4_decompress_safe_continue+0x22c>
  a4b3b1:	4d                   	dec    %ebp
  a4b3b2:	8d 5f fc             	lea    -0x4(%edi),%ebx
  a4b3b5:	ba 0f 00 00 00       	mov    $0xf,%edx
  a4b3ba:	eb 13                	jmp    a4b3cf <LZ4_decompress_safe_continue+0x4ff>
  a4b3bc:	0f 1f 40 00          	nopl   0x0(%eax)
  a4b3c0:	44                   	inc    %esp
  a4b3c1:	0f b6 c8             	movzbl %al,%ecx
  a4b3c4:	4c                   	dec    %esp
  a4b3c5:	01 ca                	add    %ecx,%edx
  a4b3c7:	3c ff                	cmp    $0xff,%al
  a4b3c9:	0f 85 f5 00 00 00    	jne    a4b4c4 <LZ4_decompress_safe_continue+0x5f4>
  a4b3cf:	48                   	dec    %eax
  a4b3d0:	83 c3 01             	add    $0x1,%ebx
  a4b3d3:	0f b6 43 ff          	movzbl -0x1(%ebx),%eax
  a4b3d7:	4c                   	dec    %esp
  a4b3d8:	39 db                	cmp    %ebx,%ebx
  a4b3da:	75 e4                	jne    a4b3c0 <LZ4_decompress_safe_continue+0x4f0>
  a4b3dc:	e9 1b fd ff ff       	jmp    a4b0fc <LZ4_decompress_safe_continue+0x22c>
  a4b3e1:	e8 7a 28 00 00       	call   a4dc60 <memmove>
  a4b3e6:	e9 ec fd ff ff       	jmp    a4b1d7 <LZ4_decompress_safe_continue+0x307>
  a4b3eb:	49                   	dec    %ecx
  a4b3ec:	8d 44 24 fb          	lea    -0x5(%esp),%eax
  a4b3f0:	48                   	dec    %eax
  a4b3f1:	39 c5                	cmp    %eax,%ebp
  a4b3f3:	0f 87 03 fd ff ff    	ja     a4b0fc <LZ4_decompress_safe_continue+0x22c>
  a4b3f9:	48                   	dec    %eax
  a4b3fa:	83 c7 08             	add    $0x8,%edi
  a4b3fd:	48                   	dec    %eax
  a4b3fe:	3b 7c 24 30          	cmp    0x30(%esp),%edi
  a4b402:	0f 82 bf 01 00 00    	jb     a4b5c7 <LZ4_decompress_safe_continue+0x6f7>
  a4b408:	48                   	dec    %eax
  a4b409:	89 ee                	mov    %ebp,%esi
  a4b40b:	31 c0                	xor    %eax,%eax
  a4b40d:	48                   	dec    %eax
  a4b40e:	29 fe                	sub    %edi,%esi
  a4b410:	48                   	dec    %eax
  a4b411:	39 fd                	cmp    %edi,%ebp
  a4b413:	0f 86 30 fb ff ff    	jbe    a4af49 <LZ4_decompress_safe_continue+0x79>
  a4b419:	0f 1f 80 00 00 00 00 	nopl   0x0(%eax)
  a4b420:	41                   	inc    %ecx
  a4b421:	0f b6 14 03          	movzbl (%ebx,%eax,1),%edx
  a4b425:	88 14 07             	mov    %dl,(%edi,%eax,1)
  a4b428:	48                   	dec    %eax
  a4b429:	83 c0 01             	add    $0x1,%eax
  a4b42c:	48                   	dec    %eax
  a4b42d:	39 c6                	cmp    %eax,%esi
  a4b42f:	75 ef                	jne    a4b420 <LZ4_decompress_safe_continue+0x550>
  a4b431:	e9 13 fb ff ff       	jmp    a4af49 <LZ4_decompress_safe_continue+0x79>
  a4b436:	41                   	inc    %ecx
  a4b437:	0f b6 03             	movzbl (%ebx),%eax
  a4b43a:	88 07                	mov    %al,(%edi)
  a4b43c:	41                   	inc    %ecx
  a4b43d:	0f b6 43 01          	movzbl 0x1(%ebx),%eax
  a4b441:	88 47 01             	mov    %al,0x1(%edi)
  a4b444:	41                   	inc    %ecx
  a4b445:	0f b6 43 02          	movzbl 0x2(%ebx),%eax
  a4b449:	88 47 02             	mov    %al,0x2(%edi)
  a4b44c:	41                   	inc    %ecx
  a4b44d:	0f b6 43 03          	movzbl 0x3(%ebx),%eax
  a4b451:	88 47 03             	mov    %al,0x3(%edi)
  a4b454:	48                   	dec    %eax
  a4b455:	8d 05 45 8b 00 00    	lea    0x8b45,%eax
  a4b45b:	8b 04 b0             	mov    (%eax,%esi,4),%eax
  a4b45e:	49                   	dec    %ecx
  a4b45f:	01 c3                	add    %eax,%ebx
  a4b461:	41                   	inc    %ecx
  a4b462:	8b 03                	mov    (%ebx),%eax
  a4b464:	89 47 04             	mov    %eax,0x4(%edi)
  a4b467:	48                   	dec    %eax
  a4b468:	8d 05 52 8b 00 00    	lea    0x8b52,%eax
  a4b46e:	48                   	dec    %eax
  a4b46f:	63 04 b0             	arpl   %ax,(%eax,%esi,4)
  a4b472:	49                   	dec    %ecx
  a4b473:	29 c3                	sub    %eax,%ebx
  a4b475:	e9 0a fc ff ff       	jmp    a4b084 <LZ4_decompress_safe_continue+0x1b4>
  a4b47a:	4c                   	dec    %esp
  a4b47b:	89 e1                	mov    %esp,%ecx
  a4b47d:	48                   	dec    %eax
  a4b47e:	89 c2                	mov    %eax,%edx
  a4b480:	49                   	dec    %ecx
  a4b481:	89 fc                	mov    %edi,%esp
  a4b483:	48                   	dec    %eax
  a4b484:	39 cf                	cmp    %ecx,%edi
  a4b486:	0f 87 70 fc ff ff    	ja     a4b0fc <LZ4_decompress_safe_continue+0x22c>
  a4b48c:	4c                   	dec    %esp
  a4b48d:	39 f3                	cmp    %esi,%ebx
  a4b48f:	0f 85 67 fc ff ff    	jne    a4b0fc <LZ4_decompress_safe_continue+0x22c>
  a4b495:	48                   	dec    %eax
  a4b496:	89 ef                	mov    %ebp,%edi
  a4b498:	4d                   	dec    %ebp
  a4b499:	29 fc                	sub    %edi,%esp
  a4b49b:	e8 20 28 00 00       	call   a4dcc0 <memcpy>
  a4b4a0:	44                   	inc    %esp
  a4b4a1:	89 e0                	mov    %esp,%eax
  a4b4a3:	45                   	inc    %ebp
  a4b4a4:	85 e4                	test   %esp,%esp
  a4b4a6:	0f 8e 55 fc ff ff    	jle    a4b101 <LZ4_decompress_safe_continue+0x231>
  a4b4ac:	48                   	dec    %eax
  a4b4ad:	8b 4c 24 08          	mov    0x8(%esp),%ecx
  a4b4b1:	4d                   	dec    %ebp
  a4b4b2:	63 e4                	arpl   %sp,%sp
  a4b4b4:	4c                   	dec    %esp
  a4b4b5:	89 61 18             	mov    %esp,0x18(%ecx)
  a4b4b8:	4d                   	dec    %ebp
  a4b4b9:	01 fc                	add    %edi,%esp
  a4b4bb:	4c                   	dec    %esp
  a4b4bc:	89 61 10             	mov    %esp,0x10(%ecx)
  a4b4bf:	e9 3d fc ff ff       	jmp    a4b101 <LZ4_decompress_safe_continue+0x231>
  a4b4c4:	48                   	dec    %eax
  a4b4c5:	89 f8                	mov    %edi,%eax
  a4b4c7:	48                   	dec    %eax
  a4b4c8:	01 d0                	add    %edx,%eax
  a4b4ca:	0f 83 93 fd ff ff    	jae    a4b263 <LZ4_decompress_safe_continue+0x393>
  a4b4d0:	e9 27 fc ff ff       	jmp    a4b0fc <LZ4_decompress_safe_continue+0x22c>
  a4b4d5:	83 f8 01             	cmp    $0x1,%eax
  a4b4d8:	0f 85 1e fc ff ff    	jne    a4b0fc <LZ4_decompress_safe_continue+0x22c>
  a4b4de:	31 c0                	xor    %eax,%eax
  a4b4e0:	80 3b 00             	cmpb   $0x0,(%ebx)
  a4b4e3:	0f 95 c0             	setne  %al
  a4b4e6:	f7 d8                	neg    %eax
  a4b4e8:	e9 14 fc ff ff       	jmp    a4b101 <LZ4_decompress_safe_continue+0x231>
  a4b4ed:	0f b6 06             	movzbl (%esi),%eax
  a4b4f0:	88 07                	mov    %al,(%edi)
  a4b4f2:	0f b6 46 01          	movzbl 0x1(%esi),%eax
  a4b4f6:	88 47 01             	mov    %al,0x1(%edi)
  a4b4f9:	0f b6 46 02          	movzbl 0x2(%esi),%eax
  a4b4fd:	88 47 02             	mov    %al,0x2(%edi)
  a4b500:	0f b6 46 03          	movzbl 0x3(%esi),%eax
  a4b504:	88 47 03             	mov    %al,0x3(%edi)
  a4b507:	48                   	dec    %eax
  a4b508:	8d 05 92 8a 00 00    	lea    0x8a92,%eax
  a4b50e:	42                   	inc    %edx
  a4b50f:	8b 04 80             	mov    (%eax,%eax,4),%eax
  a4b512:	48                   	dec    %eax
  a4b513:	01 c6                	add    %eax,%esi
  a4b515:	8b 06                	mov    (%esi),%eax
  a4b517:	89 47 04             	mov    %eax,0x4(%edi)
  a4b51a:	48                   	dec    %eax
  a4b51b:	8d 05 9f 8a 00 00    	lea    0x8a9f,%eax
  a4b521:	4a                   	dec    %edx
  a4b522:	63 04 80             	arpl   %ax,(%eax,%eax,4)
  a4b525:	48                   	dec    %eax
  a4b526:	29 c6                	sub    %eax,%esi
  a4b528:	e9 e7 fd ff ff       	jmp    a4b314 <LZ4_decompress_safe_continue+0x444>
  a4b52d:	49                   	dec    %ecx
  a4b52e:	8d 46 fb             	lea    -0x5(%esi),%eax
  a4b531:	49                   	dec    %ecx
  a4b532:	39 c5                	cmp    %eax,%ebp
  a4b534:	0f 87 c2 fb ff ff    	ja     a4b0fc <LZ4_decompress_safe_continue+0x22c>
  a4b53a:	48                   	dec    %eax
  a4b53b:	83 c7 08             	add    $0x8,%edi
  a4b53e:	48                   	dec    %eax
  a4b53f:	3b 7c 24 30          	cmp    0x30(%esp),%edi
  a4b543:	0f 82 da 00 00 00    	jb     a4b623 <LZ4_decompress_safe_continue+0x753>
  a4b549:	4c                   	dec    %esp
  a4b54a:	89 e9                	mov    %ebp,%ecx
  a4b54c:	31 c0                	xor    %eax,%eax
  a4b54e:	48                   	dec    %eax
  a4b54f:	29 f9                	sub    %edi,%ecx
  a4b551:	4c                   	dec    %esp
  a4b552:	39 ef                	cmp    %ebp,%edi
  a4b554:	0f 83 7d fc ff ff    	jae    a4b1d7 <LZ4_decompress_safe_continue+0x307>
  a4b55a:	66 0f 1f 44 00 00    	nopw   0x0(%eax,%eax,1)
  a4b560:	0f b6 14 06          	movzbl (%esi,%eax,1),%edx
  a4b564:	88 14 07             	mov    %dl,(%edi,%eax,1)
  a4b567:	48                   	dec    %eax
  a4b568:	83 c0 01             	add    $0x1,%eax
  a4b56b:	48                   	dec    %eax
  a4b56c:	39 c1                	cmp    %eax,%ecx
  a4b56e:	75 f0                	jne    a4b560 <LZ4_decompress_safe_continue+0x690>
  a4b570:	e9 62 fc ff ff       	jmp    a4b1d7 <LZ4_decompress_safe_continue+0x307>
  a4b575:	48                   	dec    %eax
  a4b576:	89 fd                	mov    %edi,%ebp
  a4b578:	e9 cc f9 ff ff       	jmp    a4af49 <LZ4_decompress_safe_continue+0x79>
  a4b57d:	4d                   	dec    %ebp
  a4b57e:	89 fa                	mov    %edi,%edx
  a4b580:	48                   	dec    %eax
  a4b581:	89 c2                	mov    %eax,%edx
  a4b583:	4c                   	dec    %esp
  a4b584:	8b 7c 24 38          	mov    0x38(%esp),%edi
  a4b588:	48                   	dec    %eax
  a4b589:	89 fd                	mov    %edi,%ebp
  a4b58b:	4c                   	dec    %esp
  a4b58c:	39 f7                	cmp    %esi,%edi
  a4b58e:	0f 87 68 fb ff ff    	ja     a4b0fc <LZ4_decompress_safe_continue+0x22c>
  a4b594:	49                   	dec    %ecx
  a4b595:	39 da                	cmp    %ebx,%edx
  a4b597:	0f 85 5f fb ff ff    	jne    a4b0fc <LZ4_decompress_safe_continue+0x22c>
  a4b59d:	4c                   	dec    %esp
  a4b59e:	89 ef                	mov    %ebp,%edi
  a4b5a0:	4c                   	dec    %esp
  a4b5a1:	29 fd                	sub    %edi,%ebp
  a4b5a3:	e8 18 27 00 00       	call   a4dcc0 <memcpy>
  a4b5a8:	89 e8                	mov    %ebp,%eax
  a4b5aa:	85 ed                	test   %ebp,%ebp
  a4b5ac:	0f 8e 4f fb ff ff    	jle    a4b101 <LZ4_decompress_safe_continue+0x231>
  a4b5b2:	48                   	dec    %eax
  a4b5b3:	8b 4c 24 08          	mov    0x8(%esp),%ecx
  a4b5b7:	48                   	dec    %eax
  a4b5b8:	63 ed                	arpl   %bp,%bp
  a4b5ba:	48                   	dec    %eax
  a4b5bb:	01 69 18             	add    %ebp,0x18(%ecx)
  a4b5be:	48                   	dec    %eax
  a4b5bf:	01 69 10             	add    %ebp,0x10(%ecx)
  a4b5c2:	e9 3a fb ff ff       	jmp    a4b101 <LZ4_decompress_safe_continue+0x231>
  a4b5c7:	4c                   	dec    %esp
  a4b5c8:	8b 44 24 30          	mov    0x30(%esp),%eax
  a4b5cc:	4c                   	dec    %esp
  a4b5cd:	89 da                	mov    %ebx,%edx
  a4b5cf:	48                   	dec    %eax
  a4b5d0:	89 f8                	mov    %edi,%eax
  a4b5d2:	66 0f 1f 44 00 00    	nopw   0x0(%eax,%eax,1)
  a4b5d8:	48                   	dec    %eax
  a4b5d9:	8b 32                	mov    (%edx),%esi
  a4b5db:	48                   	dec    %eax
  a4b5dc:	83 c0 08             	add    $0x8,%eax
  a4b5df:	48                   	dec    %eax
  a4b5e0:	83 c2 08             	add    $0x8,%edx
  a4b5e3:	48                   	dec    %eax
  a4b5e4:	89 70 f8             	mov    %esi,-0x8(%eax)
  a4b5e7:	49                   	dec    %ecx
  a4b5e8:	39 c0                	cmp    %eax,%eax
  a4b5ea:	77 ec                	ja     a4b5d8 <LZ4_decompress_safe_continue+0x708>
  a4b5ec:	48                   	dec    %eax
  a4b5ed:	8b 54 24 30          	mov    0x30(%esp),%edx
  a4b5f1:	48                   	dec    %eax
  a4b5f2:	89 d0                	mov    %edx,%eax
  a4b5f4:	48                   	dec    %eax
  a4b5f5:	29 f8                	sub    %edi,%eax
  a4b5f7:	48                   	dec    %eax
  a4b5f8:	89 d7                	mov    %edx,%edi
  a4b5fa:	49                   	dec    %ecx
  a4b5fb:	01 c3                	add    %eax,%ebx
  a4b5fd:	e9 06 fe ff ff       	jmp    a4b408 <LZ4_decompress_safe_continue+0x538>
  a4b602:	83 f8 01             	cmp    $0x1,%eax
  a4b605:	0f 85 f1 fa ff ff    	jne    a4b0fc <LZ4_decompress_safe_continue+0x22c>
  a4b60b:	31 c0                	xor    %eax,%eax
  a4b60d:	80 3e 00             	cmpb   $0x0,(%esi)
  a4b610:	0f 84 eb fa ff ff    	je     a4b101 <LZ4_decompress_safe_continue+0x231>
  a4b616:	e9 e1 fa ff ff       	jmp    a4b0fc <LZ4_decompress_safe_continue+0x22c>
  a4b61b:	49                   	dec    %ecx
  a4b61c:	89 fd                	mov    %edi,%ebp
  a4b61e:	e9 b4 fb ff ff       	jmp    a4b1d7 <LZ4_decompress_safe_continue+0x307>
  a4b623:	4c                   	dec    %esp
  a4b624:	8b 44 24 30          	mov    0x30(%esp),%eax
  a4b628:	48                   	dec    %eax
  a4b629:	89 f2                	mov    %esi,%edx
  a4b62b:	48                   	dec    %eax
  a4b62c:	89 f8                	mov    %edi,%eax
  a4b62e:	48                   	dec    %eax
  a4b62f:	8b 0a                	mov    (%edx),%ecx
  a4b631:	48                   	dec    %eax
  a4b632:	83 c0 08             	add    $0x8,%eax
  a4b635:	48                   	dec    %eax
  a4b636:	83 c2 08             	add    $0x8,%edx
  a4b639:	48                   	dec    %eax
  a4b63a:	89 48 f8             	mov    %ecx,-0x8(%eax)
  a4b63d:	49                   	dec    %ecx
  a4b63e:	39 c0                	cmp    %eax,%eax
  a4b640:	77 ec                	ja     a4b62e <LZ4_decompress_safe_continue+0x75e>
  a4b642:	48                   	dec    %eax
  a4b643:	8b 4c 24 30          	mov    0x30(%esp),%ecx
  a4b647:	48                   	dec    %eax
  a4b648:	89 c8                	mov    %ecx,%eax
  a4b64a:	48                   	dec    %eax
  a4b64b:	29 f8                	sub    %edi,%eax
  a4b64d:	48                   	dec    %eax
  a4b64e:	89 cf                	mov    %ecx,%edi
  a4b650:	48                   	dec    %eax
  a4b651:	01 c6                	add    %eax,%esi
  a4b653:	e9 f1 fe ff ff       	jmp    a4b549 <LZ4_decompress_safe_continue+0x679>
  a4b658:	0f 1f 84 00 00 00 00 	nopl   0x0(%eax,%eax,1)
  a4b65f:	00 

0000000000a4b660 <LZ4_decompress_fast_continue>:
  a4b660:	f3 0f 1e fa          	endbr64 
  a4b664:	41                   	inc    %ecx
  a4b665:	57                   	push   %edi
  a4b666:	41                   	inc    %ecx
  a4b667:	56                   	push   %esi
  a4b668:	41                   	inc    %ecx
  a4b669:	55                   	push   %ebp
  a4b66a:	41                   	inc    %ecx
  a4b66b:	54                   	push   %esp
  a4b66c:	49                   	dec    %ecx
  a4b66d:	89 d4                	mov    %edx,%esp
  a4b66f:	55                   	push   %ebp
  a4b670:	53                   	push   %ebx
  a4b671:	48                   	dec    %eax
  a4b672:	63 d9                	arpl   %bx,%cx
  a4b674:	48                   	dec    %eax
  a4b675:	89 d8                	mov    %ebx,%eax
  a4b677:	48                   	dec    %eax
  a4b678:	83 ec 48             	sub    $0x48,%esp
  a4b67b:	48                   	dec    %eax
  a4b67c:	8b 57 18             	mov    0x18(%edi),%edx
  a4b67f:	4c                   	dec    %esp
  a4b680:	8b 6f 10             	mov    0x10(%edi),%ebp
  a4b683:	48                   	dec    %eax
  a4b684:	89 5c 24 30          	mov    %ebx,0x30(%esp)
  a4b688:	4c                   	dec    %esp
  a4b689:	01 e3                	add    %esp,%ebx
  a4b68b:	48                   	dec    %eax
  a4b68c:	89 d1                	mov    %edx,%ecx
  a4b68e:	48                   	dec    %eax
  a4b68f:	89 7c 24 18          	mov    %edi,0x18(%esp)
  a4b693:	48                   	dec    %eax
  a4b694:	89 74 24 20          	mov    %esi,0x20(%esp)
  a4b698:	48                   	dec    %eax
  a4b699:	f7 d9                	neg    %ecx
  a4b69b:	4d                   	dec    %ebp
  a4b69c:	39 e5                	cmp    %esp,%ebp
  a4b69e:	0f 84 fa 02 00 00    	je     a4b99e <LZ4_decompress_fast_continue+0x33e>
  a4b6a4:	48                   	dec    %eax
  a4b6a5:	8b 74 24 18          	mov    0x18(%esp),%esi
  a4b6a9:	4c                   	dec    %esp
  a4b6aa:	01 e9                	add    %ebp,%ecx
  a4b6ac:	48                   	dec    %eax
  a4b6ad:	89 56 08             	mov    %edx,0x8(%esi)
  a4b6b0:	48                   	dec    %eax
  a4b6b1:	89 0e                	mov    %ecx,(%esi)
  a4b6b3:	85 c0                	test   %eax,%eax
  a4b6b5:	0f 84 2f 02 00 00    	je     a4b8ea <LZ4_decompress_fast_continue+0x28a>
  a4b6bb:	48                   	dec    %eax
  a4b6bc:	8d 43 f9             	lea    -0x7(%ebx),%eax
  a4b6bf:	4c                   	dec    %esp
  a4b6c0:	8b 74 24 20          	mov    0x20(%esp),%esi
  a4b6c4:	48                   	dec    %eax
  a4b6c5:	8d 6b f8             	lea    -0x8(%ebx),%ebp
  a4b6c8:	4d                   	dec    %ebp
  a4b6c9:	89 e7                	mov    %esp,%edi
  a4b6cb:	48                   	dec    %eax
  a4b6cc:	89 44 24 28          	mov    %eax,0x28(%esp)
  a4b6d0:	41                   	inc    %ecx
  a4b6d1:	0f b6 06             	movzbl (%esi),%eax
  a4b6d4:	49                   	dec    %ecx
  a4b6d5:	8d 4e 01             	lea    0x1(%esi),%ecx
  a4b6d8:	89 c2                	mov    %eax,%edx
  a4b6da:	c1 e8 04             	shr    $0x4,%eax
  a4b6dd:	41                   	inc    %ecx
  a4b6de:	89 c6                	mov    %eax,%esi
  a4b6e0:	83 f8 0f             	cmp    $0xf,%eax
  a4b6e3:	0f 84 47 01 00 00    	je     a4b830 <LZ4_decompress_fast_continue+0x1d0>
  a4b6e9:	4b                   	dec    %ebx
  a4b6ea:	8d 3c 37             	lea    (%edi,%esi,1),%edi
  a4b6ed:	48                   	dec    %eax
  a4b6ee:	39 ef                	cmp    %ebp,%edi
  a4b6f0:	0f 87 67 01 00 00    	ja     a4b85d <LZ4_decompress_fast_continue+0x1fd>
  a4b6f6:	48                   	dec    %eax
  a4b6f7:	89 c8                	mov    %ecx,%eax
  a4b6f9:	0f 1f 80 00 00 00 00 	nopl   0x0(%eax)
  a4b700:	48                   	dec    %eax
  a4b701:	8b 30                	mov    (%eax),%esi
  a4b703:	49                   	dec    %ecx
  a4b704:	83 c7 08             	add    $0x8,%edi
  a4b707:	48                   	dec    %eax
  a4b708:	83 c0 08             	add    $0x8,%eax
  a4b70b:	49                   	dec    %ecx
  a4b70c:	89 77 f8             	mov    %esi,-0x8(%edi)
  a4b70f:	4c                   	dec    %esp
  a4b710:	39 ff                	cmp    %edi,%edi
  a4b712:	77 ec                	ja     a4b700 <LZ4_decompress_fast_continue+0xa0>
  a4b714:	49                   	dec    %ecx
  a4b715:	01 ce                	add    %ecx,%esi
  a4b717:	89 d0                	mov    %edx,%eax
  a4b719:	49                   	dec    %ecx
  a4b71a:	89 f8                	mov    %edi,%eax
  a4b71c:	83 e2 0f             	and    $0xf,%edx
  a4b71f:	41                   	inc    %ecx
  a4b720:	0f b7 36             	movzwl (%esi),%esi
  a4b723:	83 e0 0f             	and    $0xf,%eax
  a4b726:	49                   	dec    %ecx
  a4b727:	83 c6 02             	add    $0x2,%esi
  a4b72a:	89 37                	mov    %esi,(%edi)
  a4b72c:	49                   	dec    %ecx
  a4b72d:	29 f0                	sub    %esi,%eax
  a4b72f:	3c 0f                	cmp    $0xf,%al
  a4b731:	0f 84 89 01 00 00    	je     a4b8c0 <LZ4_decompress_fast_continue+0x260>
  a4b737:	48                   	dec    %eax
  a4b738:	83 c2 04             	add    $0x4,%edx
  a4b73b:	4c                   	dec    %esp
  a4b73c:	8d 3c 17             	lea    (%edi,%edx,1),%edi
  a4b73f:	4d                   	dec    %ebp
  a4b740:	39 c4                	cmp    %eax,%esp
  a4b742:	76 7c                	jbe    a4b7c0 <LZ4_decompress_fast_continue+0x160>
  a4b744:	48                   	dec    %eax
  a4b745:	8d 43 fb             	lea    -0x5(%ebx),%eax
  a4b748:	49                   	dec    %ecx
  a4b749:	39 c7                	cmp    %eax,%edi
  a4b74b:	0f 87 a7 01 00 00    	ja     a4b8f8 <LZ4_decompress_fast_continue+0x298>
  a4b751:	4c                   	dec    %esp
  a4b752:	89 e1                	mov    %esp,%ecx
  a4b754:	4c                   	dec    %esp
  a4b755:	89 ee                	mov    %ebp,%esi
  a4b757:	4c                   	dec    %esp
  a4b758:	29 c1                	sub    %eax,%ecx
  a4b75a:	48                   	dec    %eax
  a4b75b:	29 ce                	sub    %ecx,%esi
  a4b75d:	48                   	dec    %eax
  a4b75e:	39 ca                	cmp    %ecx,%edx
  a4b760:	0f 86 7a 01 00 00    	jbe    a4b8e0 <LZ4_decompress_fast_continue+0x280>
  a4b766:	48                   	dec    %eax
  a4b767:	29 ca                	sub    %ecx,%edx
  a4b769:	48                   	dec    %eax
  a4b76a:	89 4c 24 08          	mov    %ecx,0x8(%esp)
  a4b76e:	48                   	dec    %eax
  a4b76f:	89 54 24 10          	mov    %edx,0x10(%esp)
  a4b773:	48                   	dec    %eax
  a4b774:	89 ca                	mov    %ecx,%edx
  a4b776:	e8 45 25 00 00       	call   a4dcc0 <memcpy>
  a4b77b:	48                   	dec    %eax
  a4b77c:	8b 4c 24 08          	mov    0x8(%esp),%ecx
  a4b780:	4c                   	dec    %esp
  a4b781:	8b 44 24 10          	mov    0x10(%esp),%eax
  a4b785:	48                   	dec    %eax
  a4b786:	89 c7                	mov    %eax,%edi
  a4b788:	48                   	dec    %eax
  a4b789:	01 cf                	add    %ecx,%edi
  a4b78b:	48                   	dec    %eax
  a4b78c:	89 f8                	mov    %edi,%eax
  a4b78e:	4c                   	dec    %esp
  a4b78f:	29 e0                	sub    %esp,%eax
  a4b791:	49                   	dec    %ecx
  a4b792:	39 c0                	cmp    %eax,%eax
  a4b794:	0f 86 86 00 00 00    	jbe    a4b820 <LZ4_decompress_fast_continue+0x1c0>
  a4b79a:	49                   	dec    %ecx
  a4b79b:	39 ff                	cmp    %edi,%edi
  a4b79d:	0f 86 97 04 00 00    	jbe    a4bc3a <LZ4_decompress_fast_continue+0x5da>
  a4b7a3:	31 c0                	xor    %eax,%eax
  a4b7a5:	41                   	inc    %ecx
  a4b7a6:	0f b6 14 04          	movzbl (%esp,%eax,1),%edx
  a4b7aa:	88 14 07             	mov    %dl,(%edi,%eax,1)
  a4b7ad:	48                   	dec    %eax
  a4b7ae:	83 c0 01             	add    $0x1,%eax
  a4b7b1:	49                   	dec    %ecx
  a4b7b2:	39 c0                	cmp    %eax,%eax
  a4b7b4:	75 ef                	jne    a4b7a5 <LZ4_decompress_fast_continue+0x145>
  a4b7b6:	e9 15 ff ff ff       	jmp    a4b6d0 <LZ4_decompress_fast_continue+0x70>
  a4b7bb:	0f 1f 44 00 00       	nopl   0x0(%eax,%eax,1)
  a4b7c0:	48                   	dec    %eax
  a4b7c1:	83 fe 07             	cmp    $0x7,%esi
  a4b7c4:	0f 86 42 01 00 00    	jbe    a4b90c <LZ4_decompress_fast_continue+0x2ac>
  a4b7ca:	49                   	dec    %ecx
  a4b7cb:	8b 00                	mov    (%eax),%eax
  a4b7cd:	49                   	dec    %ecx
  a4b7ce:	83 c0 08             	add    $0x8,%eax
  a4b7d1:	48                   	dec    %eax
  a4b7d2:	89 07                	mov    %eax,(%edi)
  a4b7d4:	48                   	dec    %eax
  a4b7d5:	8d 43 f4             	lea    -0xc(%ebx),%eax
  a4b7d8:	49                   	dec    %ecx
  a4b7d9:	39 c7                	cmp    %eax,%edi
  a4b7db:	0f 87 77 01 00 00    	ja     a4b958 <LZ4_decompress_fast_continue+0x2f8>
  a4b7e1:	49                   	dec    %ecx
  a4b7e2:	8b 00                	mov    (%eax),%eax
  a4b7e4:	48                   	dec    %eax
  a4b7e5:	89 47 08             	mov    %eax,0x8(%edi)
  a4b7e8:	48                   	dec    %eax
  a4b7e9:	83 fa 10             	cmp    $0x10,%edx
  a4b7ec:	0f 86 de fe ff ff    	jbe    a4b6d0 <LZ4_decompress_fast_continue+0x70>
  a4b7f2:	49                   	dec    %ecx
  a4b7f3:	8d 40 08             	lea    0x8(%eax),%eax
  a4b7f6:	48                   	dec    %eax
  a4b7f7:	83 c7 10             	add    $0x10,%edi
  a4b7fa:	66 0f 1f 44 00 00    	nopw   0x0(%eax,%eax,1)
  a4b800:	48                   	dec    %eax
  a4b801:	8b 10                	mov    (%eax),%edx
  a4b803:	48                   	dec    %eax
  a4b804:	83 c7 08             	add    $0x8,%edi
  a4b807:	48                   	dec    %eax
  a4b808:	83 c0 08             	add    $0x8,%eax
  a4b80b:	48                   	dec    %eax
  a4b80c:	89 57 f8             	mov    %edx,-0x8(%edi)
  a4b80f:	4c                   	dec    %esp
  a4b810:	39 ff                	cmp    %edi,%edi
  a4b812:	72 ec                	jb     a4b800 <LZ4_decompress_fast_continue+0x1a0>
  a4b814:	e9 b7 fe ff ff       	jmp    a4b6d0 <LZ4_decompress_fast_continue+0x70>
  a4b819:	0f 1f 80 00 00 00 00 	nopl   0x0(%eax)
  a4b820:	4c                   	dec    %esp
  a4b821:	89 c2                	mov    %eax,%edx
  a4b823:	4c                   	dec    %esp
  a4b824:	89 e6                	mov    %esp,%esi
  a4b826:	e8 95 24 00 00       	call   a4dcc0 <memcpy>
  a4b82b:	e9 a0 fe ff ff       	jmp    a4b6d0 <LZ4_decompress_fast_continue+0x70>
  a4b830:	41                   	inc    %ecx
  a4b831:	be 0f 00 00 00       	mov    $0xf,%esi
  a4b836:	66 2e 0f 1f 84 00 00 	nopw   %cs:0x0(%eax,%eax,1)
  a4b83d:	00 00 00 
  a4b840:	0f b6 31             	movzbl (%ecx),%esi
  a4b843:	48                   	dec    %eax
  a4b844:	83 c1 01             	add    $0x1,%ecx
  a4b847:	49                   	dec    %ecx
  a4b848:	01 f6                	add    %esi,%esi
  a4b84a:	40                   	inc    %eax
  a4b84b:	80 fe ff             	cmp    $0xff,%dh
  a4b84e:	74 f0                	je     a4b840 <LZ4_decompress_fast_continue+0x1e0>
  a4b850:	4b                   	dec    %ebx
  a4b851:	8d 3c 37             	lea    (%edi,%esi,1),%edi
  a4b854:	48                   	dec    %eax
  a4b855:	39 ef                	cmp    %ebp,%edi
  a4b857:	0f 86 99 fe ff ff    	jbe    a4b6f6 <LZ4_decompress_fast_continue+0x96>
  a4b85d:	4c                   	dec    %esp
  a4b85e:	89 f2                	mov    %esi,%edx
  a4b860:	48                   	dec    %eax
  a4b861:	39 df                	cmp    %ebx,%edi
  a4b863:	0f 85 8f 00 00 00    	jne    a4b8f8 <LZ4_decompress_fast_continue+0x298>
  a4b869:	48                   	dec    %eax
  a4b86a:	89 ce                	mov    %ecx,%esi
  a4b86c:	4c                   	dec    %esp
  a4b86d:	89 ff                	mov    %edi,%edi
  a4b86f:	48                   	dec    %eax
  a4b870:	89 4c 24 08          	mov    %ecx,0x8(%esp)
  a4b874:	4c                   	dec    %esp
  a4b875:	89 74 24 10          	mov    %esi,0x10(%esp)
  a4b879:	e8 42 24 00 00       	call   a4dcc0 <memcpy>
  a4b87e:	48                   	dec    %eax
  a4b87f:	8b 4c 24 08          	mov    0x8(%esp),%ecx
  a4b883:	48                   	dec    %eax
  a4b884:	8b 54 24 10          	mov    0x10(%esp),%edx
  a4b888:	48                   	dec    %eax
  a4b889:	01 ca                	add    %ecx,%edx
  a4b88b:	48                   	dec    %eax
  a4b88c:	2b 54 24 20          	sub    0x20(%esp),%edx
  a4b890:	89 d0                	mov    %edx,%eax
  a4b892:	85 d2                	test   %edx,%edx
  a4b894:	7e 67                	jle    a4b8fd <LZ4_decompress_fast_continue+0x29d>
  a4b896:	48                   	dec    %eax
  a4b897:	8b 4c 24 18          	mov    0x18(%esp),%ecx
  a4b89b:	48                   	dec    %eax
  a4b89c:	8b 74 24 30          	mov    0x30(%esp),%esi
  a4b8a0:	48                   	dec    %eax
  a4b8a1:	89 71 18             	mov    %esi,0x18(%ecx)
  a4b8a4:	48                   	dec    %eax
  a4b8a5:	89 59 10             	mov    %ebx,0x10(%ecx)
  a4b8a8:	48                   	dec    %eax
  a4b8a9:	83 c4 48             	add    $0x48,%esp
  a4b8ac:	5b                   	pop    %ebx
  a4b8ad:	5d                   	pop    %ebp
  a4b8ae:	41                   	inc    %ecx
  a4b8af:	5c                   	pop    %esp
  a4b8b0:	41                   	inc    %ecx
  a4b8b1:	5d                   	pop    %ebp
  a4b8b2:	41                   	inc    %ecx
  a4b8b3:	5e                   	pop    %esi
  a4b8b4:	41                   	inc    %ecx
  a4b8b5:	5f                   	pop    %edi
  a4b8b6:	c3                   	ret    
  a4b8b7:	66 0f 1f 84 00 00 00 	nopw   0x0(%eax,%eax,1)
  a4b8be:	00 00 
  a4b8c0:	ba 0f 00 00 00       	mov    $0xf,%edx
  a4b8c5:	0f 1f 00             	nopl   (%eax)
  a4b8c8:	41                   	inc    %ecx
  a4b8c9:	0f b6 0e             	movzbl (%esi),%ecx
  a4b8cc:	49                   	dec    %ecx
  a4b8cd:	83 c6 01             	add    $0x1,%esi
  a4b8d0:	48                   	dec    %eax
  a4b8d1:	01 ca                	add    %ecx,%edx
  a4b8d3:	80 f9 ff             	cmp    $0xff,%cl
  a4b8d6:	74 f0                	je     a4b8c8 <LZ4_decompress_fast_continue+0x268>
  a4b8d8:	e9 5a fe ff ff       	jmp    a4b737 <LZ4_decompress_fast_continue+0xd7>
  a4b8dd:	0f 1f 00             	nopl   (%eax)
  a4b8e0:	e8 7b 23 00 00       	call   a4dc60 <memmove>
  a4b8e5:	e9 e6 fd ff ff       	jmp    a4b6d0 <LZ4_decompress_fast_continue+0x70>
  a4b8ea:	48                   	dec    %eax
  a4b8eb:	8b 44 24 20          	mov    0x20(%esp),%eax
  a4b8ef:	80 38 00             	cmpb   $0x0,(%eax)
  a4b8f2:	0f 84 20 04 00 00    	je     a4bd18 <LZ4_decompress_fast_continue+0x6b8>
  a4b8f8:	b8 ff ff ff ff       	mov    $0xffffffff,%eax
  a4b8fd:	48                   	dec    %eax
  a4b8fe:	83 c4 48             	add    $0x48,%esp
  a4b901:	5b                   	pop    %ebx
  a4b902:	5d                   	pop    %ebp
  a4b903:	41                   	inc    %ecx
  a4b904:	5c                   	pop    %esp
  a4b905:	41                   	inc    %ecx
  a4b906:	5d                   	pop    %ebp
  a4b907:	41                   	inc    %ecx
  a4b908:	5e                   	pop    %esi
  a4b909:	41                   	inc    %ecx
  a4b90a:	5f                   	pop    %edi
  a4b90b:	c3                   	ret    
  a4b90c:	41                   	inc    %ecx
  a4b90d:	0f b6 00             	movzbl (%eax),%eax
  a4b910:	88 07                	mov    %al,(%edi)
  a4b912:	41                   	inc    %ecx
  a4b913:	0f b6 40 01          	movzbl 0x1(%eax),%eax
  a4b917:	88 47 01             	mov    %al,0x1(%edi)
  a4b91a:	41                   	inc    %ecx
  a4b91b:	0f b6 40 02          	movzbl 0x2(%eax),%eax
  a4b91f:	88 47 02             	mov    %al,0x2(%edi)
  a4b922:	41                   	inc    %ecx
  a4b923:	0f b6 40 03          	movzbl 0x3(%eax),%eax
  a4b927:	88 47 03             	mov    %al,0x3(%edi)
  a4b92a:	48                   	dec    %eax
  a4b92b:	8d 05 6f 86 00 00    	lea    0x866f,%eax
  a4b931:	8b 04 b0             	mov    (%eax,%esi,4),%eax
  a4b934:	49                   	dec    %ecx
  a4b935:	01 c0                	add    %eax,%eax
  a4b937:	41                   	inc    %ecx
  a4b938:	8b 00                	mov    (%eax),%eax
  a4b93a:	89 47 04             	mov    %eax,0x4(%edi)
  a4b93d:	48                   	dec    %eax
  a4b93e:	8d 05 7c 86 00 00    	lea    0x867c,%eax
  a4b944:	48                   	dec    %eax
  a4b945:	63 04 b0             	arpl   %ax,(%eax,%esi,4)
  a4b948:	49                   	dec    %ecx
  a4b949:	29 c0                	sub    %eax,%eax
  a4b94b:	48                   	dec    %eax
  a4b94c:	8d 43 f4             	lea    -0xc(%ebx),%eax
  a4b94f:	49                   	dec    %ecx
  a4b950:	39 c7                	cmp    %eax,%edi
  a4b952:	0f 86 89 fe ff ff    	jbe    a4b7e1 <LZ4_decompress_fast_continue+0x181>
  a4b958:	48                   	dec    %eax
  a4b959:	8d 43 fb             	lea    -0x5(%ebx),%eax
  a4b95c:	49                   	dec    %ecx
  a4b95d:	39 c7                	cmp    %eax,%edi
  a4b95f:	77 97                	ja     a4b8f8 <LZ4_decompress_fast_continue+0x298>
  a4b961:	48                   	dec    %eax
  a4b962:	83 c7 08             	add    $0x8,%edi
  a4b965:	48                   	dec    %eax
  a4b966:	3b 7c 24 28          	cmp    0x28(%esp),%edi
  a4b96a:	0f 82 d2 02 00 00    	jb     a4bc42 <LZ4_decompress_fast_continue+0x5e2>
  a4b970:	4c                   	dec    %esp
  a4b971:	39 ff                	cmp    %edi,%edi
  a4b973:	0f 83 57 fd ff ff    	jae    a4b6d0 <LZ4_decompress_fast_continue+0x70>
  a4b979:	4c                   	dec    %esp
  a4b97a:	89 f9                	mov    %edi,%ecx
  a4b97c:	31 c0                	xor    %eax,%eax
  a4b97e:	48                   	dec    %eax
  a4b97f:	29 f9                	sub    %edi,%ecx
  a4b981:	0f 1f 80 00 00 00 00 	nopl   0x0(%eax)
  a4b988:	41                   	inc    %ecx
  a4b989:	0f b6 14 00          	movzbl (%eax,%eax,1),%edx
  a4b98d:	88 14 07             	mov    %dl,(%edi,%eax,1)
  a4b990:	48                   	dec    %eax
  a4b991:	83 c0 01             	add    $0x1,%eax
  a4b994:	48                   	dec    %eax
  a4b995:	39 c1                	cmp    %eax,%ecx
  a4b997:	75 ef                	jne    a4b988 <LZ4_decompress_fast_continue+0x328>
  a4b999:	e9 32 fd ff ff       	jmp    a4b6d0 <LZ4_decompress_fast_continue+0x70>
  a4b99e:	48                   	dec    %eax
  a4b99f:	89 fe                	mov    %edi,%esi
  a4b9a1:	4c                   	dec    %esp
  a4b9a2:	8b 74 24 20          	mov    0x20(%esp),%esi
  a4b9a6:	48                   	dec    %eax
  a4b9a7:	8b 7f 08             	mov    0x8(%edi),%edi
  a4b9aa:	4d                   	dec    %ebp
  a4b9ab:	8d 3c 0c             	lea    (%esp,%ecx,1),%edi
  a4b9ae:	48                   	dec    %eax
  a4b9af:	8b 36                	mov    (%esi),%esi
  a4b9b1:	48                   	dec    %eax
  a4b9b2:	89 7c 24 10          	mov    %edi,0x10(%esp)
  a4b9b6:	45                   	inc    %ebp
  a4b9b7:	0f b6 16             	movzbl (%esi),%edx
  a4b9ba:	48                   	dec    %eax
  a4b9bb:	89 74 24 28          	mov    %esi,0x28(%esp)
  a4b9bf:	85 c0                	test   %eax,%eax
  a4b9c1:	0f 84 5b 03 00 00    	je     a4bd22 <LZ4_decompress_fast_continue+0x6c2>
  a4b9c7:	48                   	dec    %eax
  a4b9c8:	8d 43 f9             	lea    -0x7(%ebx),%eax
  a4b9cb:	4d                   	dec    %ebp
  a4b9cc:	89 f5                	mov    %esi,%ebp
  a4b9ce:	48                   	dec    %eax
  a4b9cf:	8d 6b f8             	lea    -0x8(%ebx),%ebp
  a4b9d2:	4d                   	dec    %ebp
  a4b9d3:	89 fe                	mov    %edi,%esi
  a4b9d5:	48                   	dec    %eax
  a4b9d6:	89 44 24 38          	mov    %eax,0x38(%esp)
  a4b9da:	66 0f 1f 44 00 00    	nopw   0x0(%eax,%eax,1)
  a4b9e0:	41                   	inc    %ecx
  a4b9e1:	0f b6 c2             	movzbl %dl,%eax
  a4b9e4:	49                   	dec    %ecx
  a4b9e5:	8d 4d 01             	lea    0x1(%ebp),%ecx
  a4b9e8:	c1 e8 04             	shr    $0x4,%eax
  a4b9eb:	89 c6                	mov    %eax,%esi
  a4b9ed:	83 f8 0f             	cmp    $0xf,%eax
  a4b9f0:	0f 84 5d 01 00 00    	je     a4bb53 <LZ4_decompress_fast_continue+0x4f3>
  a4b9f6:	49                   	dec    %ecx
  a4b9f7:	8d 3c 34             	lea    (%esp,%esi,1),%edi
  a4b9fa:	48                   	dec    %eax
  a4b9fb:	39 ef                	cmp    %ebp,%edi
  a4b9fd:	0f 87 7f 02 00 00    	ja     a4bc82 <LZ4_decompress_fast_continue+0x622>
  a4ba03:	48                   	dec    %eax
  a4ba04:	89 c8                	mov    %ecx,%eax
  a4ba06:	66 2e 0f 1f 84 00 00 	nopw   %cs:0x0(%eax,%eax,1)
  a4ba0d:	00 00 00 
  a4ba10:	48                   	dec    %eax
  a4ba11:	8b 10                	mov    (%eax),%edx
  a4ba13:	49                   	dec    %ecx
  a4ba14:	83 c4 08             	add    $0x8,%esp
  a4ba17:	48                   	dec    %eax
  a4ba18:	83 c0 08             	add    $0x8,%eax
  a4ba1b:	49                   	dec    %ecx
  a4ba1c:	89 54 24 f8          	mov    %edx,-0x8(%esp)
  a4ba20:	4c                   	dec    %esp
  a4ba21:	39 e7                	cmp    %esp,%edi
  a4ba23:	77 eb                	ja     a4ba10 <LZ4_decompress_fast_continue+0x3b0>
  a4ba25:	48                   	dec    %eax
  a4ba26:	01 f1                	add    %esi,%ecx
  a4ba28:	44                   	inc    %esp
  a4ba29:	89 d0                	mov    %edx,%eax
  a4ba2b:	48                   	dec    %eax
  a4ba2c:	89 fe                	mov    %edi,%esi
  a4ba2e:	4c                   	dec    %esp
  a4ba2f:	89 d2                	mov    %edx,%edx
  a4ba31:	44                   	inc    %esp
  a4ba32:	0f b7 01             	movzwl (%ecx),%eax
  a4ba35:	83 e0 0f             	and    $0xf,%eax
  a4ba38:	4c                   	dec    %esp
  a4ba39:	8d 69 02             	lea    0x2(%ecx),%ebp
  a4ba3c:	83 e2 0f             	and    $0xf,%edx
  a4ba3f:	44                   	inc    %esp
  a4ba40:	89 07                	mov    %eax,(%edi)
  a4ba42:	4c                   	dec    %esp
  a4ba43:	29 c6                	sub    %eax,%esi
  a4ba45:	3c 0f                	cmp    $0xf,%al
  a4ba47:	0f 84 27 01 00 00    	je     a4bb74 <LZ4_decompress_fast_continue+0x514>
  a4ba4d:	48                   	dec    %eax
  a4ba4e:	83 c2 04             	add    $0x4,%edx
  a4ba51:	4c                   	dec    %esp
  a4ba52:	8d 24 17             	lea    (%edi,%edx,1),%esp
  a4ba55:	49                   	dec    %ecx
  a4ba56:	39 f6                	cmp    %esi,%esi
  a4ba58:	0f 86 82 00 00 00    	jbe    a4bae0 <LZ4_decompress_fast_continue+0x480>
  a4ba5e:	48                   	dec    %eax
  a4ba5f:	8d 43 fb             	lea    -0x5(%ebx),%eax
  a4ba62:	49                   	dec    %ecx
  a4ba63:	39 c4                	cmp    %eax,%esp
  a4ba65:	0f 87 8d fe ff ff    	ja     a4b8f8 <LZ4_decompress_fast_continue+0x298>
  a4ba6b:	4d                   	dec    %ebp
  a4ba6c:	89 f2                	mov    %esi,%edx
  a4ba6e:	49                   	dec    %ecx
  a4ba6f:	29 f2                	sub    %esi,%edx
  a4ba71:	48                   	dec    %eax
  a4ba72:	8b 74 24 10          	mov    0x10(%esp),%esi
  a4ba76:	4c                   	dec    %esp
  a4ba77:	29 d6                	sub    %edx,%esi
  a4ba79:	48                   	dec    %eax
  a4ba7a:	03 74 24 28          	add    0x28(%esp),%esi
  a4ba7e:	4c                   	dec    %esp
  a4ba7f:	39 d2                	cmp    %edx,%edx
  a4ba81:	0f 86 0f 01 00 00    	jbe    a4bb96 <LZ4_decompress_fast_continue+0x536>
  a4ba87:	4c                   	dec    %esp
  a4ba88:	29 d2                	sub    %edx,%edx
  a4ba8a:	4c                   	dec    %esp
  a4ba8b:	89 54 24 08          	mov    %edx,0x8(%esp)
  a4ba8f:	49                   	dec    %ecx
  a4ba90:	89 d7                	mov    %edx,%edi
  a4ba92:	4c                   	dec    %esp
  a4ba93:	89 d2                	mov    %edx,%edx
  a4ba95:	e8 26 22 00 00       	call   a4dcc0 <memcpy>
  a4ba9a:	4c                   	dec    %esp
  a4ba9b:	8b 54 24 08          	mov    0x8(%esp),%edx
  a4ba9f:	48                   	dec    %eax
  a4baa0:	89 c7                	mov    %eax,%edi
  a4baa2:	4c                   	dec    %esp
  a4baa3:	01 d7                	add    %edx,%edi
  a4baa5:	48                   	dec    %eax
  a4baa6:	89 f8                	mov    %edi,%eax
  a4baa8:	4c                   	dec    %esp
  a4baa9:	29 f0                	sub    %esi,%eax
  a4baab:	49                   	dec    %ecx
  a4baac:	39 c7                	cmp    %eax,%edi
  a4baae:	0f 86 8a 00 00 00    	jbe    a4bb3e <LZ4_decompress_fast_continue+0x4de>
  a4bab4:	49                   	dec    %ecx
  a4bab5:	39 fc                	cmp    %edi,%esp
  a4bab7:	0f 86 bd 01 00 00    	jbe    a4bc7a <LZ4_decompress_fast_continue+0x61a>
  a4babd:	31 c0                	xor    %eax,%eax
  a4babf:	41                   	inc    %ecx
  a4bac0:	0f b6 14 06          	movzbl (%esi,%eax,1),%edx
  a4bac4:	88 14 07             	mov    %dl,(%edi,%eax,1)
  a4bac7:	48                   	dec    %eax
  a4bac8:	83 c0 01             	add    $0x1,%eax
  a4bacb:	49                   	dec    %ecx
  a4bacc:	39 c7                	cmp    %eax,%edi
  a4bace:	75 ef                	jne    a4babf <LZ4_decompress_fast_continue+0x45f>
  a4bad0:	45                   	inc    %ebp
  a4bad1:	0f b6 55 00          	movzbl 0x0(%ebp),%edx
  a4bad5:	e9 06 ff ff ff       	jmp    a4b9e0 <LZ4_decompress_fast_continue+0x380>
  a4bada:	66 0f 1f 44 00 00    	nopw   0x0(%eax,%eax,1)
  a4bae0:	49                   	dec    %ecx
  a4bae1:	83 f8 07             	cmp    $0x7,%eax
  a4bae4:	0f 86 bb 00 00 00    	jbe    a4bba5 <LZ4_decompress_fast_continue+0x545>
  a4baea:	48                   	dec    %eax
  a4baeb:	8b 06                	mov    (%esi),%eax
  a4baed:	48                   	dec    %eax
  a4baee:	83 c6 08             	add    $0x8,%esi
  a4baf1:	48                   	dec    %eax
  a4baf2:	89 07                	mov    %eax,(%edi)
  a4baf4:	48                   	dec    %eax
  a4baf5:	8d 43 f4             	lea    -0xc(%ebx),%eax
  a4baf8:	49                   	dec    %ecx
  a4baf9:	39 c4                	cmp    %eax,%esp
  a4bafb:	0f 87 ec 00 00 00    	ja     a4bbed <LZ4_decompress_fast_continue+0x58d>
  a4bb01:	48                   	dec    %eax
  a4bb02:	8b 06                	mov    (%esi),%eax
  a4bb04:	48                   	dec    %eax
  a4bb05:	89 47 08             	mov    %eax,0x8(%edi)
  a4bb08:	48                   	dec    %eax
  a4bb09:	83 fa 10             	cmp    $0x10,%edx
  a4bb0c:	76 c2                	jbe    a4bad0 <LZ4_decompress_fast_continue+0x470>
  a4bb0e:	48                   	dec    %eax
  a4bb0f:	8d 46 08             	lea    0x8(%esi),%eax
  a4bb12:	48                   	dec    %eax
  a4bb13:	83 c7 10             	add    $0x10,%edi
  a4bb16:	66 2e 0f 1f 84 00 00 	nopw   %cs:0x0(%eax,%eax,1)
  a4bb1d:	00 00 00 
  a4bb20:	48                   	dec    %eax
  a4bb21:	8b 10                	mov    (%eax),%edx
  a4bb23:	48                   	dec    %eax
  a4bb24:	83 c7 08             	add    $0x8,%edi
  a4bb27:	48                   	dec    %eax
  a4bb28:	83 c0 08             	add    $0x8,%eax
  a4bb2b:	48                   	dec    %eax
  a4bb2c:	89 57 f8             	mov    %edx,-0x8(%edi)
  a4bb2f:	4c                   	dec    %esp
  a4bb30:	39 e7                	cmp    %esp,%edi
  a4bb32:	72 ec                	jb     a4bb20 <LZ4_decompress_fast_continue+0x4c0>
  a4bb34:	45                   	inc    %ebp
  a4bb35:	0f b6 55 00          	movzbl 0x0(%ebp),%edx
  a4bb39:	e9 a2 fe ff ff       	jmp    a4b9e0 <LZ4_decompress_fast_continue+0x380>
  a4bb3e:	4c                   	dec    %esp
  a4bb3f:	89 fa                	mov    %edi,%edx
  a4bb41:	4c                   	dec    %esp
  a4bb42:	89 f6                	mov    %esi,%esi
  a4bb44:	e8 77 21 00 00       	call   a4dcc0 <memcpy>
  a4bb49:	45                   	inc    %ebp
  a4bb4a:	0f b6 55 00          	movzbl 0x0(%ebp),%edx
  a4bb4e:	e9 8d fe ff ff       	jmp    a4b9e0 <LZ4_decompress_fast_continue+0x380>
  a4bb53:	be 0f 00 00 00       	mov    $0xf,%esi
  a4bb58:	0f 1f 84 00 00 00 00 	nopl   0x0(%eax,%eax,1)
  a4bb5f:	00 
  a4bb60:	0f b6 11             	movzbl (%ecx),%edx
  a4bb63:	48                   	dec    %eax
  a4bb64:	83 c1 01             	add    $0x1,%ecx
  a4bb67:	48                   	dec    %eax
  a4bb68:	01 d6                	add    %edx,%esi
  a4bb6a:	80 fa ff             	cmp    $0xff,%dl
  a4bb6d:	74 f1                	je     a4bb60 <LZ4_decompress_fast_continue+0x500>
  a4bb6f:	e9 82 fe ff ff       	jmp    a4b9f6 <LZ4_decompress_fast_continue+0x396>
  a4bb74:	ba 0f 00 00 00       	mov    $0xf,%edx
  a4bb79:	0f 1f 80 00 00 00 00 	nopl   0x0(%eax)
  a4bb80:	41                   	inc    %ecx
  a4bb81:	0f b6 4d 00          	movzbl 0x0(%ebp),%ecx
  a4bb85:	49                   	dec    %ecx
  a4bb86:	83 c5 01             	add    $0x1,%ebp
  a4bb89:	48                   	dec    %eax
  a4bb8a:	01 ca                	add    %ecx,%edx
  a4bb8c:	80 f9 ff             	cmp    $0xff,%cl
  a4bb8f:	74 ef                	je     a4bb80 <LZ4_decompress_fast_continue+0x520>
  a4bb91:	e9 b7 fe ff ff       	jmp    a4ba4d <LZ4_decompress_fast_continue+0x3ed>
  a4bb96:	e8 c5 20 00 00       	call   a4dc60 <memmove>
  a4bb9b:	45                   	inc    %ebp
  a4bb9c:	0f b6 55 00          	movzbl 0x0(%ebp),%edx
  a4bba0:	e9 3b fe ff ff       	jmp    a4b9e0 <LZ4_decompress_fast_continue+0x380>
  a4bba5:	0f b6 06             	movzbl (%esi),%eax
  a4bba8:	88 07                	mov    %al,(%edi)
  a4bbaa:	0f b6 46 01          	movzbl 0x1(%esi),%eax
  a4bbae:	88 47 01             	mov    %al,0x1(%edi)
  a4bbb1:	0f b6 46 02          	movzbl 0x2(%esi),%eax
  a4bbb5:	88 47 02             	mov    %al,0x2(%edi)
  a4bbb8:	0f b6 46 03          	movzbl 0x3(%esi),%eax
  a4bbbc:	88 47 03             	mov    %al,0x3(%edi)
  a4bbbf:	48                   	dec    %eax
  a4bbc0:	8d 05 da 83 00 00    	lea    0x83da,%eax
  a4bbc6:	42                   	inc    %edx
  a4bbc7:	8b 04 80             	mov    (%eax,%eax,4),%eax
  a4bbca:	48                   	dec    %eax
  a4bbcb:	01 c6                	add    %eax,%esi
  a4bbcd:	8b 06                	mov    (%esi),%eax
  a4bbcf:	89 47 04             	mov    %eax,0x4(%edi)
  a4bbd2:	48                   	dec    %eax
  a4bbd3:	8d 05 e7 83 00 00    	lea    0x83e7,%eax
  a4bbd9:	4a                   	dec    %edx
  a4bbda:	63 04 80             	arpl   %ax,(%eax,%eax,4)
  a4bbdd:	48                   	dec    %eax
  a4bbde:	29 c6                	sub    %eax,%esi
  a4bbe0:	48                   	dec    %eax
  a4bbe1:	8d 43 f4             	lea    -0xc(%ebx),%eax
  a4bbe4:	49                   	dec    %ecx
  a4bbe5:	39 c4                	cmp    %eax,%esp
  a4bbe7:	0f 86 14 ff ff ff    	jbe    a4bb01 <LZ4_decompress_fast_continue+0x4a1>
  a4bbed:	48                   	dec    %eax
  a4bbee:	8d 43 fb             	lea    -0x5(%ebx),%eax
  a4bbf1:	49                   	dec    %ecx
  a4bbf2:	39 c4                	cmp    %eax,%esp
  a4bbf4:	0f 87 fe fc ff ff    	ja     a4b8f8 <LZ4_decompress_fast_continue+0x298>
  a4bbfa:	48                   	dec    %eax
  a4bbfb:	83 c7 08             	add    $0x8,%edi
  a4bbfe:	48                   	dec    %eax
  a4bbff:	3b 7c 24 38          	cmp    0x38(%esp),%edi
  a4bc03:	0f 82 da 00 00 00    	jb     a4bce3 <LZ4_decompress_fast_continue+0x683>
  a4bc09:	4c                   	dec    %esp
  a4bc0a:	39 e7                	cmp    %esp,%edi
  a4bc0c:	0f 83 be fe ff ff    	jae    a4bad0 <LZ4_decompress_fast_continue+0x470>
  a4bc12:	4d                   	dec    %ebp
  a4bc13:	89 e0                	mov    %esp,%eax
  a4bc15:	31 c0                	xor    %eax,%eax
  a4bc17:	49                   	dec    %ecx
  a4bc18:	29 f8                	sub    %edi,%eax
  a4bc1a:	66 0f 1f 44 00 00    	nopw   0x0(%eax,%eax,1)
  a4bc20:	0f b6 14 06          	movzbl (%esi,%eax,1),%edx
  a4bc24:	88 14 07             	mov    %dl,(%edi,%eax,1)
  a4bc27:	48                   	dec    %eax
  a4bc28:	83 c0 01             	add    $0x1,%eax
  a4bc2b:	49                   	dec    %ecx
  a4bc2c:	39 c0                	cmp    %eax,%eax
  a4bc2e:	75 f0                	jne    a4bc20 <LZ4_decompress_fast_continue+0x5c0>
  a4bc30:	45                   	inc    %ebp
  a4bc31:	0f b6 55 00          	movzbl 0x0(%ebp),%edx
  a4bc35:	e9 a6 fd ff ff       	jmp    a4b9e0 <LZ4_decompress_fast_continue+0x380>
  a4bc3a:	49                   	dec    %ecx
  a4bc3b:	89 ff                	mov    %edi,%edi
  a4bc3d:	e9 8e fa ff ff       	jmp    a4b6d0 <LZ4_decompress_fast_continue+0x70>
  a4bc42:	48                   	dec    %eax
  a4bc43:	8b 74 24 28          	mov    0x28(%esp),%esi
  a4bc47:	4c                   	dec    %esp
  a4bc48:	89 c2                	mov    %eax,%edx
  a4bc4a:	48                   	dec    %eax
  a4bc4b:	89 f8                	mov    %edi,%eax
  a4bc4d:	0f 1f 00             	nopl   (%eax)
  a4bc50:	48                   	dec    %eax
  a4bc51:	8b 0a                	mov    (%edx),%ecx
  a4bc53:	48                   	dec    %eax
  a4bc54:	83 c0 08             	add    $0x8,%eax
  a4bc57:	48                   	dec    %eax
  a4bc58:	83 c2 08             	add    $0x8,%edx
  a4bc5b:	48                   	dec    %eax
  a4bc5c:	89 48 f8             	mov    %ecx,-0x8(%eax)
  a4bc5f:	48                   	dec    %eax
  a4bc60:	39 c6                	cmp    %eax,%esi
  a4bc62:	77 ec                	ja     a4bc50 <LZ4_decompress_fast_continue+0x5f0>
  a4bc64:	48                   	dec    %eax
  a4bc65:	8b 4c 24 28          	mov    0x28(%esp),%ecx
  a4bc69:	48                   	dec    %eax
  a4bc6a:	89 c8                	mov    %ecx,%eax
  a4bc6c:	48                   	dec    %eax
  a4bc6d:	29 f8                	sub    %edi,%eax
  a4bc6f:	48                   	dec    %eax
  a4bc70:	89 cf                	mov    %ecx,%edi
  a4bc72:	49                   	dec    %ecx
  a4bc73:	01 c0                	add    %eax,%eax
  a4bc75:	e9 f6 fc ff ff       	jmp    a4b970 <LZ4_decompress_fast_continue+0x310>
  a4bc7a:	49                   	dec    %ecx
  a4bc7b:	89 fc                	mov    %edi,%esp
  a4bc7d:	e9 4e fe ff ff       	jmp    a4bad0 <LZ4_decompress_fast_continue+0x470>
  a4bc82:	49                   	dec    %ecx
  a4bc83:	89 f6                	mov    %esi,%esi
  a4bc85:	48                   	dec    %eax
  a4bc86:	39 df                	cmp    %ebx,%edi
  a4bc88:	0f 85 6a fc ff ff    	jne    a4b8f8 <LZ4_decompress_fast_continue+0x298>
  a4bc8e:	48                   	dec    %eax
  a4bc8f:	89 f2                	mov    %esi,%edx
  a4bc91:	4c                   	dec    %esp
  a4bc92:	89 e7                	mov    %esp,%edi
  a4bc94:	48                   	dec    %eax
  a4bc95:	89 ce                	mov    %ecx,%esi
  a4bc97:	48                   	dec    %eax
  a4bc98:	89 4c 24 08          	mov    %ecx,0x8(%esp)
  a4bc9c:	e8 1f 20 00 00       	call   a4dcc0 <memcpy>
  a4bca1:	4c                   	dec    %esp
  a4bca2:	8b 44 24 08          	mov    0x8(%esp),%eax
  a4bca6:	4b                   	dec    %ebx
  a4bca7:	8d 04 30             	lea    (%eax,%esi,1),%eax
  a4bcaa:	48                   	dec    %eax
  a4bcab:	2b 44 24 20          	sub    0x20(%esp),%eax
  a4bcaf:	85 c0                	test   %eax,%eax
  a4bcb1:	0f 8e 46 fc ff ff    	jle    a4b8fd <LZ4_decompress_fast_continue+0x29d>
  a4bcb7:	48                   	dec    %eax
  a4bcb8:	8b 5c 24 18          	mov    0x18(%esp),%ebx
  a4bcbc:	48                   	dec    %eax
  a4bcbd:	8b 4c 24 30          	mov    0x30(%esp),%ecx
  a4bcc1:	48                   	dec    %eax
  a4bcc2:	03 4b 10             	add    0x10(%ebx),%ecx
  a4bcc5:	48                   	dec    %eax
  a4bcc6:	8b 53 18             	mov    0x18(%ebx),%edx
  a4bcc9:	48                   	dec    %eax
  a4bcca:	89 cb                	mov    %ecx,%ebx
  a4bccc:	48                   	dec    %eax
  a4bccd:	8b 4c 24 18          	mov    0x18(%esp),%ecx
  a4bcd1:	48                   	dec    %eax
  a4bcd2:	03 54 24 30          	add    0x30(%esp),%edx
  a4bcd6:	48                   	dec    %eax
  a4bcd7:	89 51 18             	mov    %edx,0x18(%ecx)
  a4bcda:	48                   	dec    %eax
  a4bcdb:	89 59 10             	mov    %ebx,0x10(%ecx)
  a4bcde:	e9 1a fc ff ff       	jmp    a4b8fd <LZ4_decompress_fast_continue+0x29d>
  a4bce3:	4c                   	dec    %esp
  a4bce4:	8b 44 24 38          	mov    0x38(%esp),%eax
  a4bce8:	48                   	dec    %eax
  a4bce9:	89 f2                	mov    %esi,%edx
  a4bceb:	48                   	dec    %eax
  a4bcec:	89 f8                	mov    %edi,%eax
  a4bcee:	48                   	dec    %eax
  a4bcef:	8b 0a                	mov    (%edx),%ecx
  a4bcf1:	48                   	dec    %eax
  a4bcf2:	83 c0 08             	add    $0x8,%eax
  a4bcf5:	48                   	dec    %eax
  a4bcf6:	83 c2 08             	add    $0x8,%edx
  a4bcf9:	48                   	dec    %eax
  a4bcfa:	89 48 f8             	mov    %ecx,-0x8(%eax)
  a4bcfd:	49                   	dec    %ecx
  a4bcfe:	39 c0                	cmp    %eax,%eax
  a4bd00:	77 ec                	ja     a4bcee <LZ4_decompress_fast_continue+0x68e>
  a4bd02:	48                   	dec    %eax
  a4bd03:	8b 4c 24 38          	mov    0x38(%esp),%ecx
  a4bd07:	48                   	dec    %eax
  a4bd08:	89 c8                	mov    %ecx,%eax
  a4bd0a:	48                   	dec    %eax
  a4bd0b:	29 f8                	sub    %edi,%eax
  a4bd0d:	48                   	dec    %eax
  a4bd0e:	89 cf                	mov    %ecx,%edi
  a4bd10:	48                   	dec    %eax
  a4bd11:	01 c6                	add    %eax,%esi
  a4bd13:	e9 f1 fe ff ff       	jmp    a4bc09 <LZ4_decompress_fast_continue+0x5a9>
  a4bd18:	b8 01 00 00 00       	mov    $0x1,%eax
  a4bd1d:	e9 74 fb ff ff       	jmp    a4b896 <LZ4_decompress_fast_continue+0x236>
  a4bd22:	45                   	inc    %ebp
  a4bd23:	84 d2                	test   %dl,%dl
  a4bd25:	0f 85 cd fb ff ff    	jne    a4b8f8 <LZ4_decompress_fast_continue+0x298>
  a4bd2b:	b8 01 00 00 00       	mov    $0x1,%eax
  a4bd30:	eb 9a                	jmp    a4bccc <LZ4_decompress_fast_continue+0x66c>
  a4bd32:	66 66 2e 0f 1f 84 00 	data16 nopw %cs:0x0(%eax,%eax,1)
  a4bd39:	00 00 00 00 
  a4bd3d:	0f 1f 00             	nopl   (%eax)

0000000000a4bd40 <LZ4_decompress_safe_usingDict>:
  a4bd40:	f3 0f 1e fa          	endbr64 
  a4bd44:	41                   	inc    %ecx
  a4bd45:	57                   	push   %edi
  a4bd46:	41                   	inc    %ecx
  a4bd47:	56                   	push   %esi
  a4bd48:	41                   	inc    %ecx
  a4bd49:	55                   	push   %ebp
  a4bd4a:	4c                   	dec    %esp
  a4bd4b:	63 ea                	arpl   %bp,%dx
  a4bd4d:	48                   	dec    %eax
  a4bd4e:	63 d1                	arpl   %dx,%cx
  a4bd50:	41                   	inc    %ecx
  a4bd51:	54                   	push   %esp
  a4bd52:	48                   	dec    %eax
  a4bd53:	89 d0                	mov    %edx,%eax
  a4bd55:	49                   	dec    %ecx
  a4bd56:	89 f4                	mov    %esi,%esp
  a4bd58:	4c                   	dec    %esp
  a4bd59:	89 ee                	mov    %ebp,%esi
  a4bd5b:	55                   	push   %ebp
  a4bd5c:	49                   	dec    %ecx
  a4bd5d:	01 fd                	add    %edi,%ebp
  a4bd5f:	48                   	dec    %eax
  a4bd60:	89 fd                	mov    %edi,%ebp
  a4bd62:	53                   	push   %ebx
  a4bd63:	48                   	dec    %eax
  a4bd64:	83 ec 38             	sub    $0x38,%esp
  a4bd67:	45                   	inc    %ebp
  a4bd68:	85 c9                	test   %ecx,%ecx
  a4bd6a:	0f 85 00 01 00 00    	jne    a4be70 <LZ4_decompress_safe_usingDict+0x130>
  a4bd70:	4c                   	dec    %esp
  a4bd71:	01 e2                	add    %esp,%edx
  a4bd73:	4c                   	dec    %esp
  a4bd74:	89 e7                	mov    %esp,%edi
  a4bd76:	85 c0                	test   %eax,%eax
  a4bd78:	0f 84 93 04 00 00    	je     a4c211 <LZ4_decompress_safe_usingDict+0x4d1>
  a4bd7e:	48                   	dec    %eax
  a4bd7f:	8d 42 fb             	lea    -0x5(%edx),%eax
  a4bd82:	4d                   	dec    %ebp
  a4bd83:	8d 4d f1             	lea    -0xf(%ebp),%ecx
  a4bd86:	48                   	dec    %eax
  a4bd87:	89 44 24 08          	mov    %eax,0x8(%esp)
  a4bd8b:	4c                   	dec    %esp
  a4bd8c:	8d 42 f4             	lea    -0xc(%edx),%eax
  a4bd8f:	4d                   	dec    %ebp
  a4bd90:	8d 5d f8             	lea    -0x8(%ebp),%ebx
  a4bd93:	4d                   	dec    %ebp
  a4bd94:	8d 55 fc             	lea    -0x4(%ebp),%edx
  a4bd97:	4c                   	dec    %esp
  a4bd98:	8d 72 f9             	lea    -0x7(%edx),%esi
  a4bd9b:	0f b6 45 00          	movzbl 0x0(%ebp),%eax
  a4bd9f:	48                   	dec    %eax
  a4bda0:	8d 75 01             	lea    0x1(%ebp),%esi
  a4bda3:	89 c1                	mov    %eax,%ecx
  a4bda5:	c1 e8 04             	shr    $0x4,%eax
  a4bda8:	41                   	inc    %ecx
  a4bda9:	89 c7                	mov    %eax,%edi
  a4bdab:	83 f8 0f             	cmp    $0xf,%eax
  a4bdae:	0f 84 ac 02 00 00    	je     a4c060 <LZ4_decompress_safe_usingDict+0x320>
  a4bdb4:	4a                   	dec    %edx
  a4bdb5:	8d 1c 3f             	lea    (%edi,%edi,1),%ebx
  a4bdb8:	4a                   	dec    %edx
  a4bdb9:	8d 2c 3e             	lea    (%esi,%edi,1),%ebp
  a4bdbc:	49                   	dec    %ecx
  a4bdbd:	39 d8                	cmp    %ebx,%eax
  a4bdbf:	0f 82 5c 06 00 00    	jb     a4c421 <LZ4_decompress_safe_usingDict+0x6e1>
  a4bdc5:	4c                   	dec    %esp
  a4bdc6:	39 dd                	cmp    %ebx,%ebp
  a4bdc8:	0f 87 53 06 00 00    	ja     a4c421 <LZ4_decompress_safe_usingDict+0x6e1>
  a4bdce:	66 90                	xchg   %ax,%ax
  a4bdd0:	48                   	dec    %eax
  a4bdd1:	8b 06                	mov    (%esi),%eax
  a4bdd3:	48                   	dec    %eax
  a4bdd4:	83 c7 08             	add    $0x8,%edi
  a4bdd7:	48                   	dec    %eax
  a4bdd8:	83 c6 08             	add    $0x8,%esi
  a4bddb:	48                   	dec    %eax
  a4bddc:	89 47 f8             	mov    %eax,-0x8(%edi)
  a4bddf:	48                   	dec    %eax
  a4bde0:	39 df                	cmp    %ebx,%edi
  a4bde2:	72 ec                	jb     a4bdd0 <LZ4_decompress_safe_usingDict+0x90>
  a4bde4:	0f b7 75 00          	movzwl 0x0(%ebp),%esi
  a4bde8:	48                   	dec    %eax
  a4bde9:	89 d8                	mov    %ebx,%eax
  a4bdeb:	48                   	dec    %eax
  a4bdec:	83 c5 02             	add    $0x2,%ebp
  a4bdef:	48                   	dec    %eax
  a4bdf0:	29 f0                	sub    %esi,%eax
  a4bdf2:	49                   	dec    %ecx
  a4bdf3:	39 c4                	cmp    %eax,%esp
  a4bdf5:	0f 87 f5 01 00 00    	ja     a4bff0 <LZ4_decompress_safe_usingDict+0x2b0>
  a4bdfb:	89 cf                	mov    %ecx,%edi
  a4bdfd:	89 33                	mov    %esi,(%ebx)
  a4bdff:	83 e1 0f             	and    $0xf,%ecx
  a4be02:	83 e7 0f             	and    $0xf,%edi
  a4be05:	40                   	inc    %eax
  a4be06:	80 ff 0f             	cmp    $0xf,%bh
  a4be09:	0f 84 b1 01 00 00    	je     a4bfc0 <LZ4_decompress_safe_usingDict+0x280>
  a4be0f:	48                   	dec    %eax
  a4be10:	83 c1 04             	add    $0x4,%ecx
  a4be13:	48                   	dec    %eax
  a4be14:	8d 3c 0b             	lea    (%ebx,%ecx,1),%edi
  a4be17:	48                   	dec    %eax
  a4be18:	83 fe 07             	cmp    $0x7,%esi
  a4be1b:	0f 86 95 04 00 00    	jbe    a4c2b6 <LZ4_decompress_safe_usingDict+0x576>
  a4be21:	48                   	dec    %eax
  a4be22:	8b 30                	mov    (%eax),%esi
  a4be24:	48                   	dec    %eax
  a4be25:	83 c0 08             	add    $0x8,%eax
  a4be28:	48                   	dec    %eax
  a4be29:	89 33                	mov    %esi,(%ebx)
  a4be2b:	49                   	dec    %ecx
  a4be2c:	39 f8                	cmp    %edi,%eax
  a4be2e:	0f 82 3e 04 00 00    	jb     a4c272 <LZ4_decompress_safe_usingDict+0x532>
  a4be34:	48                   	dec    %eax
  a4be35:	8b 30                	mov    (%eax),%esi
  a4be37:	48                   	dec    %eax
  a4be38:	89 73 08             	mov    %esi,0x8(%ebx)
  a4be3b:	48                   	dec    %eax
  a4be3c:	83 f9 10             	cmp    $0x10,%ecx
  a4be3f:	0f 86 56 ff ff ff    	jbe    a4bd9b <LZ4_decompress_safe_usingDict+0x5b>
  a4be45:	48                   	dec    %eax
  a4be46:	83 c0 08             	add    $0x8,%eax
  a4be49:	48                   	dec    %eax
  a4be4a:	83 c3 10             	add    $0x10,%ebx
  a4be4d:	0f 1f 00             	nopl   (%eax)
  a4be50:	48                   	dec    %eax
  a4be51:	8b 08                	mov    (%eax),%ecx
  a4be53:	48                   	dec    %eax
  a4be54:	83 c3 08             	add    $0x8,%ebx
  a4be57:	48                   	dec    %eax
  a4be58:	83 c0 08             	add    $0x8,%eax
  a4be5b:	48                   	dec    %eax
  a4be5c:	89 4b f8             	mov    %ecx,-0x8(%ebx)
  a4be5f:	48                   	dec    %eax
  a4be60:	39 df                	cmp    %ebx,%edi
  a4be62:	77 ec                	ja     a4be50 <LZ4_decompress_safe_usingDict+0x110>
  a4be64:	e9 32 ff ff ff       	jmp    a4bd9b <LZ4_decompress_safe_usingDict+0x5b>
  a4be69:	0f 1f 80 00 00 00 00 	nopl   0x0(%eax)
  a4be70:	4d                   	dec    %ebp
  a4be71:	63 d1                	arpl   %dx,%cx
  a4be73:	4b                   	dec    %ebx
  a4be74:	8d 0c 10             	lea    (%eax,%edx,1),%ecx
  a4be77:	48                   	dec    %eax
  a4be78:	89 4c 24 10          	mov    %ecx,0x10(%esp)
  a4be7c:	49                   	dec    %ecx
  a4be7d:	39 cc                	cmp    %ecx,%esp
  a4be7f:	0f 84 75 02 00 00    	je     a4c0fa <LZ4_decompress_safe_usingDict+0x3ba>
  a4be85:	4d                   	dec    %ebp
  a4be86:	8d 3c 14             	lea    (%esp,%edx,1),%edi
  a4be89:	4c                   	dec    %esp
  a4be8a:	89 e2                	mov    %esp,%edx
  a4be8c:	4c                   	dec    %esp
  a4be8d:	89 e3                	mov    %esp,%ebx
  a4be8f:	4d                   	dec    %ebp
  a4be90:	89 d6                	mov    %edx,%esi
  a4be92:	4c                   	dec    %esp
  a4be93:	29 d2                	sub    %edx,%edx
  a4be95:	48                   	dec    %eax
  a4be96:	89 54 24 08          	mov    %edx,0x8(%esp)
  a4be9a:	49                   	dec    %ecx
  a4be9b:	8d 57 f9             	lea    -0x7(%edi),%edx
  a4be9e:	48                   	dec    %eax
  a4be9f:	89 54 24 28          	mov    %edx,0x28(%esp)
  a4bea3:	85 c0                	test   %eax,%eax
  a4bea5:	0f 84 66 03 00 00    	je     a4c211 <LZ4_decompress_safe_usingDict+0x4d1>
  a4beab:	0f b6 4d 00          	movzbl 0x0(%ebp),%ecx
  a4beaf:	48                   	dec    %eax
  a4beb0:	8d 75 01             	lea    0x1(%ebp),%esi
  a4beb3:	89 ca                	mov    %ecx,%edx
  a4beb5:	c1 e9 04             	shr    $0x4,%ecx
  a4beb8:	89 c8                	mov    %ecx,%eax
  a4beba:	83 f9 0f             	cmp    $0xf,%ecx
  a4bebd:	0f 84 f5 01 00 00    	je     a4c0b8 <LZ4_decompress_safe_usingDict+0x378>
  a4bec3:	48                   	dec    %eax
  a4bec4:	8d 3c 03             	lea    (%ebx,%eax,1),%edi
  a4bec7:	48                   	dec    %eax
  a4bec8:	8d 2c 06             	lea    (%esi,%eax,1),%ebp
  a4becb:	49                   	dec    %ecx
  a4becc:	8d 4f f4             	lea    -0xc(%edi),%ecx
  a4becf:	48                   	dec    %eax
  a4bed0:	39 cf                	cmp    %ecx,%edi
  a4bed2:	0f 87 f5 05 00 00    	ja     a4c4cd <LZ4_decompress_safe_usingDict+0x78d>
  a4bed8:	4d                   	dec    %ebp
  a4bed9:	8d 45 f8             	lea    -0x8(%ebp),%eax
  a4bedc:	4c                   	dec    %esp
  a4bedd:	39 c5                	cmp    %eax,%ebp
  a4bedf:	0f 87 e8 05 00 00    	ja     a4c4cd <LZ4_decompress_safe_usingDict+0x78d>
  a4bee5:	0f 1f 00             	nopl   (%eax)
  a4bee8:	48                   	dec    %eax
  a4bee9:	8b 06                	mov    (%esi),%eax
  a4beeb:	48                   	dec    %eax
  a4beec:	83 c3 08             	add    $0x8,%ebx
  a4beef:	48                   	dec    %eax
  a4bef0:	83 c6 08             	add    $0x8,%esi
  a4bef3:	48                   	dec    %eax
  a4bef4:	89 43 f8             	mov    %eax,-0x8(%ebx)
  a4bef7:	48                   	dec    %eax
  a4bef8:	39 df                	cmp    %ebx,%edi
  a4befa:	77 ec                	ja     a4bee8 <LZ4_decompress_safe_usingDict+0x1a8>
  a4befc:	44                   	inc    %esp
  a4befd:	0f b7 45 00          	movzwl 0x0(%ebp),%eax
  a4bf01:	48                   	dec    %eax
  a4bf02:	89 fe                	mov    %edi,%esi
  a4bf04:	48                   	dec    %eax
  a4bf05:	83 c5 02             	add    $0x2,%ebp
  a4bf08:	4c                   	dec    %esp
  a4bf09:	89 c0                	mov    %eax,%eax
  a4bf0b:	4c                   	dec    %esp
  a4bf0c:	29 c6                	sub    %eax,%esi
  a4bf0e:	48                   	dec    %eax
  a4bf0f:	39 74 24 08          	cmp    %esi,0x8(%esp)
  a4bf13:	76 0d                	jbe    a4bf22 <LZ4_decompress_safe_usingDict+0x1e2>
  a4bf15:	49                   	dec    %ecx
  a4bf16:	81 fe ff ff 00 00    	cmp    $0xffff,%esi
  a4bf1c:	0f 86 ce 00 00 00    	jbe    a4bff0 <LZ4_decompress_safe_usingDict+0x2b0>
  a4bf22:	89 07                	mov    %eax,(%edi)
  a4bf24:	89 d0                	mov    %edx,%eax
  a4bf26:	83 e2 0f             	and    $0xf,%edx
  a4bf29:	83 e0 0f             	and    $0xf,%eax
  a4bf2c:	3c 0f                	cmp    $0xf,%al
  a4bf2e:	0f 84 fc 02 00 00    	je     a4c230 <LZ4_decompress_safe_usingDict+0x4f0>
  a4bf34:	48                   	dec    %eax
  a4bf35:	83 c2 04             	add    $0x4,%edx
  a4bf38:	48                   	dec    %eax
  a4bf39:	8d 1c 17             	lea    (%edi,%edx,1),%ebx
  a4bf3c:	49                   	dec    %ecx
  a4bf3d:	39 f4                	cmp    %esi,%esp
  a4bf3f:	0f 86 c3 00 00 00    	jbe    a4c008 <LZ4_decompress_safe_usingDict+0x2c8>
  a4bf45:	49                   	dec    %ecx
  a4bf46:	8d 47 fb             	lea    -0x5(%edi),%eax
  a4bf49:	48                   	dec    %eax
  a4bf4a:	39 c3                	cmp    %eax,%ebx
  a4bf4c:	0f 87 9e 00 00 00    	ja     a4bff0 <LZ4_decompress_safe_usingDict+0x2b0>
  a4bf52:	4c                   	dec    %esp
  a4bf53:	89 e1                	mov    %esp,%ecx
  a4bf55:	48                   	dec    %eax
  a4bf56:	29 f1                	sub    %esi,%ecx
  a4bf58:	48                   	dec    %eax
  a4bf59:	8b 74 24 10          	mov    0x10(%esp),%esi
  a4bf5d:	48                   	dec    %eax
  a4bf5e:	29 ce                	sub    %ecx,%esi
  a4bf60:	48                   	dec    %eax
  a4bf61:	39 ca                	cmp    %ecx,%edx
  a4bf63:	0f 86 ff 02 00 00    	jbe    a4c268 <LZ4_decompress_safe_usingDict+0x528>
  a4bf69:	48                   	dec    %eax
  a4bf6a:	29 ca                	sub    %ecx,%edx
  a4bf6c:	48                   	dec    %eax
  a4bf6d:	89 4c 24 18          	mov    %ecx,0x18(%esp)
  a4bf71:	48                   	dec    %eax
  a4bf72:	89 54 24 20          	mov    %edx,0x20(%esp)
  a4bf76:	48                   	dec    %eax
  a4bf77:	89 ca                	mov    %ecx,%edx
  a4bf79:	e8 42 1d 00 00       	call   a4dcc0 <memcpy>
  a4bf7e:	48                   	dec    %eax
  a4bf7f:	8b 4c 24 18          	mov    0x18(%esp),%ecx
  a4bf83:	4c                   	dec    %esp
  a4bf84:	8b 44 24 20          	mov    0x20(%esp),%eax
  a4bf88:	48                   	dec    %eax
  a4bf89:	89 c7                	mov    %eax,%edi
  a4bf8b:	48                   	dec    %eax
  a4bf8c:	01 cf                	add    %ecx,%edi
  a4bf8e:	48                   	dec    %eax
  a4bf8f:	89 f8                	mov    %edi,%eax
  a4bf91:	4c                   	dec    %esp
  a4bf92:	29 e0                	sub    %esp,%eax
  a4bf94:	49                   	dec    %ecx
  a4bf95:	39 c0                	cmp    %eax,%eax
  a4bf97:	0f 86 04 01 00 00    	jbe    a4c0a1 <LZ4_decompress_safe_usingDict+0x361>
  a4bf9d:	48                   	dec    %eax
  a4bf9e:	39 fb                	cmp    %edi,%ebx
  a4bfa0:	0f 86 52 05 00 00    	jbe    a4c4f8 <LZ4_decompress_safe_usingDict+0x7b8>
  a4bfa6:	31 c0                	xor    %eax,%eax
  a4bfa8:	41                   	inc    %ecx
  a4bfa9:	0f b6 14 04          	movzbl (%esp,%eax,1),%edx
  a4bfad:	88 14 07             	mov    %dl,(%edi,%eax,1)
  a4bfb0:	48                   	dec    %eax
  a4bfb1:	83 c0 01             	add    $0x1,%eax
  a4bfb4:	4c                   	dec    %esp
  a4bfb5:	39 c0                	cmp    %eax,%eax
  a4bfb7:	75 ef                	jne    a4bfa8 <LZ4_decompress_safe_usingDict+0x268>
  a4bfb9:	e9 ed fe ff ff       	jmp    a4beab <LZ4_decompress_safe_usingDict+0x16b>
  a4bfbe:	66 90                	xchg   %ax,%ax
  a4bfc0:	b9 0f 00 00 00       	mov    $0xf,%ecx
  a4bfc5:	eb 1a                	jmp    a4bfe1 <LZ4_decompress_safe_usingDict+0x2a1>
  a4bfc7:	66 0f 1f 84 00 00 00 	nopw   0x0(%eax,%eax,1)
  a4bfce:	00 00 
  a4bfd0:	44                   	inc    %esp
  a4bfd1:	0f b6 ff             	movzbl %bh,%edi
  a4bfd4:	4c                   	dec    %esp
  a4bfd5:	01 f9                	add    %edi,%ecx
  a4bfd7:	40                   	inc    %eax
  a4bfd8:	80 ff ff             	cmp    $0xff,%bh
  a4bfdb:	0f 85 1f 03 00 00    	jne    a4c300 <LZ4_decompress_safe_usingDict+0x5c0>
  a4bfe1:	48                   	dec    %eax
  a4bfe2:	83 c5 01             	add    $0x1,%ebp
  a4bfe5:	0f b6 7d ff          	movzbl -0x1(%ebp),%edi
  a4bfe9:	4c                   	dec    %esp
  a4bfea:	39 d5                	cmp    %edx,%ebp
  a4bfec:	75 e2                	jne    a4bfd0 <LZ4_decompress_safe_usingDict+0x290>
  a4bfee:	66 90                	xchg   %ax,%ax
  a4bff0:	b8 ff ff ff ff       	mov    $0xffffffff,%eax
  a4bff5:	48                   	dec    %eax
  a4bff6:	83 c4 38             	add    $0x38,%esp
  a4bff9:	5b                   	pop    %ebx
  a4bffa:	5d                   	pop    %ebp
  a4bffb:	41                   	inc    %ecx
  a4bffc:	5c                   	pop    %esp
  a4bffd:	41                   	inc    %ecx
  a4bffe:	5d                   	pop    %ebp
  a4bfff:	41                   	inc    %ecx
  a4c000:	5e                   	pop    %esi
  a4c001:	41                   	inc    %ecx
  a4c002:	5f                   	pop    %edi
  a4c003:	c3                   	ret    
  a4c004:	0f 1f 40 00          	nopl   0x0(%eax)
  a4c008:	49                   	dec    %ecx
  a4c009:	83 f8 07             	cmp    $0x7,%eax
  a4c00c:	0f 86 7b 04 00 00    	jbe    a4c48d <LZ4_decompress_safe_usingDict+0x74d>
  a4c012:	48                   	dec    %eax
  a4c013:	8b 06                	mov    (%esi),%eax
  a4c015:	48                   	dec    %eax
  a4c016:	89 07                	mov    %eax,(%edi)
  a4c018:	48                   	dec    %eax
  a4c019:	8d 46 08             	lea    0x8(%esi),%eax
  a4c01c:	48                   	dec    %eax
  a4c01d:	39 d9                	cmp    %ebx,%ecx
  a4c01f:	0f 82 20 04 00 00    	jb     a4c445 <LZ4_decompress_safe_usingDict+0x705>
  a4c025:	48                   	dec    %eax
  a4c026:	8b 08                	mov    (%eax),%ecx
  a4c028:	48                   	dec    %eax
  a4c029:	89 4f 08             	mov    %ecx,0x8(%edi)
  a4c02c:	48                   	dec    %eax
  a4c02d:	83 fa 10             	cmp    $0x10,%edx
  a4c030:	0f 86 75 fe ff ff    	jbe    a4beab <LZ4_decompress_safe_usingDict+0x16b>
  a4c036:	48                   	dec    %eax
  a4c037:	83 c0 08             	add    $0x8,%eax
  a4c03a:	48                   	dec    %eax
  a4c03b:	83 c7 10             	add    $0x10,%edi
  a4c03e:	66 90                	xchg   %ax,%ax
  a4c040:	48                   	dec    %eax
  a4c041:	8b 10                	mov    (%eax),%edx
  a4c043:	48                   	dec    %eax
  a4c044:	83 c7 08             	add    $0x8,%edi
  a4c047:	48                   	dec    %eax
  a4c048:	83 c0 08             	add    $0x8,%eax
  a4c04b:	48                   	dec    %eax
  a4c04c:	89 57 f8             	mov    %edx,-0x8(%edi)
  a4c04f:	48                   	dec    %eax
  a4c050:	39 fb                	cmp    %edi,%ebx
  a4c052:	77 ec                	ja     a4c040 <LZ4_decompress_safe_usingDict+0x300>
  a4c054:	e9 52 fe ff ff       	jmp    a4beab <LZ4_decompress_safe_usingDict+0x16b>
  a4c059:	0f 1f 80 00 00 00 00 	nopl   0x0(%eax)
  a4c060:	41                   	inc    %ecx
  a4c061:	bf 0f 00 00 00       	mov    $0xf,%edi
  a4c066:	eb 0d                	jmp    a4c075 <LZ4_decompress_safe_usingDict+0x335>
  a4c068:	0f 1f 84 00 00 00 00 	nopl   0x0(%eax,%eax,1)
  a4c06f:	00 
  a4c070:	80 fb ff             	cmp    $0xff,%bl
  a4c073:	75 0f                	jne    a4c084 <LZ4_decompress_safe_usingDict+0x344>
  a4c075:	0f b6 1e             	movzbl (%esi),%ebx
  a4c078:	48                   	dec    %eax
  a4c079:	83 c6 01             	add    $0x1,%esi
  a4c07c:	49                   	dec    %ecx
  a4c07d:	01 df                	add    %ebx,%edi
  a4c07f:	4c                   	dec    %esp
  a4c080:	39 ce                	cmp    %ecx,%esi
  a4c082:	72 ec                	jb     a4c070 <LZ4_decompress_safe_usingDict+0x330>
  a4c084:	48                   	dec    %eax
  a4c085:	89 fb                	mov    %edi,%ebx
  a4c087:	4c                   	dec    %esp
  a4c088:	01 fb                	add    %edi,%ebx
  a4c08a:	0f 82 60 ff ff ff    	jb     a4bff0 <LZ4_decompress_safe_usingDict+0x2b0>
  a4c090:	48                   	dec    %eax
  a4c091:	89 f5                	mov    %esi,%ebp
  a4c093:	4c                   	dec    %esp
  a4c094:	01 fd                	add    %edi,%ebp
  a4c096:	0f 83 20 fd ff ff    	jae    a4bdbc <LZ4_decompress_safe_usingDict+0x7c>
  a4c09c:	e9 4f ff ff ff       	jmp    a4bff0 <LZ4_decompress_safe_usingDict+0x2b0>
  a4c0a1:	4c                   	dec    %esp
  a4c0a2:	89 c2                	mov    %eax,%edx
  a4c0a4:	4c                   	dec    %esp
  a4c0a5:	89 e6                	mov    %esp,%esi
  a4c0a7:	e8 14 1c 00 00       	call   a4dcc0 <memcpy>
  a4c0ac:	e9 fa fd ff ff       	jmp    a4beab <LZ4_decompress_safe_usingDict+0x16b>
  a4c0b1:	0f 1f 80 00 00 00 00 	nopl   0x0(%eax)
  a4c0b8:	4d                   	dec    %ebp
  a4c0b9:	8d 45 f1             	lea    -0xf(%ebp),%eax
  a4c0bc:	b8 0f 00 00 00       	mov    $0xf,%eax
  a4c0c1:	eb 0b                	jmp    a4c0ce <LZ4_decompress_safe_usingDict+0x38e>
  a4c0c3:	0f 1f 44 00 00       	nopl   0x0(%eax,%eax,1)
  a4c0c8:	40                   	inc    %eax
  a4c0c9:	80 ff ff             	cmp    $0xff,%bh
  a4c0cc:	75 0f                	jne    a4c0dd <LZ4_decompress_safe_usingDict+0x39d>
  a4c0ce:	0f b6 3e             	movzbl (%esi),%edi
  a4c0d1:	48                   	dec    %eax
  a4c0d2:	83 c6 01             	add    $0x1,%esi
  a4c0d5:	48                   	dec    %eax
  a4c0d6:	01 f8                	add    %edi,%eax
  a4c0d8:	49                   	dec    %ecx
  a4c0d9:	39 f0                	cmp    %esi,%eax
  a4c0db:	77 eb                	ja     a4c0c8 <LZ4_decompress_safe_usingDict+0x388>
  a4c0dd:	48                   	dec    %eax
  a4c0de:	89 df                	mov    %ebx,%edi
  a4c0e0:	48                   	dec    %eax
  a4c0e1:	01 c7                	add    %eax,%edi
  a4c0e3:	0f 82 07 ff ff ff    	jb     a4bff0 <LZ4_decompress_safe_usingDict+0x2b0>
  a4c0e9:	48                   	dec    %eax
  a4c0ea:	89 f5                	mov    %esi,%ebp
  a4c0ec:	48                   	dec    %eax
  a4c0ed:	01 c5                	add    %eax,%ebp
  a4c0ef:	0f 83 d6 fd ff ff    	jae    a4becb <LZ4_decompress_safe_usingDict+0x18b>
  a4c0f5:	e9 f6 fe ff ff       	jmp    a4bff0 <LZ4_decompress_safe_usingDict+0x2b0>
  a4c0fa:	4c                   	dec    %esp
  a4c0fb:	01 e2                	add    %esp,%edx
  a4c0fd:	41                   	inc    %ecx
  a4c0fe:	81 f9 fe ff 00 00    	cmp    $0xfffe,%ecx
  a4c104:	0f 8e 18 02 00 00    	jle    a4c322 <LZ4_decompress_safe_usingDict+0x5e2>
  a4c10a:	4d                   	dec    %ebp
  a4c10b:	8d 8c 24 00 00 ff ff 	lea    -0x10000(%esp),%ecx
  a4c112:	85 c0                	test   %eax,%eax
  a4c114:	0f 84 f7 00 00 00    	je     a4c211 <LZ4_decompress_safe_usingDict+0x4d1>
  a4c11a:	48                   	dec    %eax
  a4c11b:	8d 42 fb             	lea    -0x5(%edx),%eax
  a4c11e:	4d                   	dec    %ebp
  a4c11f:	8d 55 f1             	lea    -0xf(%ebp),%edx
  a4c122:	48                   	dec    %eax
  a4c123:	89 44 24 08          	mov    %eax,0x8(%esp)
  a4c127:	4c                   	dec    %esp
  a4c128:	8d 42 f4             	lea    -0xc(%edx),%eax
  a4c12b:	4d                   	dec    %ebp
  a4c12c:	8d 75 f8             	lea    -0x8(%ebp),%esi
  a4c12f:	4d                   	dec    %ebp
  a4c130:	8d 5d fc             	lea    -0x4(%ebp),%ebx
  a4c133:	4c                   	dec    %esp
  a4c134:	8d 7a f9             	lea    -0x7(%edx),%edi
  a4c137:	0f b6 45 00          	movzbl 0x0(%ebp),%eax
  a4c13b:	48                   	dec    %eax
  a4c13c:	8d 75 01             	lea    0x1(%ebp),%esi
  a4c13f:	89 c7                	mov    %eax,%edi
  a4c141:	c1 e8 04             	shr    $0x4,%eax
  a4c144:	89 c1                	mov    %eax,%ecx
  a4c146:	83 f8 0f             	cmp    $0xf,%eax
  a4c149:	0f 84 29 04 00 00    	je     a4c578 <LZ4_decompress_safe_usingDict+0x838>
  a4c14f:	49                   	dec    %ecx
  a4c150:	8d 1c 0c             	lea    (%esp,%ecx,1),%ebx
  a4c153:	48                   	dec    %eax
  a4c154:	8d 2c 0e             	lea    (%esi,%ecx,1),%ebp
  a4c157:	49                   	dec    %ecx
  a4c158:	39 d8                	cmp    %ebx,%eax
  a4c15a:	0f 82 11 06 00 00    	jb     a4c771 <LZ4_decompress_safe_usingDict+0xa31>
  a4c160:	4c                   	dec    %esp
  a4c161:	39 f5                	cmp    %esi,%ebp
  a4c163:	0f 87 08 06 00 00    	ja     a4c771 <LZ4_decompress_safe_usingDict+0xa31>
  a4c169:	0f 1f 80 00 00 00 00 	nopl   0x0(%eax)
  a4c170:	48                   	dec    %eax
  a4c171:	8b 06                	mov    (%esi),%eax
  a4c173:	49                   	dec    %ecx
  a4c174:	83 c4 08             	add    $0x8,%esp
  a4c177:	48                   	dec    %eax
  a4c178:	83 c6 08             	add    $0x8,%esi
  a4c17b:	49                   	dec    %ecx
  a4c17c:	89 44 24 f8          	mov    %eax,-0x8(%esp)
  a4c180:	49                   	dec    %ecx
  a4c181:	39 dc                	cmp    %ebx,%esp
  a4c183:	72 eb                	jb     a4c170 <LZ4_decompress_safe_usingDict+0x430>
  a4c185:	0f b7 4d 00          	movzwl 0x0(%ebp),%ecx
  a4c189:	48                   	dec    %eax
  a4c18a:	89 de                	mov    %ebx,%esi
  a4c18c:	48                   	dec    %eax
  a4c18d:	83 c5 02             	add    $0x2,%ebp
  a4c190:	48                   	dec    %eax
  a4c191:	29 ce                	sub    %ecx,%esi
  a4c193:	49                   	dec    %ecx
  a4c194:	39 f1                	cmp    %esi,%ecx
  a4c196:	0f 87 54 fe ff ff    	ja     a4bff0 <LZ4_decompress_safe_usingDict+0x2b0>
  a4c19c:	41                   	inc    %ecx
  a4c19d:	89 fc                	mov    %edi,%esp
  a4c19f:	48                   	dec    %eax
  a4c1a0:	89 f8                	mov    %edi,%eax
  a4c1a2:	89 0b                	mov    %ecx,(%ebx)
  a4c1a4:	41                   	inc    %ecx
  a4c1a5:	83 e4 0f             	and    $0xf,%esp
  a4c1a8:	83 e0 0f             	and    $0xf,%eax
  a4c1ab:	41                   	inc    %ecx
  a4c1ac:	80 fc 0f             	cmp    $0xf,%ah
  a4c1af:	0f 84 30 04 00 00    	je     a4c5e5 <LZ4_decompress_safe_usingDict+0x8a5>
  a4c1b5:	48                   	dec    %eax
  a4c1b6:	8d 78 04             	lea    0x4(%eax),%edi
  a4c1b9:	4c                   	dec    %esp
  a4c1ba:	8d 24 3b             	lea    (%ebx,%edi,1),%esp
  a4c1bd:	48                   	dec    %eax
  a4c1be:	83 f9 07             	cmp    $0x7,%ecx
  a4c1c1:	0f 86 7c 04 00 00    	jbe    a4c643 <LZ4_decompress_safe_usingDict+0x903>
  a4c1c7:	48                   	dec    %eax
  a4c1c8:	8b 06                	mov    (%esi),%eax
  a4c1ca:	48                   	dec    %eax
  a4c1cb:	89 03                	mov    %eax,(%ebx)
  a4c1cd:	48                   	dec    %eax
  a4c1ce:	8d 46 08             	lea    0x8(%esi),%eax
  a4c1d1:	4d                   	dec    %ebp
  a4c1d2:	39 e0                	cmp    %esp,%eax
  a4c1d4:	0f 82 a8 04 00 00    	jb     a4c682 <LZ4_decompress_safe_usingDict+0x942>
  a4c1da:	48                   	dec    %eax
  a4c1db:	8b 08                	mov    (%eax),%ecx
  a4c1dd:	48                   	dec    %eax
  a4c1de:	89 4b 08             	mov    %ecx,0x8(%ebx)
  a4c1e1:	48                   	dec    %eax
  a4c1e2:	83 ff 10             	cmp    $0x10,%edi
  a4c1e5:	0f 86 4c ff ff ff    	jbe    a4c137 <LZ4_decompress_safe_usingDict+0x3f7>
  a4c1eb:	48                   	dec    %eax
  a4c1ec:	83 c0 08             	add    $0x8,%eax
  a4c1ef:	48                   	dec    %eax
  a4c1f0:	83 c3 10             	add    $0x10,%ebx
  a4c1f3:	0f 1f 44 00 00       	nopl   0x0(%eax,%eax,1)
  a4c1f8:	48                   	dec    %eax
  a4c1f9:	8b 08                	mov    (%eax),%ecx
  a4c1fb:	48                   	dec    %eax
  a4c1fc:	83 c3 08             	add    $0x8,%ebx
  a4c1ff:	48                   	dec    %eax
  a4c200:	83 c0 08             	add    $0x8,%eax
  a4c203:	48                   	dec    %eax
  a4c204:	89 4b f8             	mov    %ecx,-0x8(%ebx)
  a4c207:	49                   	dec    %ecx
  a4c208:	39 dc                	cmp    %ebx,%esp
  a4c20a:	77 ec                	ja     a4c1f8 <LZ4_decompress_safe_usingDict+0x4b8>
  a4c20c:	e9 26 ff ff ff       	jmp    a4c137 <LZ4_decompress_safe_usingDict+0x3f7>
  a4c211:	83 fe 01             	cmp    $0x1,%esi
  a4c214:	0f 85 d6 fd ff ff    	jne    a4bff0 <LZ4_decompress_safe_usingDict+0x2b0>
  a4c21a:	31 c0                	xor    %eax,%eax
  a4c21c:	80 7d 00 00          	cmpb   $0x0,0x0(%ebp)
  a4c220:	0f 84 cf fd ff ff    	je     a4bff5 <LZ4_decompress_safe_usingDict+0x2b5>
  a4c226:	e9 c5 fd ff ff       	jmp    a4bff0 <LZ4_decompress_safe_usingDict+0x2b0>
  a4c22b:	0f 1f 44 00 00       	nopl   0x0(%eax,%eax,1)
  a4c230:	4d                   	dec    %ebp
  a4c231:	8d 55 fc             	lea    -0x4(%ebp),%edx
  a4c234:	ba 0f 00 00 00       	mov    $0xf,%edx
  a4c239:	eb 14                	jmp    a4c24f <LZ4_decompress_safe_usingDict+0x50f>
  a4c23b:	0f 1f 44 00 00       	nopl   0x0(%eax,%eax,1)
  a4c240:	44                   	inc    %esp
  a4c241:	0f b6 c8             	movzbl %al,%ecx
  a4c244:	4c                   	dec    %esp
  a4c245:	01 ca                	add    %ecx,%edx
  a4c247:	3c ff                	cmp    $0xff,%al
  a4c249:	0f 85 c2 00 00 00    	jne    a4c311 <LZ4_decompress_safe_usingDict+0x5d1>
  a4c24f:	48                   	dec    %eax
  a4c250:	83 c5 01             	add    $0x1,%ebp
  a4c253:	0f b6 45 ff          	movzbl -0x1(%ebp),%eax
  a4c257:	49                   	dec    %ecx
  a4c258:	39 ea                	cmp    %ebp,%edx
  a4c25a:	75 e4                	jne    a4c240 <LZ4_decompress_safe_usingDict+0x500>
  a4c25c:	e9 8f fd ff ff       	jmp    a4bff0 <LZ4_decompress_safe_usingDict+0x2b0>
  a4c261:	0f 1f 80 00 00 00 00 	nopl   0x0(%eax)
  a4c268:	e8 f3 19 00 00       	call   a4dc60 <memmove>
  a4c26d:	e9 39 fc ff ff       	jmp    a4beab <LZ4_decompress_safe_usingDict+0x16b>
  a4c272:	48                   	dec    %eax
  a4c273:	3b 7c 24 08          	cmp    0x8(%esp),%edi
  a4c277:	0f 87 73 fd ff ff    	ja     a4bff0 <LZ4_decompress_safe_usingDict+0x2b0>
  a4c27d:	48                   	dec    %eax
  a4c27e:	83 c3 08             	add    $0x8,%ebx
  a4c281:	4c                   	dec    %esp
  a4c282:	39 f3                	cmp    %esi,%ebx
  a4c284:	0f 82 27 03 00 00    	jb     a4c5b1 <LZ4_decompress_safe_usingDict+0x871>
  a4c28a:	48                   	dec    %eax
  a4c28b:	39 df                	cmp    %ebx,%edi
  a4c28d:	0f 86 08 fb ff ff    	jbe    a4bd9b <LZ4_decompress_safe_usingDict+0x5b>
  a4c293:	49                   	dec    %ecx
  a4c294:	89 ff                	mov    %edi,%edi
  a4c296:	31 c9                	xor    %ecx,%ecx
  a4c298:	49                   	dec    %ecx
  a4c299:	29 df                	sub    %ebx,%edi
  a4c29b:	0f 1f 44 00 00       	nopl   0x0(%eax,%eax,1)
  a4c2a0:	0f b6 34 08          	movzbl (%eax,%ecx,1),%esi
  a4c2a4:	40                   	inc    %eax
  a4c2a5:	88 34 0b             	mov    %dh,(%ebx,%ecx,1)
  a4c2a8:	48                   	dec    %eax
  a4c2a9:	83 c1 01             	add    $0x1,%ecx
  a4c2ac:	49                   	dec    %ecx
  a4c2ad:	39 cf                	cmp    %ecx,%edi
  a4c2af:	75 ef                	jne    a4c2a0 <LZ4_decompress_safe_usingDict+0x560>
  a4c2b1:	e9 e5 fa ff ff       	jmp    a4bd9b <LZ4_decompress_safe_usingDict+0x5b>
  a4c2b6:	44                   	inc    %esp
  a4c2b7:	0f b6 38             	movzbl (%eax),%edi
  a4c2ba:	44                   	inc    %esp
  a4c2bb:	88 3b                	mov    %bh,(%ebx)
  a4c2bd:	44                   	inc    %esp
  a4c2be:	0f b6 78 01          	movzbl 0x1(%eax),%edi
  a4c2c2:	44                   	inc    %esp
  a4c2c3:	88 7b 01             	mov    %bh,0x1(%ebx)
  a4c2c6:	44                   	inc    %esp
  a4c2c7:	0f b6 78 02          	movzbl 0x2(%eax),%edi
  a4c2cb:	44                   	inc    %esp
  a4c2cc:	88 7b 02             	mov    %bh,0x2(%ebx)
  a4c2cf:	44                   	inc    %esp
  a4c2d0:	0f b6 78 03          	movzbl 0x3(%eax),%edi
  a4c2d4:	44                   	inc    %esp
  a4c2d5:	88 7b 03             	mov    %bh,0x3(%ebx)
  a4c2d8:	4c                   	dec    %esp
  a4c2d9:	8d 3d c1 7c 00 00    	lea    0x7cc1,%edi
  a4c2df:	45                   	inc    %ebp
  a4c2e0:	8b 3c b7             	mov    (%edi,%esi,4),%edi
  a4c2e3:	4c                   	dec    %esp
  a4c2e4:	01 f8                	add    %edi,%eax
  a4c2e6:	44                   	inc    %esp
  a4c2e7:	8b 38                	mov    (%eax),%edi
  a4c2e9:	44                   	inc    %esp
  a4c2ea:	89 7b 04             	mov    %edi,0x4(%ebx)
  a4c2ed:	4c                   	dec    %esp
  a4c2ee:	8d 3d cc 7c 00 00    	lea    0x7ccc,%edi
  a4c2f4:	49                   	dec    %ecx
  a4c2f5:	63 34 b7             	arpl   %si,(%edi,%esi,4)
  a4c2f8:	48                   	dec    %eax
  a4c2f9:	29 f0                	sub    %esi,%eax
  a4c2fb:	e9 2b fb ff ff       	jmp    a4be2b <LZ4_decompress_safe_usingDict+0xeb>
  a4c300:	48                   	dec    %eax
  a4c301:	89 df                	mov    %ebx,%edi
  a4c303:	48                   	dec    %eax
  a4c304:	01 cf                	add    %ecx,%edi
  a4c306:	0f 83 03 fb ff ff    	jae    a4be0f <LZ4_decompress_safe_usingDict+0xcf>
  a4c30c:	e9 df fc ff ff       	jmp    a4bff0 <LZ4_decompress_safe_usingDict+0x2b0>
  a4c311:	48                   	dec    %eax
  a4c312:	89 f8                	mov    %edi,%eax
  a4c314:	48                   	dec    %eax
  a4c315:	01 d0                	add    %edx,%eax
  a4c317:	0f 83 17 fc ff ff    	jae    a4bf34 <LZ4_decompress_safe_usingDict+0x1f4>
  a4c31d:	e9 ce fc ff ff       	jmp    a4bff0 <LZ4_decompress_safe_usingDict+0x2b0>
  a4c322:	85 c0                	test   %eax,%eax
  a4c324:	0f 84 e7 fe ff ff    	je     a4c211 <LZ4_decompress_safe_usingDict+0x4d1>
  a4c32a:	48                   	dec    %eax
  a4c32b:	8d 42 fb             	lea    -0x5(%edx),%eax
  a4c32e:	4d                   	dec    %ebp
  a4c32f:	8d 55 f1             	lea    -0xf(%ebp),%edx
  a4c332:	48                   	dec    %eax
  a4c333:	89 44 24 08          	mov    %eax,0x8(%esp)
  a4c337:	4c                   	dec    %esp
  a4c338:	8d 4a f4             	lea    -0xc(%edx),%ecx
  a4c33b:	4d                   	dec    %ebp
  a4c33c:	8d 75 f8             	lea    -0x8(%ebp),%esi
  a4c33f:	4d                   	dec    %ebp
  a4c340:	8d 5d fc             	lea    -0x4(%ebp),%ebx
  a4c343:	4c                   	dec    %esp
  a4c344:	8d 7a f9             	lea    -0x7(%edx),%edi
  a4c347:	0f b6 45 00          	movzbl 0x0(%ebp),%eax
  a4c34b:	48                   	dec    %eax
  a4c34c:	8d 75 01             	lea    0x1(%ebp),%esi
  a4c34f:	89 c7                	mov    %eax,%edi
  a4c351:	c1 e8 04             	shr    $0x4,%eax
  a4c354:	89 c1                	mov    %eax,%ecx
  a4c356:	83 f8 0f             	cmp    $0xf,%eax
  a4c359:	0f 84 d6 01 00 00    	je     a4c535 <LZ4_decompress_safe_usingDict+0x7f5>
  a4c35f:	49                   	dec    %ecx
  a4c360:	8d 1c 0c             	lea    (%esp,%ecx,1),%ebx
  a4c363:	48                   	dec    %eax
  a4c364:	8d 2c 0e             	lea    (%esi,%ecx,1),%ebp
  a4c367:	49                   	dec    %ecx
  a4c368:	39 d9                	cmp    %ebx,%ecx
  a4c36a:	0f 82 29 04 00 00    	jb     a4c799 <LZ4_decompress_safe_usingDict+0xa59>
  a4c370:	4c                   	dec    %esp
  a4c371:	39 f5                	cmp    %esi,%ebp
  a4c373:	0f 87 20 04 00 00    	ja     a4c799 <LZ4_decompress_safe_usingDict+0xa59>
  a4c379:	0f 1f 80 00 00 00 00 	nopl   0x0(%eax)
  a4c380:	48                   	dec    %eax
  a4c381:	8b 06                	mov    (%esi),%eax
  a4c383:	49                   	dec    %ecx
  a4c384:	83 c4 08             	add    $0x8,%esp
  a4c387:	48                   	dec    %eax
  a4c388:	83 c6 08             	add    $0x8,%esi
  a4c38b:	49                   	dec    %ecx
  a4c38c:	89 44 24 f8          	mov    %eax,-0x8(%esp)
  a4c390:	49                   	dec    %ecx
  a4c391:	39 dc                	cmp    %ebx,%esp
  a4c393:	72 eb                	jb     a4c380 <LZ4_decompress_safe_usingDict+0x640>
  a4c395:	0f b7 4d 00          	movzwl 0x0(%ebp),%ecx
  a4c399:	48                   	dec    %eax
  a4c39a:	89 de                	mov    %ebx,%esi
  a4c39c:	48                   	dec    %eax
  a4c39d:	83 c5 02             	add    $0x2,%ebp
  a4c3a0:	48                   	dec    %eax
  a4c3a1:	29 ce                	sub    %ecx,%esi
  a4c3a3:	49                   	dec    %ecx
  a4c3a4:	39 f0                	cmp    %esi,%eax
  a4c3a6:	0f 87 44 fc ff ff    	ja     a4bff0 <LZ4_decompress_safe_usingDict+0x2b0>
  a4c3ac:	41                   	inc    %ecx
  a4c3ad:	89 fc                	mov    %edi,%esp
  a4c3af:	48                   	dec    %eax
  a4c3b0:	89 f8                	mov    %edi,%eax
  a4c3b2:	89 0b                	mov    %ecx,(%ebx)
  a4c3b4:	41                   	inc    %ecx
  a4c3b5:	83 e4 0f             	and    $0xf,%esp
  a4c3b8:	83 e0 0f             	and    $0xf,%eax
  a4c3bb:	41                   	inc    %ecx
  a4c3bc:	80 fc 0f             	cmp    $0xf,%ah
  a4c3bf:	0f 84 4e 02 00 00    	je     a4c613 <LZ4_decompress_safe_usingDict+0x8d3>
  a4c3c5:	48                   	dec    %eax
  a4c3c6:	8d 78 04             	lea    0x4(%eax),%edi
  a4c3c9:	4c                   	dec    %esp
  a4c3ca:	8d 24 3b             	lea    (%ebx,%edi,1),%esp
  a4c3cd:	48                   	dec    %eax
  a4c3ce:	83 f9 07             	cmp    $0x7,%ecx
  a4c3d1:	0f 86 2f 03 00 00    	jbe    a4c706 <LZ4_decompress_safe_usingDict+0x9c6>
  a4c3d7:	48                   	dec    %eax
  a4c3d8:	8b 06                	mov    (%esi),%eax
  a4c3da:	48                   	dec    %eax
  a4c3db:	89 03                	mov    %eax,(%ebx)
  a4c3dd:	48                   	dec    %eax
  a4c3de:	8d 46 08             	lea    0x8(%esi),%eax
  a4c3e1:	4d                   	dec    %ebp
  a4c3e2:	39 e1                	cmp    %esp,%ecx
  a4c3e4:	0f 82 dc 02 00 00    	jb     a4c6c6 <LZ4_decompress_safe_usingDict+0x986>
  a4c3ea:	48                   	dec    %eax
  a4c3eb:	8b 08                	mov    (%eax),%ecx
  a4c3ed:	48                   	dec    %eax
  a4c3ee:	89 4b 08             	mov    %ecx,0x8(%ebx)
  a4c3f1:	48                   	dec    %eax
  a4c3f2:	83 ff 10             	cmp    $0x10,%edi
  a4c3f5:	0f 86 4c ff ff ff    	jbe    a4c347 <LZ4_decompress_safe_usingDict+0x607>
  a4c3fb:	48                   	dec    %eax
  a4c3fc:	83 c0 08             	add    $0x8,%eax
  a4c3ff:	48                   	dec    %eax
  a4c400:	83 c3 10             	add    $0x10,%ebx
  a4c403:	0f 1f 44 00 00       	nopl   0x0(%eax,%eax,1)
  a4c408:	48                   	dec    %eax
  a4c409:	8b 08                	mov    (%eax),%ecx
  a4c40b:	48                   	dec    %eax
  a4c40c:	83 c3 08             	add    $0x8,%ebx
  a4c40f:	48                   	dec    %eax
  a4c410:	83 c0 08             	add    $0x8,%eax
  a4c413:	48                   	dec    %eax
  a4c414:	89 4b f8             	mov    %ecx,-0x8(%ebx)
  a4c417:	49                   	dec    %ecx
  a4c418:	39 dc                	cmp    %ebx,%esp
  a4c41a:	77 ec                	ja     a4c408 <LZ4_decompress_safe_usingDict+0x6c8>
  a4c41c:	e9 26 ff ff ff       	jmp    a4c347 <LZ4_decompress_safe_usingDict+0x607>
  a4c421:	48                   	dec    %eax
  a4c422:	39 da                	cmp    %ebx,%edx
  a4c424:	0f 82 c6 fb ff ff    	jb     a4bff0 <LZ4_decompress_safe_usingDict+0x2b0>
  a4c42a:	4c                   	dec    %esp
  a4c42b:	39 ed                	cmp    %ebp,%ebp
  a4c42d:	0f 85 bd fb ff ff    	jne    a4bff0 <LZ4_decompress_safe_usingDict+0x2b0>
  a4c433:	4c                   	dec    %esp
  a4c434:	89 fa                	mov    %edi,%edx
  a4c436:	e8 85 18 00 00       	call   a4dcc0 <memcpy>
  a4c43b:	89 d8                	mov    %ebx,%eax
  a4c43d:	44                   	inc    %esp
  a4c43e:	29 e0                	sub    %esp,%eax
  a4c440:	e9 b0 fb ff ff       	jmp    a4bff5 <LZ4_decompress_safe_usingDict+0x2b5>
  a4c445:	49                   	dec    %ecx
  a4c446:	8d 57 fb             	lea    -0x5(%edi),%edx
  a4c449:	48                   	dec    %eax
  a4c44a:	39 d3                	cmp    %edx,%ebx
  a4c44c:	0f 87 9e fb ff ff    	ja     a4bff0 <LZ4_decompress_safe_usingDict+0x2b0>
  a4c452:	48                   	dec    %eax
  a4c453:	83 c7 08             	add    $0x8,%edi
  a4c456:	48                   	dec    %eax
  a4c457:	3b 7c 24 28          	cmp    0x28(%esp),%edi
  a4c45b:	0f 82 9f 00 00 00    	jb     a4c500 <LZ4_decompress_safe_usingDict+0x7c0>
  a4c461:	48                   	dec    %eax
  a4c462:	39 fb                	cmp    %edi,%ebx
  a4c464:	0f 86 41 fa ff ff    	jbe    a4beab <LZ4_decompress_safe_usingDict+0x16b>
  a4c46a:	48                   	dec    %eax
  a4c46b:	89 de                	mov    %ebx,%esi
  a4c46d:	31 d2                	xor    %edx,%edx
  a4c46f:	48                   	dec    %eax
  a4c470:	29 fe                	sub    %edi,%esi
  a4c472:	66 0f 1f 44 00 00    	nopw   0x0(%eax,%eax,1)
  a4c478:	0f b6 0c 10          	movzbl (%eax,%edx,1),%ecx
  a4c47c:	88 0c 17             	mov    %cl,(%edi,%edx,1)
  a4c47f:	48                   	dec    %eax
  a4c480:	83 c2 01             	add    $0x1,%edx
  a4c483:	48                   	dec    %eax
  a4c484:	39 d6                	cmp    %edx,%esi
  a4c486:	75 f0                	jne    a4c478 <LZ4_decompress_safe_usingDict+0x738>
  a4c488:	e9 1e fa ff ff       	jmp    a4beab <LZ4_decompress_safe_usingDict+0x16b>
  a4c48d:	0f b6 06             	movzbl (%esi),%eax
  a4c490:	88 07                	mov    %al,(%edi)
  a4c492:	0f b6 46 01          	movzbl 0x1(%esi),%eax
  a4c496:	88 47 01             	mov    %al,0x1(%edi)
  a4c499:	0f b6 46 02          	movzbl 0x2(%esi),%eax
  a4c49d:	88 47 02             	mov    %al,0x2(%edi)
  a4c4a0:	0f b6 46 03          	movzbl 0x3(%esi),%eax
  a4c4a4:	88 47 03             	mov    %al,0x3(%edi)
  a4c4a7:	48                   	dec    %eax
  a4c4a8:	8d 05 f2 7a 00 00    	lea    0x7af2,%eax
  a4c4ae:	42                   	inc    %edx
  a4c4af:	8b 04 80             	mov    (%eax,%eax,4),%eax
  a4c4b2:	48                   	dec    %eax
  a4c4b3:	01 f0                	add    %esi,%eax
  a4c4b5:	8b 30                	mov    (%eax),%esi
  a4c4b7:	89 77 04             	mov    %esi,0x4(%edi)
  a4c4ba:	48                   	dec    %eax
  a4c4bb:	8d 35 ff 7a 00 00    	lea    0x7aff,%esi
  a4c4c1:	4a                   	dec    %edx
  a4c4c2:	63 34 86             	arpl   %si,(%esi,%eax,4)
  a4c4c5:	48                   	dec    %eax
  a4c4c6:	29 f0                	sub    %esi,%eax
  a4c4c8:	e9 4f fb ff ff       	jmp    a4c01c <LZ4_decompress_safe_usingDict+0x2dc>
  a4c4cd:	49                   	dec    %ecx
  a4c4ce:	89 fe                	mov    %edi,%esi
  a4c4d0:	48                   	dec    %eax
  a4c4d1:	89 c2                	mov    %eax,%edx
  a4c4d3:	49                   	dec    %ecx
  a4c4d4:	39 ed                	cmp    %ebp,%ebp
  a4c4d6:	0f 85 14 fb ff ff    	jne    a4bff0 <LZ4_decompress_safe_usingDict+0x2b0>
  a4c4dc:	4c                   	dec    %esp
  a4c4dd:	39 ff                	cmp    %edi,%edi
  a4c4df:	0f 87 0b fb ff ff    	ja     a4bff0 <LZ4_decompress_safe_usingDict+0x2b0>
  a4c4e5:	48                   	dec    %eax
  a4c4e6:	89 df                	mov    %ebx,%edi
  a4c4e8:	e8 d3 17 00 00       	call   a4dcc0 <memcpy>
  a4c4ed:	44                   	inc    %esp
  a4c4ee:	89 f0                	mov    %esi,%eax
  a4c4f0:	44                   	inc    %esp
  a4c4f1:	29 e0                	sub    %esp,%eax
  a4c4f3:	e9 fd fa ff ff       	jmp    a4bff5 <LZ4_decompress_safe_usingDict+0x2b5>
  a4c4f8:	48                   	dec    %eax
  a4c4f9:	89 fb                	mov    %edi,%ebx
  a4c4fb:	e9 ab f9 ff ff       	jmp    a4beab <LZ4_decompress_safe_usingDict+0x16b>
  a4c500:	4c                   	dec    %esp
  a4c501:	8b 44 24 28          	mov    0x28(%esp),%eax
  a4c505:	48                   	dec    %eax
  a4c506:	89 c1                	mov    %eax,%ecx
  a4c508:	48                   	dec    %eax
  a4c509:	89 fa                	mov    %edi,%edx
  a4c50b:	48                   	dec    %eax
  a4c50c:	8b 31                	mov    (%ecx),%esi
  a4c50e:	48                   	dec    %eax
  a4c50f:	83 c2 08             	add    $0x8,%edx
  a4c512:	48                   	dec    %eax
  a4c513:	83 c1 08             	add    $0x8,%ecx
  a4c516:	48                   	dec    %eax
  a4c517:	89 72 f8             	mov    %esi,-0x8(%edx)
  a4c51a:	49                   	dec    %ecx
  a4c51b:	39 d0                	cmp    %edx,%eax
  a4c51d:	77 ec                	ja     a4c50b <LZ4_decompress_safe_usingDict+0x7cb>
  a4c51f:	48                   	dec    %eax
  a4c520:	8b 4c 24 28          	mov    0x28(%esp),%ecx
  a4c524:	48                   	dec    %eax
  a4c525:	89 ca                	mov    %ecx,%edx
  a4c527:	48                   	dec    %eax
  a4c528:	29 fa                	sub    %edi,%edx
  a4c52a:	48                   	dec    %eax
  a4c52b:	89 cf                	mov    %ecx,%edi
  a4c52d:	48                   	dec    %eax
  a4c52e:	01 d0                	add    %edx,%eax
  a4c530:	e9 2c ff ff ff       	jmp    a4c461 <LZ4_decompress_safe_usingDict+0x721>
  a4c535:	b9 0f 00 00 00       	mov    $0xf,%ecx
  a4c53a:	eb 09                	jmp    a4c545 <LZ4_decompress_safe_usingDict+0x805>
  a4c53c:	0f 1f 40 00          	nopl   0x0(%eax)
  a4c540:	80 fb ff             	cmp    $0xff,%bl
  a4c543:	75 0f                	jne    a4c554 <LZ4_decompress_safe_usingDict+0x814>
  a4c545:	0f b6 1e             	movzbl (%esi),%ebx
  a4c548:	48                   	dec    %eax
  a4c549:	83 c6 01             	add    $0x1,%esi
  a4c54c:	48                   	dec    %eax
  a4c54d:	01 d9                	add    %ebx,%ecx
  a4c54f:	4c                   	dec    %esp
  a4c550:	39 d6                	cmp    %edx,%esi
  a4c552:	72 ec                	jb     a4c540 <LZ4_decompress_safe_usingDict+0x800>
  a4c554:	4c                   	dec    %esp
  a4c555:	89 e3                	mov    %esp,%ebx
  a4c557:	48                   	dec    %eax
  a4c558:	01 cb                	add    %ecx,%ebx
  a4c55a:	0f 82 90 fa ff ff    	jb     a4bff0 <LZ4_decompress_safe_usingDict+0x2b0>
  a4c560:	48                   	dec    %eax
  a4c561:	89 f5                	mov    %esi,%ebp
  a4c563:	48                   	dec    %eax
  a4c564:	01 cd                	add    %ecx,%ebp
  a4c566:	0f 83 fb fd ff ff    	jae    a4c367 <LZ4_decompress_safe_usingDict+0x627>
  a4c56c:	e9 7f fa ff ff       	jmp    a4bff0 <LZ4_decompress_safe_usingDict+0x2b0>
  a4c571:	0f 1f 80 00 00 00 00 	nopl   0x0(%eax)
  a4c578:	b9 0f 00 00 00       	mov    $0xf,%ecx
  a4c57d:	eb 06                	jmp    a4c585 <LZ4_decompress_safe_usingDict+0x845>
  a4c57f:	90                   	nop
  a4c580:	80 fb ff             	cmp    $0xff,%bl
  a4c583:	75 0f                	jne    a4c594 <LZ4_decompress_safe_usingDict+0x854>
  a4c585:	0f b6 1e             	movzbl (%esi),%ebx
  a4c588:	48                   	dec    %eax
  a4c589:	83 c6 01             	add    $0x1,%esi
  a4c58c:	48                   	dec    %eax
  a4c58d:	01 d9                	add    %ebx,%ecx
  a4c58f:	4c                   	dec    %esp
  a4c590:	39 d6                	cmp    %edx,%esi
  a4c592:	72 ec                	jb     a4c580 <LZ4_decompress_safe_usingDict+0x840>
  a4c594:	4c                   	dec    %esp
  a4c595:	89 e3                	mov    %esp,%ebx
  a4c597:	48                   	dec    %eax
  a4c598:	01 cb                	add    %ecx,%ebx
  a4c59a:	0f 82 50 fa ff ff    	jb     a4bff0 <LZ4_decompress_safe_usingDict+0x2b0>
  a4c5a0:	48                   	dec    %eax
  a4c5a1:	89 f5                	mov    %esi,%ebp
  a4c5a3:	48                   	dec    %eax
  a4c5a4:	01 cd                	add    %ecx,%ebp
  a4c5a6:	0f 83 ab fb ff ff    	jae    a4c157 <LZ4_decompress_safe_usingDict+0x417>
  a4c5ac:	e9 3f fa ff ff       	jmp    a4bff0 <LZ4_decompress_safe_usingDict+0x2b0>
  a4c5b1:	48                   	dec    %eax
  a4c5b2:	89 c6                	mov    %eax,%esi
  a4c5b4:	48                   	dec    %eax
  a4c5b5:	89 d9                	mov    %ebx,%ecx
  a4c5b7:	66 0f 1f 84 00 00 00 	nopw   0x0(%eax,%eax,1)
  a4c5be:	00 00 
  a4c5c0:	4c                   	dec    %esp
  a4c5c1:	8b 3e                	mov    (%esi),%edi
  a4c5c3:	48                   	dec    %eax
  a4c5c4:	83 c1 08             	add    $0x8,%ecx
  a4c5c7:	48                   	dec    %eax
  a4c5c8:	83 c6 08             	add    $0x8,%esi
  a4c5cb:	4c                   	dec    %esp
  a4c5cc:	89 79 f8             	mov    %edi,-0x8(%ecx)
  a4c5cf:	49                   	dec    %ecx
  a4c5d0:	39 ce                	cmp    %ecx,%esi
  a4c5d2:	77 ec                	ja     a4c5c0 <LZ4_decompress_safe_usingDict+0x880>
  a4c5d4:	4c                   	dec    %esp
  a4c5d5:	89 f1                	mov    %esi,%ecx
  a4c5d7:	48                   	dec    %eax
  a4c5d8:	29 d9                	sub    %ebx,%ecx
  a4c5da:	4c                   	dec    %esp
  a4c5db:	89 f3                	mov    %esi,%ebx
  a4c5dd:	48                   	dec    %eax
  a4c5de:	01 c8                	add    %ecx,%eax
  a4c5e0:	e9 a5 fc ff ff       	jmp    a4c28a <LZ4_decompress_safe_usingDict+0x54a>
  a4c5e5:	b8 0f 00 00 00       	mov    $0xf,%eax
  a4c5ea:	eb 15                	jmp    a4c601 <LZ4_decompress_safe_usingDict+0x8c1>
  a4c5ec:	0f 1f 40 00          	nopl   0x0(%eax)
  a4c5f0:	44                   	inc    %esp
  a4c5f1:	0f b6 e7             	movzbl %bh,%esp
  a4c5f4:	4c                   	dec    %esp
  a4c5f5:	01 e0                	add    %esp,%eax
  a4c5f7:	40                   	inc    %eax
  a4c5f8:	80 ff ff             	cmp    $0xff,%bh
  a4c5fb:	0f 85 5f 01 00 00    	jne    a4c760 <LZ4_decompress_safe_usingDict+0xa20>
  a4c601:	48                   	dec    %eax
  a4c602:	83 c5 01             	add    $0x1,%ebp
  a4c605:	0f b6 7d ff          	movzbl -0x1(%ebp),%edi
  a4c609:	4c                   	dec    %esp
  a4c60a:	39 dd                	cmp    %ebx,%ebp
  a4c60c:	75 e2                	jne    a4c5f0 <LZ4_decompress_safe_usingDict+0x8b0>
  a4c60e:	e9 dd f9 ff ff       	jmp    a4bff0 <LZ4_decompress_safe_usingDict+0x2b0>
  a4c613:	b8 0f 00 00 00       	mov    $0xf,%eax
  a4c618:	eb 17                	jmp    a4c631 <LZ4_decompress_safe_usingDict+0x8f1>
  a4c61a:	66 0f 1f 44 00 00    	nopw   0x0(%eax,%eax,1)
  a4c620:	44                   	inc    %esp
  a4c621:	0f b6 e7             	movzbl %bh,%esp
  a4c624:	4c                   	dec    %esp
  a4c625:	01 e0                	add    %esp,%eax
  a4c627:	40                   	inc    %eax
  a4c628:	80 ff ff             	cmp    $0xff,%bh
  a4c62b:	0f 85 14 01 00 00    	jne    a4c745 <LZ4_decompress_safe_usingDict+0xa05>
  a4c631:	48                   	dec    %eax
  a4c632:	83 c5 01             	add    $0x1,%ebp
  a4c635:	0f b6 7d ff          	movzbl -0x1(%ebp),%edi
  a4c639:	49                   	dec    %ecx
  a4c63a:	39 eb                	cmp    %ebp,%ebx
  a4c63c:	75 e2                	jne    a4c620 <LZ4_decompress_safe_usingDict+0x8e0>
  a4c63e:	e9 ad f9 ff ff       	jmp    a4bff0 <LZ4_decompress_safe_usingDict+0x2b0>
  a4c643:	0f b6 06             	movzbl (%esi),%eax
  a4c646:	88 03                	mov    %al,(%ebx)
  a4c648:	0f b6 46 01          	movzbl 0x1(%esi),%eax
  a4c64c:	88 43 01             	mov    %al,0x1(%ebx)
  a4c64f:	0f b6 46 02          	movzbl 0x2(%esi),%eax
  a4c653:	88 43 02             	mov    %al,0x2(%ebx)
  a4c656:	0f b6 46 03          	movzbl 0x3(%esi),%eax
  a4c65a:	88 43 03             	mov    %al,0x3(%ebx)
  a4c65d:	48                   	dec    %eax
  a4c65e:	8d 05 3c 79 00 00    	lea    0x793c,%eax
  a4c664:	8b 04 88             	mov    (%eax,%ecx,4),%eax
  a4c667:	48                   	dec    %eax
  a4c668:	01 f0                	add    %esi,%eax
  a4c66a:	8b 30                	mov    (%eax),%esi
  a4c66c:	89 73 04             	mov    %esi,0x4(%ebx)
  a4c66f:	48                   	dec    %eax
  a4c670:	8d 35 4a 79 00 00    	lea    0x794a,%esi
  a4c676:	48                   	dec    %eax
  a4c677:	63 0c 8e             	arpl   %cx,(%esi,%ecx,4)
  a4c67a:	48                   	dec    %eax
  a4c67b:	29 c8                	sub    %ecx,%eax
  a4c67d:	e9 4f fb ff ff       	jmp    a4c1d1 <LZ4_decompress_safe_usingDict+0x491>
  a4c682:	4c                   	dec    %esp
  a4c683:	3b 64 24 08          	cmp    0x8(%esp),%esp
  a4c687:	0f 87 63 f9 ff ff    	ja     a4bff0 <LZ4_decompress_safe_usingDict+0x2b0>
  a4c68d:	48                   	dec    %eax
  a4c68e:	83 c3 08             	add    $0x8,%ebx
  a4c691:	4c                   	dec    %esp
  a4c692:	39 fb                	cmp    %edi,%ebx
  a4c694:	0f 82 41 01 00 00    	jb     a4c7db <LZ4_decompress_safe_usingDict+0xa9b>
  a4c69a:	49                   	dec    %ecx
  a4c69b:	39 dc                	cmp    %ebx,%esp
  a4c69d:	0f 86 94 fa ff ff    	jbe    a4c137 <LZ4_decompress_safe_usingDict+0x3f7>
  a4c6a3:	4c                   	dec    %esp
  a4c6a4:	89 e7                	mov    %esp,%edi
  a4c6a6:	31 c9                	xor    %ecx,%ecx
  a4c6a8:	48                   	dec    %eax
  a4c6a9:	29 df                	sub    %ebx,%edi
  a4c6ab:	0f 1f 44 00 00       	nopl   0x0(%eax,%eax,1)
  a4c6b0:	0f b6 34 08          	movzbl (%eax,%ecx,1),%esi
  a4c6b4:	40                   	inc    %eax
  a4c6b5:	88 34 0b             	mov    %dh,(%ebx,%ecx,1)
  a4c6b8:	48                   	dec    %eax
  a4c6b9:	83 c1 01             	add    $0x1,%ecx
  a4c6bc:	48                   	dec    %eax
  a4c6bd:	39 cf                	cmp    %ecx,%edi
  a4c6bf:	75 ef                	jne    a4c6b0 <LZ4_decompress_safe_usingDict+0x970>
  a4c6c1:	e9 71 fa ff ff       	jmp    a4c137 <LZ4_decompress_safe_usingDict+0x3f7>
  a4c6c6:	4c                   	dec    %esp
  a4c6c7:	3b 64 24 08          	cmp    0x8(%esp),%esp
  a4c6cb:	0f 87 1f f9 ff ff    	ja     a4bff0 <LZ4_decompress_safe_usingDict+0x2b0>
  a4c6d1:	48                   	dec    %eax
  a4c6d2:	83 c3 08             	add    $0x8,%ebx
  a4c6d5:	4c                   	dec    %esp
  a4c6d6:	39 fb                	cmp    %edi,%ebx
  a4c6d8:	0f 82 d2 00 00 00    	jb     a4c7b0 <LZ4_decompress_safe_usingDict+0xa70>
  a4c6de:	49                   	dec    %ecx
  a4c6df:	39 dc                	cmp    %ebx,%esp
  a4c6e1:	0f 86 60 fc ff ff    	jbe    a4c347 <LZ4_decompress_safe_usingDict+0x607>
  a4c6e7:	4c                   	dec    %esp
  a4c6e8:	89 e7                	mov    %esp,%edi
  a4c6ea:	31 c9                	xor    %ecx,%ecx
  a4c6ec:	48                   	dec    %eax
  a4c6ed:	29 df                	sub    %ebx,%edi
  a4c6ef:	90                   	nop
  a4c6f0:	0f b6 34 08          	movzbl (%eax,%ecx,1),%esi
  a4c6f4:	40                   	inc    %eax
  a4c6f5:	88 34 0b             	mov    %dh,(%ebx,%ecx,1)
  a4c6f8:	48                   	dec    %eax
  a4c6f9:	83 c1 01             	add    $0x1,%ecx
  a4c6fc:	48                   	dec    %eax
  a4c6fd:	39 cf                	cmp    %ecx,%edi
  a4c6ff:	75 ef                	jne    a4c6f0 <LZ4_decompress_safe_usingDict+0x9b0>
  a4c701:	e9 41 fc ff ff       	jmp    a4c347 <LZ4_decompress_safe_usingDict+0x607>
  a4c706:	0f b6 06             	movzbl (%esi),%eax
  a4c709:	88 03                	mov    %al,(%ebx)
  a4c70b:	0f b6 46 01          	movzbl 0x1(%esi),%eax
  a4c70f:	88 43 01             	mov    %al,0x1(%ebx)
  a4c712:	0f b6 46 02          	movzbl 0x2(%esi),%eax
  a4c716:	88 43 02             	mov    %al,0x2(%ebx)
  a4c719:	0f b6 46 03          	movzbl 0x3(%esi),%eax
  a4c71d:	88 43 03             	mov    %al,0x3(%ebx)
  a4c720:	48                   	dec    %eax
  a4c721:	8d 05 79 78 00 00    	lea    0x7879,%eax
  a4c727:	8b 04 88             	mov    (%eax,%ecx,4),%eax
  a4c72a:	48                   	dec    %eax
  a4c72b:	01 f0                	add    %esi,%eax
  a4c72d:	8b 30                	mov    (%eax),%esi
  a4c72f:	89 73 04             	mov    %esi,0x4(%ebx)
  a4c732:	48                   	dec    %eax
  a4c733:	8d 35 87 78 00 00    	lea    0x7887,%esi
  a4c739:	48                   	dec    %eax
  a4c73a:	63 0c 8e             	arpl   %cx,(%esi,%ecx,4)
  a4c73d:	48                   	dec    %eax
  a4c73e:	29 c8                	sub    %ecx,%eax
  a4c740:	e9 9c fc ff ff       	jmp    a4c3e1 <LZ4_decompress_safe_usingDict+0x6a1>
  a4c745:	48                   	dec    %eax
  a4c746:	89 df                	mov    %ebx,%edi
  a4c748:	48                   	dec    %eax
  a4c749:	01 c7                	add    %eax,%edi
  a4c74b:	0f 83 74 fc ff ff    	jae    a4c3c5 <LZ4_decompress_safe_usingDict+0x685>
  a4c751:	e9 9a f8 ff ff       	jmp    a4bff0 <LZ4_decompress_safe_usingDict+0x2b0>
  a4c756:	66 2e 0f 1f 84 00 00 	nopw   %cs:0x0(%eax,%eax,1)
  a4c75d:	00 00 00 
  a4c760:	48                   	dec    %eax
  a4c761:	89 df                	mov    %ebx,%edi
  a4c763:	48                   	dec    %eax
  a4c764:	01 c7                	add    %eax,%edi
  a4c766:	0f 83 49 fa ff ff    	jae    a4c1b5 <LZ4_decompress_safe_usingDict+0x475>
  a4c76c:	e9 7f f8 ff ff       	jmp    a4bff0 <LZ4_decompress_safe_usingDict+0x2b0>
  a4c771:	48                   	dec    %eax
  a4c772:	39 d3                	cmp    %edx,%ebx
  a4c774:	0f 87 76 f8 ff ff    	ja     a4bff0 <LZ4_decompress_safe_usingDict+0x2b0>
  a4c77a:	4c                   	dec    %esp
  a4c77b:	39 ed                	cmp    %ebp,%ebp
  a4c77d:	0f 85 6d f8 ff ff    	jne    a4bff0 <LZ4_decompress_safe_usingDict+0x2b0>
  a4c783:	48                   	dec    %eax
  a4c784:	89 ca                	mov    %ecx,%edx
  a4c786:	4c                   	dec    %esp
  a4c787:	89 e7                	mov    %esp,%edi
  a4c789:	e8 32 15 00 00       	call   a4dcc0 <memcpy>
  a4c78e:	89 d8                	mov    %ebx,%eax
  a4c790:	2b 44 24 10          	sub    0x10(%esp),%eax
  a4c794:	e9 5c f8 ff ff       	jmp    a4bff5 <LZ4_decompress_safe_usingDict+0x2b5>
  a4c799:	49                   	dec    %ecx
  a4c79a:	39 ed                	cmp    %ebp,%ebp
  a4c79c:	0f 85 4e f8 ff ff    	jne    a4bff0 <LZ4_decompress_safe_usingDict+0x2b0>
  a4c7a2:	48                   	dec    %eax
  a4c7a3:	39 d3                	cmp    %edx,%ebx
  a4c7a5:	76 dc                	jbe    a4c783 <LZ4_decompress_safe_usingDict+0xa43>
  a4c7a7:	e9 44 f8 ff ff       	jmp    a4bff0 <LZ4_decompress_safe_usingDict+0x2b0>
  a4c7ac:	0f 1f 40 00          	nopl   0x0(%eax)
  a4c7b0:	48                   	dec    %eax
  a4c7b1:	89 c6                	mov    %eax,%esi
  a4c7b3:	48                   	dec    %eax
  a4c7b4:	89 d9                	mov    %ebx,%ecx
  a4c7b6:	48                   	dec    %eax
  a4c7b7:	8b 3e                	mov    (%esi),%edi
  a4c7b9:	48                   	dec    %eax
  a4c7ba:	83 c1 08             	add    $0x8,%ecx
  a4c7bd:	48                   	dec    %eax
  a4c7be:	83 c6 08             	add    $0x8,%esi
  a4c7c1:	48                   	dec    %eax
  a4c7c2:	89 79 f8             	mov    %edi,-0x8(%ecx)
  a4c7c5:	49                   	dec    %ecx
  a4c7c6:	39 cf                	cmp    %ecx,%edi
  a4c7c8:	77 ec                	ja     a4c7b6 <LZ4_decompress_safe_usingDict+0xa76>
  a4c7ca:	4c                   	dec    %esp
  a4c7cb:	89 f9                	mov    %edi,%ecx
  a4c7cd:	48                   	dec    %eax
  a4c7ce:	29 d9                	sub    %ebx,%ecx
  a4c7d0:	4c                   	dec    %esp
  a4c7d1:	89 fb                	mov    %edi,%ebx
  a4c7d3:	48                   	dec    %eax
  a4c7d4:	01 c8                	add    %ecx,%eax
  a4c7d6:	e9 03 ff ff ff       	jmp    a4c6de <LZ4_decompress_safe_usingDict+0x99e>
  a4c7db:	48                   	dec    %eax
  a4c7dc:	89 c6                	mov    %eax,%esi
  a4c7de:	48                   	dec    %eax
  a4c7df:	89 d9                	mov    %ebx,%ecx
  a4c7e1:	48                   	dec    %eax
  a4c7e2:	8b 3e                	mov    (%esi),%edi
  a4c7e4:	48                   	dec    %eax
  a4c7e5:	83 c1 08             	add    $0x8,%ecx
  a4c7e8:	48                   	dec    %eax
  a4c7e9:	83 c6 08             	add    $0x8,%esi
  a4c7ec:	48                   	dec    %eax
  a4c7ed:	89 79 f8             	mov    %edi,-0x8(%ecx)
  a4c7f0:	49                   	dec    %ecx
  a4c7f1:	39 cf                	cmp    %ecx,%edi
  a4c7f3:	77 ec                	ja     a4c7e1 <LZ4_decompress_safe_usingDict+0xaa1>
  a4c7f5:	4c                   	dec    %esp
  a4c7f6:	89 f9                	mov    %edi,%ecx
  a4c7f8:	48                   	dec    %eax
  a4c7f9:	29 d9                	sub    %ebx,%ecx
  a4c7fb:	4c                   	dec    %esp
  a4c7fc:	89 fb                	mov    %edi,%ebx
  a4c7fe:	48                   	dec    %eax
  a4c7ff:	01 c8                	add    %ecx,%eax
  a4c801:	e9 94 fe ff ff       	jmp    a4c69a <LZ4_decompress_safe_usingDict+0x95a>
  a4c806:	66 2e 0f 1f 84 00 00 	nopw   %cs:0x0(%eax,%eax,1)
  a4c80d:	00 00 00 

0000000000a4c810 <LZ4_decompress_fast_usingDict>:
  a4c810:	f3 0f 1e fa          	endbr64 
  a4c814:	41                   	inc    %ecx
  a4c815:	57                   	push   %edi
  a4c816:	44                   	inc    %esp
  a4c817:	89 c0                	mov    %eax,%eax
  a4c819:	41                   	inc    %ecx
  a4c81a:	56                   	push   %esi
  a4c81b:	41                   	inc    %ecx
  a4c81c:	55                   	push   %ebp
  a4c81d:	49                   	dec    %ecx
  a4c81e:	89 f5                	mov    %esi,%ebp
  a4c820:	48                   	dec    %eax
  a4c821:	63 f2                	arpl   %si,%dx
  a4c823:	41                   	inc    %ecx
  a4c824:	54                   	push   %esp
  a4c825:	55                   	push   %ebp
  a4c826:	53                   	push   %ebx
  a4c827:	48                   	dec    %eax
  a4c828:	83 ec 28             	sub    $0x28,%esp
  a4c82b:	44                   	inc    %esp
  a4c82c:	0f b6 07             	movzbl (%edi),%eax
  a4c82f:	48                   	dec    %eax
  a4c830:	89 7c 24 08          	mov    %edi,0x8(%esp)
  a4c834:	85 c0                	test   %eax,%eax
  a4c836:	0f 85 3e 02 00 00    	jne    a4ca7a <LZ4_decompress_fast_usingDict+0x26a>
  a4c83c:	4d                   	dec    %ebp
  a4c83d:	8d 5c 35 00          	lea    0x0(%ebp,%esi,1),%ebx
  a4c841:	85 d2                	test   %edx,%edx
  a4c843:	0f 84 2a 04 00 00    	je     a4cc73 <LZ4_decompress_fast_usingDict+0x463>
  a4c849:	49                   	dec    %ecx
  a4c84a:	89 fc                	mov    %edi,%esp
  a4c84c:	49                   	dec    %ecx
  a4c84d:	8d 73 f8             	lea    -0x8(%ebx),%esi
  a4c850:	49                   	dec    %ecx
  a4c851:	8d 7b f4             	lea    -0xc(%ebx),%edi
  a4c854:	4c                   	dec    %esp
  a4c855:	8d 3d 65 77 00 00    	lea    0x7765,%edi
  a4c85b:	4c                   	dec    %esp
  a4c85c:	8d 35 3e 77 00 00    	lea    0x773e,%esi
  a4c862:	4d                   	dec    %ebp
  a4c863:	8d 53 f9             	lea    -0x7(%ebx),%edx
  a4c866:	49                   	dec    %ecx
  a4c867:	8d 6b fb             	lea    -0x5(%ebx),%ebp
  a4c86a:	66 0f 1f 44 00 00    	nopw   0x0(%eax,%eax,1)
  a4c870:	41                   	inc    %ecx
  a4c871:	0f b6 c0             	movzbl %al,%eax
  a4c874:	49                   	dec    %ecx
  a4c875:	83 c4 01             	add    $0x1,%esp
  a4c878:	c1 e8 04             	shr    $0x4,%eax
  a4c87b:	89 c3                	mov    %eax,%ebx
  a4c87d:	83 f8 0f             	cmp    $0xf,%eax
  a4c880:	0f 84 ca 00 00 00    	je     a4c950 <LZ4_decompress_fast_usingDict+0x140>
  a4c886:	49                   	dec    %ecx
  a4c887:	8d 54 1d 00          	lea    0x0(%ebp,%ebx,1),%edx
  a4c88b:	48                   	dec    %eax
  a4c88c:	39 f2                	cmp    %esi,%edx
  a4c88e:	0f 87 e3 00 00 00    	ja     a4c977 <LZ4_decompress_fast_usingDict+0x167>
  a4c894:	4c                   	dec    %esp
  a4c895:	89 e0                	mov    %esp,%eax
  a4c897:	66 0f 1f 84 00 00 00 	nopw   0x0(%eax,%eax,1)
  a4c89e:	00 00 
  a4c8a0:	48                   	dec    %eax
  a4c8a1:	8b 08                	mov    (%eax),%ecx
  a4c8a3:	49                   	dec    %ecx
  a4c8a4:	83 c5 08             	add    $0x8,%ebp
  a4c8a7:	48                   	dec    %eax
  a4c8a8:	83 c0 08             	add    $0x8,%eax
  a4c8ab:	49                   	dec    %ecx
  a4c8ac:	89 4d f8             	mov    %ecx,-0x8(%ebp)
  a4c8af:	4c                   	dec    %esp
  a4c8b0:	39 ea                	cmp    %ebp,%edx
  a4c8b2:	77 ec                	ja     a4c8a0 <LZ4_decompress_fast_usingDict+0x90>
  a4c8b4:	49                   	dec    %ecx
  a4c8b5:	01 dc                	add    %ebx,%esp
  a4c8b7:	44                   	inc    %esp
  a4c8b8:	89 c1                	mov    %eax,%ecx
  a4c8ba:	48                   	dec    %eax
  a4c8bb:	89 d0                	mov    %edx,%eax
  a4c8bd:	41                   	inc    %ecx
  a4c8be:	83 e0 0f             	and    $0xf,%eax
  a4c8c1:	45                   	inc    %ebp
  a4c8c2:	0f b7 0c 24          	movzwl (%esp),%ecx
  a4c8c6:	83 e1 0f             	and    $0xf,%ecx
  a4c8c9:	49                   	dec    %ecx
  a4c8ca:	83 c4 02             	add    $0x2,%esp
  a4c8cd:	44                   	inc    %esp
  a4c8ce:	89 0a                	mov    %ecx,(%edx)
  a4c8d0:	4c                   	dec    %esp
  a4c8d1:	29 c8                	sub    %ecx,%eax
  a4c8d3:	80 f9 0f             	cmp    $0xf,%cl
  a4c8d6:	0f 84 cc 00 00 00    	je     a4c9a8 <LZ4_decompress_fast_usingDict+0x198>
  a4c8dc:	49                   	dec    %ecx
  a4c8dd:	83 c0 04             	add    $0x4,%eax
  a4c8e0:	4e                   	dec    %esi
  a4c8e1:	8d 2c 02             	lea    (%edx,%eax,1),%ebp
  a4c8e4:	49                   	dec    %ecx
  a4c8e5:	83 f9 07             	cmp    $0x7,%ecx
  a4c8e8:	0f 86 ea 00 00 00    	jbe    a4c9d8 <LZ4_decompress_fast_usingDict+0x1c8>
  a4c8ee:	48                   	dec    %eax
  a4c8ef:	8b 08                	mov    (%eax),%ecx
  a4c8f1:	48                   	dec    %eax
  a4c8f2:	83 c0 08             	add    $0x8,%eax
  a4c8f5:	48                   	dec    %eax
  a4c8f6:	89 0a                	mov    %ecx,(%edx)
  a4c8f8:	49                   	dec    %ecx
  a4c8f9:	39 fd                	cmp    %edi,%ebp
  a4c8fb:	0f 87 0f 01 00 00    	ja     a4ca10 <LZ4_decompress_fast_usingDict+0x200>
  a4c901:	48                   	dec    %eax
  a4c902:	8b 08                	mov    (%eax),%ecx
  a4c904:	48                   	dec    %eax
  a4c905:	89 4a 08             	mov    %ecx,0x8(%edx)
  a4c908:	49                   	dec    %ecx
  a4c909:	83 f8 10             	cmp    $0x10,%eax
  a4c90c:	77 12                	ja     a4c920 <LZ4_decompress_fast_usingDict+0x110>
  a4c90e:	45                   	inc    %ebp
  a4c90f:	0f b6 04 24          	movzbl (%esp),%eax
  a4c913:	e9 58 ff ff ff       	jmp    a4c870 <LZ4_decompress_fast_usingDict+0x60>
  a4c918:	0f 1f 84 00 00 00 00 	nopl   0x0(%eax,%eax,1)
  a4c91f:	00 
  a4c920:	48                   	dec    %eax
  a4c921:	83 c0 08             	add    $0x8,%eax
  a4c924:	48                   	dec    %eax
  a4c925:	83 c2 10             	add    $0x10,%edx
  a4c928:	0f 1f 84 00 00 00 00 	nopl   0x0(%eax,%eax,1)
  a4c92f:	00 
  a4c930:	48                   	dec    %eax
  a4c931:	8b 08                	mov    (%eax),%ecx
  a4c933:	48                   	dec    %eax
  a4c934:	83 c2 08             	add    $0x8,%edx
  a4c937:	48                   	dec    %eax
  a4c938:	83 c0 08             	add    $0x8,%eax
  a4c93b:	48                   	dec    %eax
  a4c93c:	89 4a f8             	mov    %ecx,-0x8(%edx)
  a4c93f:	49                   	dec    %ecx
  a4c940:	39 d5                	cmp    %edx,%ebp
  a4c942:	77 ec                	ja     a4c930 <LZ4_decompress_fast_usingDict+0x120>
  a4c944:	eb c8                	jmp    a4c90e <LZ4_decompress_fast_usingDict+0xfe>
  a4c946:	66 2e 0f 1f 84 00 00 	nopw   %cs:0x0(%eax,%eax,1)
  a4c94d:	00 00 00 
  a4c950:	bb 0f 00 00 00       	mov    $0xf,%ebx
  a4c955:	0f 1f 00             	nopl   (%eax)
  a4c958:	41                   	inc    %ecx
  a4c959:	0f b6 14 24          	movzbl (%esp),%edx
  a4c95d:	49                   	dec    %ecx
  a4c95e:	83 c4 01             	add    $0x1,%esp
  a4c961:	48                   	dec    %eax
  a4c962:	01 d3                	add    %edx,%ebx
  a4c964:	80 fa ff             	cmp    $0xff,%dl
  a4c967:	74 ef                	je     a4c958 <LZ4_decompress_fast_usingDict+0x148>
  a4c969:	49                   	dec    %ecx
  a4c96a:	8d 54 1d 00          	lea    0x0(%ebp,%ebx,1),%edx
  a4c96e:	48                   	dec    %eax
  a4c96f:	39 f2                	cmp    %esi,%edx
  a4c971:	0f 86 1d ff ff ff    	jbe    a4c894 <LZ4_decompress_fast_usingDict+0x84>
  a4c977:	49                   	dec    %ecx
  a4c978:	39 d3                	cmp    %edx,%ebx
  a4c97a:	0f 85 01 03 00 00    	jne    a4cc81 <LZ4_decompress_fast_usingDict+0x471>
  a4c980:	48                   	dec    %eax
  a4c981:	89 da                	mov    %ebx,%edx
  a4c983:	4c                   	dec    %esp
  a4c984:	89 e6                	mov    %esp,%esi
  a4c986:	4c                   	dec    %esp
  a4c987:	89 ef                	mov    %ebp,%edi
  a4c989:	e8 32 13 00 00       	call   a4dcc0 <memcpy>
  a4c98e:	49                   	dec    %ecx
  a4c98f:	8d 04 1c             	lea    (%esp,%ebx,1),%eax
  a4c992:	2b 44 24 08          	sub    0x8(%esp),%eax
  a4c996:	48                   	dec    %eax
  a4c997:	83 c4 28             	add    $0x28,%esp
  a4c99a:	5b                   	pop    %ebx
  a4c99b:	5d                   	pop    %ebp
  a4c99c:	41                   	inc    %ecx
  a4c99d:	5c                   	pop    %esp
  a4c99e:	41                   	inc    %ecx
  a4c99f:	5d                   	pop    %ebp
  a4c9a0:	41                   	inc    %ecx
  a4c9a1:	5e                   	pop    %esi
  a4c9a2:	41                   	inc    %ecx
  a4c9a3:	5f                   	pop    %edi
  a4c9a4:	c3                   	ret    
  a4c9a5:	0f 1f 00             	nopl   (%eax)
  a4c9a8:	41                   	inc    %ecx
  a4c9a9:	b8 0f 00 00 00       	mov    $0xf,%eax
  a4c9ae:	66 90                	xchg   %ax,%ax
  a4c9b0:	41                   	inc    %ecx
  a4c9b1:	0f b6 1c 24          	movzbl (%esp),%ebx
  a4c9b5:	49                   	dec    %ecx
  a4c9b6:	83 c4 01             	add    $0x1,%esp
  a4c9b9:	49                   	dec    %ecx
  a4c9ba:	01 d8                	add    %ebx,%eax
  a4c9bc:	80 fb ff             	cmp    $0xff,%bl
  a4c9bf:	74 ef                	je     a4c9b0 <LZ4_decompress_fast_usingDict+0x1a0>
  a4c9c1:	49                   	dec    %ecx
  a4c9c2:	83 c0 04             	add    $0x4,%eax
  a4c9c5:	4e                   	dec    %esi
  a4c9c6:	8d 2c 02             	lea    (%edx,%eax,1),%ebp
  a4c9c9:	49                   	dec    %ecx
  a4c9ca:	83 f9 07             	cmp    $0x7,%ecx
  a4c9cd:	0f 87 1b ff ff ff    	ja     a4c8ee <LZ4_decompress_fast_usingDict+0xde>
  a4c9d3:	0f 1f 44 00 00       	nopl   0x0(%eax,%eax,1)
  a4c9d8:	0f b6 08             	movzbl (%eax),%ecx
  a4c9db:	88 0a                	mov    %cl,(%edx)
  a4c9dd:	0f b6 48 01          	movzbl 0x1(%eax),%ecx
  a4c9e1:	88 4a 01             	mov    %cl,0x1(%edx)
  a4c9e4:	0f b6 48 02          	movzbl 0x2(%eax),%ecx
  a4c9e8:	88 4a 02             	mov    %cl,0x2(%edx)
  a4c9eb:	0f b6 48 03          	movzbl 0x3(%eax),%ecx
  a4c9ef:	88 4a 03             	mov    %cl,0x3(%edx)
  a4c9f2:	43                   	inc    %ebx
  a4c9f3:	8b 0c 8e             	mov    (%esi,%ecx,4),%ecx
  a4c9f6:	48                   	dec    %eax
  a4c9f7:	01 c8                	add    %ecx,%eax
  a4c9f9:	8b 08                	mov    (%eax),%ecx
  a4c9fb:	89 4a 04             	mov    %ecx,0x4(%edx)
  a4c9fe:	4b                   	dec    %ebx
  a4c9ff:	63 0c 8f             	arpl   %cx,(%edi,%ecx,4)
  a4ca02:	48                   	dec    %eax
  a4ca03:	29 c8                	sub    %ecx,%eax
  a4ca05:	49                   	dec    %ecx
  a4ca06:	39 fd                	cmp    %edi,%ebp
  a4ca08:	0f 86 f3 fe ff ff    	jbe    a4c901 <LZ4_decompress_fast_usingDict+0xf1>
  a4ca0e:	66 90                	xchg   %ax,%ax
  a4ca10:	49                   	dec    %ecx
  a4ca11:	39 ed                	cmp    %ebp,%ebp
  a4ca13:	0f 87 68 02 00 00    	ja     a4cc81 <LZ4_decompress_fast_usingDict+0x471>
  a4ca19:	48                   	dec    %eax
  a4ca1a:	83 c2 08             	add    $0x8,%edx
  a4ca1d:	4c                   	dec    %esp
  a4ca1e:	39 d2                	cmp    %edx,%edx
  a4ca20:	72 2d                	jb     a4ca4f <LZ4_decompress_fast_usingDict+0x23f>
  a4ca22:	49                   	dec    %ecx
  a4ca23:	39 d5                	cmp    %edx,%ebp
  a4ca25:	0f 86 e3 fe ff ff    	jbe    a4c90e <LZ4_decompress_fast_usingDict+0xfe>
  a4ca2b:	4d                   	dec    %ebp
  a4ca2c:	89 e9                	mov    %ebp,%ecx
  a4ca2e:	31 c9                	xor    %ecx,%ecx
  a4ca30:	49                   	dec    %ecx
  a4ca31:	29 d1                	sub    %edx,%ecx
  a4ca33:	0f 1f 44 00 00       	nopl   0x0(%eax,%eax,1)
  a4ca38:	44                   	inc    %esp
  a4ca39:	0f b6 04 08          	movzbl (%eax,%ecx,1),%eax
  a4ca3d:	44                   	inc    %esp
  a4ca3e:	88 04 0a             	mov    %al,(%edx,%ecx,1)
  a4ca41:	48                   	dec    %eax
  a4ca42:	83 c1 01             	add    $0x1,%ecx
  a4ca45:	49                   	dec    %ecx
  a4ca46:	39 c9                	cmp    %ecx,%ecx
  a4ca48:	75 ee                	jne    a4ca38 <LZ4_decompress_fast_usingDict+0x228>
  a4ca4a:	e9 bf fe ff ff       	jmp    a4c90e <LZ4_decompress_fast_usingDict+0xfe>
  a4ca4f:	49                   	dec    %ecx
  a4ca50:	89 c0                	mov    %eax,%eax
  a4ca52:	48                   	dec    %eax
  a4ca53:	89 d1                	mov    %edx,%ecx
  a4ca55:	0f 1f 00             	nopl   (%eax)
  a4ca58:	4d                   	dec    %ebp
  a4ca59:	8b 08                	mov    (%eax),%ecx
  a4ca5b:	48                   	dec    %eax
  a4ca5c:	83 c1 08             	add    $0x8,%ecx
  a4ca5f:	49                   	dec    %ecx
  a4ca60:	83 c0 08             	add    $0x8,%eax
  a4ca63:	4c                   	dec    %esp
  a4ca64:	89 49 f8             	mov    %ecx,-0x8(%ecx)
  a4ca67:	49                   	dec    %ecx
  a4ca68:	39 ca                	cmp    %ecx,%edx
  a4ca6a:	77 ec                	ja     a4ca58 <LZ4_decompress_fast_usingDict+0x248>
  a4ca6c:	4c                   	dec    %esp
  a4ca6d:	89 d1                	mov    %edx,%ecx
  a4ca6f:	48                   	dec    %eax
  a4ca70:	29 d1                	sub    %edx,%ecx
  a4ca72:	4c                   	dec    %esp
  a4ca73:	89 d2                	mov    %edx,%edx
  a4ca75:	48                   	dec    %eax
  a4ca76:	01 c8                	add    %ecx,%eax
  a4ca78:	eb a8                	jmp    a4ca22 <LZ4_decompress_fast_usingDict+0x212>
  a4ca7a:	4c                   	dec    %esp
  a4ca7b:	63 d0                	arpl   %dx,%ax
  a4ca7d:	4a                   	dec    %edx
  a4ca7e:	8d 2c 11             	lea    (%ecx,%edx,1),%ebp
  a4ca81:	49                   	dec    %ecx
  a4ca82:	39 ed                	cmp    %ebp,%ebp
  a4ca84:	0f 84 be 02 00 00    	je     a4cd48 <LZ4_decompress_fast_usingDict+0x538>
  a4ca8a:	49                   	dec    %ecx
  a4ca8b:	8d 5c 35 00          	lea    0x0(%ebp,%esi,1),%ebx
  a4ca8f:	85 d2                	test   %edx,%edx
  a4ca91:	0f 84 dc 01 00 00    	je     a4cc73 <LZ4_decompress_fast_usingDict+0x463>
  a4ca97:	48                   	dec    %eax
  a4ca98:	8d 43 f9             	lea    -0x7(%ebx),%eax
  a4ca9b:	48                   	dec    %eax
  a4ca9c:	89 6c 24 10          	mov    %ebp,0x10(%esp)
  a4caa0:	4c                   	dec    %esp
  a4caa1:	8d 63 f8             	lea    -0x8(%ebx),%esp
  a4caa4:	4d                   	dec    %ebp
  a4caa5:	89 ee                	mov    %ebp,%esi
  a4caa7:	48                   	dec    %eax
  a4caa8:	89 44 24 18          	mov    %eax,0x18(%esp)
  a4caac:	4c                   	dec    %esp
  a4caad:	8b 7c 24 08          	mov    0x8(%esp),%edi
  a4cab1:	0f 1f 80 00 00 00 00 	nopl   0x0(%eax)
  a4cab8:	41                   	inc    %ecx
  a4cab9:	0f b6 c0             	movzbl %al,%eax
  a4cabc:	49                   	dec    %ecx
  a4cabd:	83 c7 01             	add    $0x1,%edi
  a4cac0:	c1 e8 04             	shr    $0x4,%eax
  a4cac3:	89 c2                	mov    %eax,%edx
  a4cac5:	83 f8 0f             	cmp    $0xf,%eax
  a4cac8:	0f 84 77 01 00 00    	je     a4cc45 <LZ4_decompress_fast_usingDict+0x435>
  a4cace:	49                   	dec    %ecx
  a4cacf:	8d 3c 16             	lea    (%esi,%edx,1),%edi
  a4cad2:	4c                   	dec    %esp
  a4cad3:	39 e7                	cmp    %esp,%edi
  a4cad5:	0f 87 72 04 00 00    	ja     a4cf4d <LZ4_decompress_fast_usingDict+0x73d>
  a4cadb:	4c                   	dec    %esp
  a4cadc:	89 f8                	mov    %edi,%eax
  a4cade:	66 90                	xchg   %ax,%ax
  a4cae0:	48                   	dec    %eax
  a4cae1:	8b 08                	mov    (%eax),%ecx
  a4cae3:	49                   	dec    %ecx
  a4cae4:	83 c6 08             	add    $0x8,%esi
  a4cae7:	48                   	dec    %eax
  a4cae8:	83 c0 08             	add    $0x8,%eax
  a4caeb:	49                   	dec    %ecx
  a4caec:	89 4e f8             	mov    %ecx,-0x8(%esi)
  a4caef:	4c                   	dec    %esp
  a4caf0:	39 f7                	cmp    %esi,%edi
  a4caf2:	77 ec                	ja     a4cae0 <LZ4_decompress_fast_usingDict+0x2d0>
  a4caf4:	49                   	dec    %ecx
  a4caf5:	01 d7                	add    %edx,%edi
  a4caf7:	44                   	inc    %esp
  a4caf8:	89 c0                	mov    %eax,%eax
  a4cafa:	49                   	dec    %ecx
  a4cafb:	89 fa                	mov    %edi,%edx
  a4cafd:	4c                   	dec    %esp
  a4cafe:	89 c2                	mov    %eax,%edx
  a4cb00:	41                   	inc    %ecx
  a4cb01:	0f b7 37             	movzwl (%edi),%esi
  a4cb04:	83 e0 0f             	and    $0xf,%eax
  a4cb07:	49                   	dec    %ecx
  a4cb08:	83 c7 02             	add    $0x2,%edi
  a4cb0b:	83 e2 0f             	and    $0xf,%edx
  a4cb0e:	89 37                	mov    %esi,(%edi)
  a4cb10:	49                   	dec    %ecx
  a4cb11:	29 f2                	sub    %esi,%edx
  a4cb13:	3c 0f                	cmp    $0xf,%al
  a4cb15:	0f 84 06 01 00 00    	je     a4cc21 <LZ4_decompress_fast_usingDict+0x411>
  a4cb1b:	48                   	dec    %eax
  a4cb1c:	83 c2 04             	add    $0x4,%edx
  a4cb1f:	4c                   	dec    %esp
  a4cb20:	8d 34 17             	lea    (%edi,%edx,1),%esi
  a4cb23:	4d                   	dec    %ebp
  a4cb24:	39 d5                	cmp    %edx,%ebp
  a4cb26:	0f 86 84 00 00 00    	jbe    a4cbb0 <LZ4_decompress_fast_usingDict+0x3a0>
  a4cb2c:	48                   	dec    %eax
  a4cb2d:	8d 43 fb             	lea    -0x5(%ebx),%eax
  a4cb30:	49                   	dec    %ecx
  a4cb31:	39 c6                	cmp    %eax,%esi
  a4cb33:	0f 87 48 01 00 00    	ja     a4cc81 <LZ4_decompress_fast_usingDict+0x471>
  a4cb39:	48                   	dec    %eax
  a4cb3a:	8b 74 24 10          	mov    0x10(%esp),%esi
  a4cb3e:	4c                   	dec    %esp
  a4cb3f:	89 e9                	mov    %ebp,%ecx
  a4cb41:	4c                   	dec    %esp
  a4cb42:	29 d1                	sub    %edx,%ecx
  a4cb44:	48                   	dec    %eax
  a4cb45:	29 ce                	sub    %ecx,%esi
  a4cb47:	48                   	dec    %eax
  a4cb48:	39 ca                	cmp    %ecx,%edx
  a4cb4a:	0f 86 15 01 00 00    	jbe    a4cc65 <LZ4_decompress_fast_usingDict+0x455>
  a4cb50:	48                   	dec    %eax
  a4cb51:	29 ca                	sub    %ecx,%edx
  a4cb53:	48                   	dec    %eax
  a4cb54:	89 0c 24             	mov    %ecx,(%esp)
  a4cb57:	48                   	dec    %eax
  a4cb58:	89 d5                	mov    %edx,%ebp
  a4cb5a:	48                   	dec    %eax
  a4cb5b:	89 ca                	mov    %ecx,%edx
  a4cb5d:	e8 5e 11 00 00       	call   a4dcc0 <memcpy>
  a4cb62:	48                   	dec    %eax
  a4cb63:	8b 0c 24             	mov    (%esp),%ecx
  a4cb66:	48                   	dec    %eax
  a4cb67:	89 c7                	mov    %eax,%edi
  a4cb69:	48                   	dec    %eax
  a4cb6a:	01 cf                	add    %ecx,%edi
  a4cb6c:	48                   	dec    %eax
  a4cb6d:	89 f8                	mov    %edi,%eax
  a4cb6f:	4c                   	dec    %esp
  a4cb70:	29 e8                	sub    %ebp,%eax
  a4cb72:	48                   	dec    %eax
  a4cb73:	39 c5                	cmp    %eax,%ebp
  a4cb75:	0f 86 92 00 00 00    	jbe    a4cc0d <LZ4_decompress_fast_usingDict+0x3fd>
  a4cb7b:	49                   	dec    %ecx
  a4cb7c:	39 fe                	cmp    %edi,%esi
  a4cb7e:	0f 86 c1 03 00 00    	jbe    a4cf45 <LZ4_decompress_fast_usingDict+0x735>
  a4cb84:	31 c0                	xor    %eax,%eax
  a4cb86:	41                   	inc    %ecx
  a4cb87:	0f b6 54 05 00       	movzbl 0x0(%ebp,%eax,1),%edx
  a4cb8c:	88 14 07             	mov    %dl,(%edi,%eax,1)
  a4cb8f:	48                   	dec    %eax
  a4cb90:	83 c0 01             	add    $0x1,%eax
  a4cb93:	48                   	dec    %eax
  a4cb94:	39 c5                	cmp    %eax,%ebp
  a4cb96:	75 ee                	jne    a4cb86 <LZ4_decompress_fast_usingDict+0x376>
  a4cb98:	0f 1f 84 00 00 00 00 	nopl   0x0(%eax,%eax,1)
  a4cb9f:	00 
  a4cba0:	45                   	inc    %ebp
  a4cba1:	0f b6 07             	movzbl (%edi),%eax
  a4cba4:	e9 0f ff ff ff       	jmp    a4cab8 <LZ4_decompress_fast_usingDict+0x2a8>
  a4cba9:	0f 1f 80 00 00 00 00 	nopl   0x0(%eax)
  a4cbb0:	48                   	dec    %eax
  a4cbb1:	83 fe 07             	cmp    $0x7,%esi
  a4cbb4:	0f 86 19 01 00 00    	jbe    a4ccd3 <LZ4_decompress_fast_usingDict+0x4c3>
  a4cbba:	49                   	dec    %ecx
  a4cbbb:	8b 02                	mov    (%edx),%eax
  a4cbbd:	48                   	dec    %eax
  a4cbbe:	89 07                	mov    %eax,(%edi)
  a4cbc0:	49                   	dec    %ecx
  a4cbc1:	8d 42 08             	lea    0x8(%edx),%eax
  a4cbc4:	48                   	dec    %eax
  a4cbc5:	8d 4b f4             	lea    -0xc(%ebx),%ecx
  a4cbc8:	49                   	dec    %ecx
  a4cbc9:	39 ce                	cmp    %ecx,%esi
  a4cbcb:	0f 87 c4 00 00 00    	ja     a4cc95 <LZ4_decompress_fast_usingDict+0x485>
  a4cbd1:	48                   	dec    %eax
  a4cbd2:	8b 08                	mov    (%eax),%ecx
  a4cbd4:	48                   	dec    %eax
  a4cbd5:	89 4f 08             	mov    %ecx,0x8(%edi)
  a4cbd8:	48                   	dec    %eax
  a4cbd9:	83 fa 10             	cmp    $0x10,%edx
  a4cbdc:	76 c2                	jbe    a4cba0 <LZ4_decompress_fast_usingDict+0x390>
  a4cbde:	48                   	dec    %eax
  a4cbdf:	83 c0 08             	add    $0x8,%eax
  a4cbe2:	48                   	dec    %eax
  a4cbe3:	83 c7 10             	add    $0x10,%edi
  a4cbe6:	66 2e 0f 1f 84 00 00 	nopw   %cs:0x0(%eax,%eax,1)
  a4cbed:	00 00 00 
  a4cbf0:	48                   	dec    %eax
  a4cbf1:	8b 10                	mov    (%eax),%edx
  a4cbf3:	48                   	dec    %eax
  a4cbf4:	83 c7 08             	add    $0x8,%edi
  a4cbf7:	48                   	dec    %eax
  a4cbf8:	83 c0 08             	add    $0x8,%eax
  a4cbfb:	48                   	dec    %eax
  a4cbfc:	89 57 f8             	mov    %edx,-0x8(%edi)
  a4cbff:	4c                   	dec    %esp
  a4cc00:	39 f7                	cmp    %esi,%edi
  a4cc02:	72 ec                	jb     a4cbf0 <LZ4_decompress_fast_usingDict+0x3e0>
  a4cc04:	45                   	inc    %ebp
  a4cc05:	0f b6 07             	movzbl (%edi),%eax
  a4cc08:	e9 ab fe ff ff       	jmp    a4cab8 <LZ4_decompress_fast_usingDict+0x2a8>
  a4cc0d:	48                   	dec    %eax
  a4cc0e:	89 ea                	mov    %ebp,%edx
  a4cc10:	4c                   	dec    %esp
  a4cc11:	89 ee                	mov    %ebp,%esi
  a4cc13:	e8 a8 10 00 00       	call   a4dcc0 <memcpy>
  a4cc18:	45                   	inc    %ebp
  a4cc19:	0f b6 07             	movzbl (%edi),%eax
  a4cc1c:	e9 97 fe ff ff       	jmp    a4cab8 <LZ4_decompress_fast_usingDict+0x2a8>
  a4cc21:	ba 0f 00 00 00       	mov    $0xf,%edx
  a4cc26:	66 2e 0f 1f 84 00 00 	nopw   %cs:0x0(%eax,%eax,1)
  a4cc2d:	00 00 00 
  a4cc30:	41                   	inc    %ecx
  a4cc31:	0f b6 0f             	movzbl (%edi),%ecx
  a4cc34:	49                   	dec    %ecx
  a4cc35:	83 c7 01             	add    $0x1,%edi
  a4cc38:	48                   	dec    %eax
  a4cc39:	01 ca                	add    %ecx,%edx
  a4cc3b:	80 f9 ff             	cmp    $0xff,%cl
  a4cc3e:	74 f0                	je     a4cc30 <LZ4_decompress_fast_usingDict+0x420>
  a4cc40:	e9 d6 fe ff ff       	jmp    a4cb1b <LZ4_decompress_fast_usingDict+0x30b>
  a4cc45:	ba 0f 00 00 00       	mov    $0xf,%edx
  a4cc4a:	66 0f 1f 44 00 00    	nopw   0x0(%eax,%eax,1)
  a4cc50:	41                   	inc    %ecx
  a4cc51:	0f b6 0f             	movzbl (%edi),%ecx
  a4cc54:	49                   	dec    %ecx
  a4cc55:	83 c7 01             	add    $0x1,%edi
  a4cc58:	48                   	dec    %eax
  a4cc59:	01 ca                	add    %ecx,%edx
  a4cc5b:	80 f9 ff             	cmp    $0xff,%cl
  a4cc5e:	74 f0                	je     a4cc50 <LZ4_decompress_fast_usingDict+0x440>
  a4cc60:	e9 69 fe ff ff       	jmp    a4cace <LZ4_decompress_fast_usingDict+0x2be>
  a4cc65:	e8 f6 0f 00 00       	call   a4dc60 <memmove>
  a4cc6a:	45                   	inc    %ebp
  a4cc6b:	0f b6 07             	movzbl (%edi),%eax
  a4cc6e:	e9 45 fe ff ff       	jmp    a4cab8 <LZ4_decompress_fast_usingDict+0x2a8>
  a4cc73:	b8 01 00 00 00       	mov    $0x1,%eax
  a4cc78:	45                   	inc    %ebp
  a4cc79:	84 c0                	test   %al,%al
  a4cc7b:	0f 84 15 fd ff ff    	je     a4c996 <LZ4_decompress_fast_usingDict+0x186>
  a4cc81:	48                   	dec    %eax
  a4cc82:	83 c4 28             	add    $0x28,%esp
  a4cc85:	b8 ff ff ff ff       	mov    $0xffffffff,%eax
  a4cc8a:	5b                   	pop    %ebx
  a4cc8b:	5d                   	pop    %ebp
  a4cc8c:	41                   	inc    %ecx
  a4cc8d:	5c                   	pop    %esp
  a4cc8e:	41                   	inc    %ecx
  a4cc8f:	5d                   	pop    %ebp
  a4cc90:	41                   	inc    %ecx
  a4cc91:	5e                   	pop    %esi
  a4cc92:	41                   	inc    %ecx
  a4cc93:	5f                   	pop    %edi
  a4cc94:	c3                   	ret    
  a4cc95:	48                   	dec    %eax
  a4cc96:	8d 53 fb             	lea    -0x5(%ebx),%edx
  a4cc99:	49                   	dec    %ecx
  a4cc9a:	39 d6                	cmp    %edx,%esi
  a4cc9c:	77 e3                	ja     a4cc81 <LZ4_decompress_fast_usingDict+0x471>
  a4cc9e:	48                   	dec    %eax
  a4cc9f:	83 c7 08             	add    $0x8,%edi
  a4cca2:	48                   	dec    %eax
  a4cca3:	3b 7c 24 18          	cmp    0x18(%esp),%edi
  a4cca7:	72 6d                	jb     a4cd16 <LZ4_decompress_fast_usingDict+0x506>
  a4cca9:	4c                   	dec    %esp
  a4ccaa:	39 f7                	cmp    %esi,%edi
  a4ccac:	0f 83 ee fe ff ff    	jae    a4cba0 <LZ4_decompress_fast_usingDict+0x390>
  a4ccb2:	4c                   	dec    %esp
  a4ccb3:	89 f6                	mov    %esi,%esi
  a4ccb5:	31 d2                	xor    %edx,%edx
  a4ccb7:	48                   	dec    %eax
  a4ccb8:	29 fe                	sub    %edi,%esi
  a4ccba:	0f b6 0c 10          	movzbl (%eax,%edx,1),%ecx
  a4ccbe:	88 0c 17             	mov    %cl,(%edi,%edx,1)
  a4ccc1:	48                   	dec    %eax
  a4ccc2:	83 c2 01             	add    $0x1,%edx
  a4ccc5:	48                   	dec    %eax
  a4ccc6:	39 d6                	cmp    %edx,%esi
  a4ccc8:	75 f0                	jne    a4ccba <LZ4_decompress_fast_usingDict+0x4aa>
  a4ccca:	45                   	inc    %ebp
  a4cccb:	0f b6 07             	movzbl (%edi),%eax
  a4ccce:	e9 e5 fd ff ff       	jmp    a4cab8 <LZ4_decompress_fast_usingDict+0x2a8>
  a4ccd3:	41                   	inc    %ecx
  a4ccd4:	0f b6 02             	movzbl (%edx),%eax
  a4ccd7:	88 07                	mov    %al,(%edi)
  a4ccd9:	41                   	inc    %ecx
  a4ccda:	0f b6 42 01          	movzbl 0x1(%edx),%eax
  a4ccde:	88 47 01             	mov    %al,0x1(%edi)
  a4cce1:	41                   	inc    %ecx
  a4cce2:	0f b6 42 02          	movzbl 0x2(%edx),%eax
  a4cce6:	88 47 02             	mov    %al,0x2(%edi)
  a4cce9:	41                   	inc    %ecx
  a4ccea:	0f b6 42 03          	movzbl 0x3(%edx),%eax
  a4ccee:	88 47 03             	mov    %al,0x3(%edi)
  a4ccf1:	48                   	dec    %eax
  a4ccf2:	8d 05 a8 72 00 00    	lea    0x72a8,%eax
  a4ccf8:	8b 04 b0             	mov    (%eax,%esi,4),%eax
  a4ccfb:	4c                   	dec    %esp
  a4ccfc:	01 d0                	add    %edx,%eax
  a4ccfe:	8b 08                	mov    (%eax),%ecx
  a4cd00:	89 4f 04             	mov    %ecx,0x4(%edi)
  a4cd03:	48                   	dec    %eax
  a4cd04:	8d 0d b6 72 00 00    	lea    0x72b6,%ecx
  a4cd0a:	48                   	dec    %eax
  a4cd0b:	63 0c b1             	arpl   %cx,(%ecx,%esi,4)
  a4cd0e:	48                   	dec    %eax
  a4cd0f:	29 c8                	sub    %ecx,%eax
  a4cd11:	e9 ae fe ff ff       	jmp    a4cbc4 <LZ4_decompress_fast_usingDict+0x3b4>
  a4cd16:	48                   	dec    %eax
  a4cd17:	89 c1                	mov    %eax,%ecx
  a4cd19:	48                   	dec    %eax
  a4cd1a:	89 fa                	mov    %edi,%edx
  a4cd1c:	48                   	dec    %eax
  a4cd1d:	8b 31                	mov    (%ecx),%esi
  a4cd1f:	48                   	dec    %eax
  a4cd20:	83 c2 08             	add    $0x8,%edx
  a4cd23:	48                   	dec    %eax
  a4cd24:	83 c1 08             	add    $0x8,%ecx
  a4cd27:	48                   	dec    %eax
  a4cd28:	89 72 f8             	mov    %esi,-0x8(%edx)
  a4cd2b:	48                   	dec    %eax
  a4cd2c:	39 54 24 18          	cmp    %edx,0x18(%esp)
  a4cd30:	77 ea                	ja     a4cd1c <LZ4_decompress_fast_usingDict+0x50c>
  a4cd32:	48                   	dec    %eax
  a4cd33:	8b 74 24 18          	mov    0x18(%esp),%esi
  a4cd37:	48                   	dec    %eax
  a4cd38:	89 f2                	mov    %esi,%edx
  a4cd3a:	48                   	dec    %eax
  a4cd3b:	29 fa                	sub    %edi,%edx
  a4cd3d:	48                   	dec    %eax
  a4cd3e:	89 f7                	mov    %esi,%edi
  a4cd40:	48                   	dec    %eax
  a4cd41:	01 d0                	add    %edx,%eax
  a4cd43:	e9 61 ff ff ff       	jmp    a4cca9 <LZ4_decompress_fast_usingDict+0x499>
  a4cd48:	48                   	dec    %eax
  a4cd49:	01 ee                	add    %ebp,%esi
  a4cd4b:	3d fe ff 00 00       	cmp    $0xfffe,%eax
  a4cd50:	0f 8e 55 02 00 00    	jle    a4cfab <LZ4_decompress_fast_usingDict+0x79b>
  a4cd56:	85 d2                	test   %edx,%edx
  a4cd58:	0f 84 15 ff ff ff    	je     a4cc73 <LZ4_decompress_fast_usingDict+0x463>
  a4cd5e:	48                   	dec    %eax
  a4cd5f:	8b 5c 24 08          	mov    0x8(%esp),%ebx
  a4cd63:	4c                   	dec    %esp
  a4cd64:	8d 4e f8             	lea    -0x8(%esi),%ecx
  a4cd67:	48                   	dec    %eax
  a4cd68:	8d 7e f4             	lea    -0xc(%esi),%edi
  a4cd6b:	4c                   	dec    %esp
  a4cd6c:	8d 3d 4e 72 00 00    	lea    0x724e,%edi
  a4cd72:	4c                   	dec    %esp
  a4cd73:	8d 35 27 72 00 00    	lea    0x7227,%esi
  a4cd79:	4c                   	dec    %esp
  a4cd7a:	8d 5e f9             	lea    -0x7(%esi),%ebx
  a4cd7d:	4c                   	dec    %esp
  a4cd7e:	8d 6e fb             	lea    -0x5(%esi),%ebp
  a4cd81:	0f 1f 80 00 00 00 00 	nopl   0x0(%eax)
  a4cd88:	41                   	inc    %ecx
  a4cd89:	0f b6 c0             	movzbl %al,%eax
  a4cd8c:	48                   	dec    %eax
  a4cd8d:	83 c3 01             	add    $0x1,%ebx
  a4cd90:	c1 e8 04             	shr    $0x4,%eax
  a4cd93:	41                   	inc    %ecx
  a4cd94:	89 c4                	mov    %eax,%esp
  a4cd96:	83 f8 0f             	cmp    $0xf,%eax
  a4cd99:	0f 84 a7 00 00 00    	je     a4ce46 <LZ4_decompress_fast_usingDict+0x636>
  a4cd9f:	4a                   	dec    %edx
  a4cda0:	8d 54 25 00          	lea    0x0(%ebp,%eiz,1),%edx
  a4cda4:	4c                   	dec    %esp
  a4cda5:	39 ca                	cmp    %ecx,%edx
  a4cda7:	0f 87 6a 01 00 00    	ja     a4cf17 <LZ4_decompress_fast_usingDict+0x707>
  a4cdad:	48                   	dec    %eax
  a4cdae:	89 d8                	mov    %ebx,%eax
  a4cdb0:	48                   	dec    %eax
  a4cdb1:	8b 08                	mov    (%eax),%ecx
  a4cdb3:	48                   	dec    %eax
  a4cdb4:	83 c5 08             	add    $0x8,%ebp
  a4cdb7:	48                   	dec    %eax
  a4cdb8:	83 c0 08             	add    $0x8,%eax
  a4cdbb:	48                   	dec    %eax
  a4cdbc:	89 4d f8             	mov    %ecx,-0x8(%ebp)
  a4cdbf:	48                   	dec    %eax
  a4cdc0:	39 ea                	cmp    %ebp,%edx
  a4cdc2:	77 ec                	ja     a4cdb0 <LZ4_decompress_fast_usingDict+0x5a0>
  a4cdc4:	4c                   	dec    %esp
  a4cdc5:	01 e3                	add    %esp,%ebx
  a4cdc7:	44                   	inc    %esp
  a4cdc8:	89 c0                	mov    %eax,%eax
  a4cdca:	49                   	dec    %ecx
  a4cdcb:	89 d4                	mov    %edx,%esp
  a4cdcd:	4c                   	dec    %esp
  a4cdce:	89 c1                	mov    %eax,%ecx
  a4cdd0:	44                   	inc    %esp
  a4cdd1:	0f b7 13             	movzwl (%ebx),%edx
  a4cdd4:	83 e0 0f             	and    $0xf,%eax
  a4cdd7:	48                   	dec    %eax
  a4cdd8:	83 c3 02             	add    $0x2,%ebx
  a4cddb:	83 e1 0f             	and    $0xf,%ecx
  a4cdde:	44                   	inc    %esp
  a4cddf:	89 12                	mov    %edx,(%edx)
  a4cde1:	4d                   	dec    %ebp
  a4cde2:	29 d4                	sub    %edx,%esp
  a4cde4:	3c 0f                	cmp    $0xf,%al
  a4cde6:	74 7c                	je     a4ce64 <LZ4_decompress_fast_usingDict+0x654>
  a4cde8:	48                   	dec    %eax
  a4cde9:	83 c1 04             	add    $0x4,%ecx
  a4cdec:	48                   	dec    %eax
  a4cded:	8d 2c 0a             	lea    (%edx,%ecx,1),%ebp
  a4cdf0:	49                   	dec    %ecx
  a4cdf1:	83 fa 07             	cmp    $0x7,%edx
  a4cdf4:	0f 86 99 00 00 00    	jbe    a4ce93 <LZ4_decompress_fast_usingDict+0x683>
  a4cdfa:	49                   	dec    %ecx
  a4cdfb:	8b 04 24             	mov    (%esp),%eax
  a4cdfe:	48                   	dec    %eax
  a4cdff:	89 02                	mov    %eax,(%edx)
  a4ce01:	49                   	dec    %ecx
  a4ce02:	8d 44 24 08          	lea    0x8(%esp),%eax
  a4ce06:	48                   	dec    %eax
  a4ce07:	39 fd                	cmp    %edi,%ebp
  a4ce09:	0f 87 c4 00 00 00    	ja     a4ced3 <LZ4_decompress_fast_usingDict+0x6c3>
  a4ce0f:	4c                   	dec    %esp
  a4ce10:	8b 00                	mov    (%eax),%eax
  a4ce12:	4c                   	dec    %esp
  a4ce13:	89 42 08             	mov    %eax,0x8(%edx)
  a4ce16:	48                   	dec    %eax
  a4ce17:	83 f9 10             	cmp    $0x10,%ecx
  a4ce1a:	77 09                	ja     a4ce25 <LZ4_decompress_fast_usingDict+0x615>
  a4ce1c:	44                   	inc    %esp
  a4ce1d:	0f b6 03             	movzbl (%ebx),%eax
  a4ce20:	e9 63 ff ff ff       	jmp    a4cd88 <LZ4_decompress_fast_usingDict+0x578>
  a4ce25:	48                   	dec    %eax
  a4ce26:	83 c0 08             	add    $0x8,%eax
  a4ce29:	48                   	dec    %eax
  a4ce2a:	83 c2 10             	add    $0x10,%edx
  a4ce2d:	0f 1f 00             	nopl   (%eax)
  a4ce30:	48                   	dec    %eax
  a4ce31:	8b 08                	mov    (%eax),%ecx
  a4ce33:	48                   	dec    %eax
  a4ce34:	83 c2 08             	add    $0x8,%edx
  a4ce37:	48                   	dec    %eax
  a4ce38:	83 c0 08             	add    $0x8,%eax
  a4ce3b:	48                   	dec    %eax
  a4ce3c:	89 4a f8             	mov    %ecx,-0x8(%edx)
  a4ce3f:	48                   	dec    %eax
  a4ce40:	39 d5                	cmp    %edx,%ebp
  a4ce42:	77 ec                	ja     a4ce30 <LZ4_decompress_fast_usingDict+0x620>
  a4ce44:	eb d6                	jmp    a4ce1c <LZ4_decompress_fast_usingDict+0x60c>
  a4ce46:	41                   	inc    %ecx
  a4ce47:	bc 0f 00 00 00       	mov    $0xf,%esp
  a4ce4c:	0f 1f 40 00          	nopl   0x0(%eax)
  a4ce50:	0f b6 13             	movzbl (%ebx),%edx
  a4ce53:	48                   	dec    %eax
  a4ce54:	83 c3 01             	add    $0x1,%ebx
  a4ce57:	49                   	dec    %ecx
  a4ce58:	01 d4                	add    %edx,%esp
  a4ce5a:	80 fa ff             	cmp    $0xff,%dl
  a4ce5d:	74 f1                	je     a4ce50 <LZ4_decompress_fast_usingDict+0x640>
  a4ce5f:	e9 3b ff ff ff       	jmp    a4cd9f <LZ4_decompress_fast_usingDict+0x58f>
  a4ce64:	b9 0f 00 00 00       	mov    $0xf,%ecx
  a4ce69:	0f 1f 80 00 00 00 00 	nopl   0x0(%eax)
  a4ce70:	44                   	inc    %esp
  a4ce71:	0f b6 03             	movzbl (%ebx),%eax
  a4ce74:	48                   	dec    %eax
  a4ce75:	83 c3 01             	add    $0x1,%ebx
  a4ce78:	4c                   	dec    %esp
  a4ce79:	01 c1                	add    %eax,%ecx
  a4ce7b:	41                   	inc    %ecx
  a4ce7c:	80 f8 ff             	cmp    $0xff,%al
  a4ce7f:	74 ef                	je     a4ce70 <LZ4_decompress_fast_usingDict+0x660>
  a4ce81:	48                   	dec    %eax
  a4ce82:	83 c1 04             	add    $0x4,%ecx
  a4ce85:	48                   	dec    %eax
  a4ce86:	8d 2c 0a             	lea    (%edx,%ecx,1),%ebp
  a4ce89:	49                   	dec    %ecx
  a4ce8a:	83 fa 07             	cmp    $0x7,%edx
  a4ce8d:	0f 87 67 ff ff ff    	ja     a4cdfa <LZ4_decompress_fast_usingDict+0x5ea>
  a4ce93:	41                   	inc    %ecx
  a4ce94:	0f b6 04 24          	movzbl (%esp),%eax
  a4ce98:	88 02                	mov    %al,(%edx)
  a4ce9a:	41                   	inc    %ecx
  a4ce9b:	0f b6 44 24 01       	movzbl 0x1(%esp),%eax
  a4cea0:	88 42 01             	mov    %al,0x1(%edx)
  a4cea3:	41                   	inc    %ecx
  a4cea4:	0f b6 44 24 02       	movzbl 0x2(%esp),%eax
  a4cea9:	88 42 02             	mov    %al,0x2(%edx)
  a4ceac:	41                   	inc    %ecx
  a4cead:	0f b6 44 24 03       	movzbl 0x3(%esp),%eax
  a4ceb2:	88 42 03             	mov    %al,0x3(%edx)
  a4ceb5:	43                   	inc    %ebx
  a4ceb6:	8b 04 96             	mov    (%esi,%edx,4),%eax
  a4ceb9:	4c                   	dec    %esp
  a4ceba:	01 e0                	add    %esp,%eax
  a4cebc:	44                   	inc    %esp
  a4cebd:	8b 00                	mov    (%eax),%eax
  a4cebf:	44                   	inc    %esp
  a4cec0:	89 42 04             	mov    %eax,0x4(%edx)
  a4cec3:	4f                   	dec    %edi
  a4cec4:	63 04 97             	arpl   %ax,(%edi,%edx,4)
  a4cec7:	4c                   	dec    %esp
  a4cec8:	29 c0                	sub    %eax,%eax
  a4ceca:	48                   	dec    %eax
  a4cecb:	39 fd                	cmp    %edi,%ebp
  a4cecd:	0f 86 3c ff ff ff    	jbe    a4ce0f <LZ4_decompress_fast_usingDict+0x5ff>
  a4ced3:	4c                   	dec    %esp
  a4ced4:	39 ed                	cmp    %ebp,%ebp
